EXPORTS
    _ZN4inet10ILifecycleC2Ev @1
    _ZN4inet10ILifecycleD0Ev @2
    _ZN4inet10ILifecycleD2Ev @3
    _ZN4inet10MacAddressC2ERKS0_ @4
    _ZN4inet10MacAddressC2Ev @5
    _ZN4inet10MacAddressC2Ey @6
    _ZN4inet10MacAddressaSERKS0_ @7
    _ZN4inet10QuaternionC2ERKS0_ @8
    _ZN4inet10makeSharedIN5flora12LoRaMacFrameEJEEENS_12IntrusivePtrIT_EEDpOT0_ @9
    _ZN4inet10makeSharedIN5flora13LoRaAppPacketEJEEENS_12IntrusivePtrIT_EEDpOT0_ @10
    _ZN4inet10makeSharedIN5flora15LoRaPhyPreambleEJEEENS_12IntrusivePtrIT_EEDpOT0_ @11
    _ZN4inet10makeSharedIN5flora7LoRaTagEJEEENS_12IntrusivePtrIT_EEDpOT0_ @12
    _ZN4inet10makeSharedINS_12ErrorRateIndEJEEENS_12IntrusivePtrIT_EEDpOT0_ @13
    _ZN4inet10makeSharedINS_12InterfaceIndEJEEENS_12IntrusivePtrIT_EEDpOT0_ @14
    _ZN4inet10makeSharedINS_13MacAddressIndEJEEENS_12IntrusivePtrIT_EEDpOT0_ @15
    _ZN4inet10makeSharedINS_13MacAddressReqEJEEENS_12IntrusivePtrIT_EEDpOT0_ @16
    _ZN4inet10makeSharedINS_13SignalTimeIndEJEEENS_12IntrusivePtrIT_EEDpOT0_ @17
    _ZN4inet10makeSharedINS_14SignalPowerIndEJEEENS_12IntrusivePtrIT_EEDpOT0_ @18
    _ZN4inet10makeSharedINS_14SignalPowerReqEJEEENS_12IntrusivePtrIT_EEDpOT0_ @19
    _ZN4inet10makeSharedINS_17PacketProtocolTagEJEEENS_12IntrusivePtrIT_EEDpOT0_ @20
    _ZN4inet10makeSharedINS_18CsmaCaMacAckHeaderEJEEENS_12IntrusivePtrIT_EEDpOT0_ @21
    _ZN4inet10makeSharedINS_7SnirIndEJEEENS_12IntrusivePtrIT_EEDpOT0_ @22
    _ZN4inet11FieldsChunk12convertChunkERKSt9type_infoRKNS_12IntrusivePtrINS_5ChunkEEENS_5units5valueIxNS9_5units1bEEESD_i @23
    _ZN4inet11FieldsChunk14addChunkLengthENS_5units5valueIxNS1_5units1bEEE @24
    _ZN4inet11FieldsChunk14setChunkLengthENS_5units5valueIxNS1_5units1bEEE @25
    _ZN4inet11FieldsChunkaSERKS0_ @26
    _ZN4inet12IMacProtocolC2Ev @27
    _ZN4inet12IMacProtocolD0Ev @28
    _ZN4inet12IMacProtocolD2Ev @29
    _ZN4inet12IntervalTree8IntervalC2EN7omnetpp7SimTimeES3_Pv @30
    _ZN4inet12IntervalTree8IntervalD0Ev @31
    _ZN4inet12IntervalTree8IntervalD2Ev @32
    _ZN4inet12SharedVectorINS_12IntrusivePtrIKNS_7TagBaseEEEED2Ev @33
    _ZN4inet12SharedVectorINS_19SharingRegionTagSet9RegionTagINS_7TagBaseEEEED2Ev @34
    _ZN4inet12constPtrCastIN5flora12LoRaMacFrameEKS2_EENS_12IntrusivePtrIT_EERKNS4_IT0_EE @35
    _ZN4inet12constPtrCastINS_5ChunkEKS1_EENS_12IntrusivePtrIT_EERKNS3_IT0_EE @36
    _ZN4inet12constPtrCastINS_7TagBaseEKS1_EENS_12IntrusivePtrIT_EERKNS3_IT0_EE @37
    _ZN4inet13SharingTagSet14addTagIfAbsentIN5flora7LoRaTagEEEKNS_12IntrusivePtrIT_EEv @38
    _ZN4inet13SharingTagSet14addTagIfAbsentINS_12ErrorRateIndEEEKNS_12IntrusivePtrIT_EEv @39
    _ZN4inet13SharingTagSet14addTagIfAbsentINS_12InterfaceIndEEEKNS_12IntrusivePtrIT_EEv @40
    _ZN4inet13SharingTagSet14addTagIfAbsentINS_13MacAddressIndEEEKNS_12IntrusivePtrIT_EEv @41
    _ZN4inet13SharingTagSet14addTagIfAbsentINS_13MacAddressReqEEEKNS_12IntrusivePtrIT_EEv @42
    _ZN4inet13SharingTagSet14addTagIfAbsentINS_13SignalTimeIndEEEKNS_12IntrusivePtrIT_EEv @43
    _ZN4inet13SharingTagSet14addTagIfAbsentINS_14SignalPowerIndEEEKNS_12IntrusivePtrIT_EEv @44
    _ZN4inet13SharingTagSet14addTagIfAbsentINS_14SignalPowerReqEEEKNS_12IntrusivePtrIT_EEv @45
    _ZN4inet13SharingTagSet14addTagIfAbsentINS_17PacketProtocolTagEEEKNS_12IntrusivePtrIT_EEv @46
    _ZN4inet13SharingTagSet14addTagIfAbsentINS_7SnirIndEEEKNS_12IntrusivePtrIT_EEv @47
    _ZN4inet13SharingTagSet15getTagForUpdateEi @48
    _ZN4inet13SharingTagSet16findTagForUpdateIN5flora7LoRaTagEEEKNS_12IntrusivePtrIT_EEv @49
    _ZN4inet13SharingTagSet16findTagForUpdateINS_12ErrorRateIndEEEKNS_12IntrusivePtrIT_EEv @50
    _ZN4inet13SharingTagSet16findTagForUpdateINS_12InterfaceIndEEEKNS_12IntrusivePtrIT_EEv @51
    _ZN4inet13SharingTagSet16findTagForUpdateINS_13MacAddressIndEEEKNS_12IntrusivePtrIT_EEv @52
    _ZN4inet13SharingTagSet16findTagForUpdateINS_13MacAddressReqEEEKNS_12IntrusivePtrIT_EEv @53
    _ZN4inet13SharingTagSet16findTagForUpdateINS_13SignalTimeIndEEEKNS_12IntrusivePtrIT_EEv @54
    _ZN4inet13SharingTagSet16findTagForUpdateINS_14SignalPowerIndEEEKNS_12IntrusivePtrIT_EEv @55
    _ZN4inet13SharingTagSet16findTagForUpdateINS_14SignalPowerReqEEEKNS_12IntrusivePtrIT_EEv @56
    _ZN4inet13SharingTagSet16findTagForUpdateINS_17PacketProtocolTagEEEKNS_12IntrusivePtrIT_EEv @57
    _ZN4inet13SharingTagSet16findTagForUpdateINS_7SnirIndEEEKNS_12IntrusivePtrIT_EEv @58
    _ZN4inet13SharingTagSet6addTagIN5flora7LoRaTagEEEKNS_12IntrusivePtrIT_EEv @59
    _ZN4inet13SharingTagSet6setTagEiRKNS_12IntrusivePtrIKNS_7TagBaseEEE @60
    _ZN4inet13SharingTagSet9clearTagsEv @61
    _ZN4inet13SharingTagSet9removeTagIN5flora7LoRaTagEEEKNS_12IntrusivePtrIT_EEv @62
    _ZN4inet13physicallayer10IListeningD2Ev @63
    _ZN4inet13physicallayer10IReceptionC2Ev @64
    _ZN4inet13physicallayer10IReceptionD0Ev @65
    _ZN4inet13physicallayer10IReceptionD2Ev @66
    _ZN4inet13physicallayer11IModulationD2Ev @67
    _ZN4inet13physicallayer12IAnalogModelC2Ev @68
    _ZN4inet13physicallayer12IAnalogModelD0Ev @69
    _ZN4inet13physicallayer12IAnalogModelD2Ev @70
    _ZN4inet13physicallayer12ITransmitterC2Ev @71
    _ZN4inet13physicallayer12ITransmitterD0Ev @72
    _ZN4inet13physicallayer12ITransmitterD2Ev @73
    _ZN4inet13physicallayer12PathLossBaseD2Ev @74
    _ZN4inet13physicallayer12ReceiverBaseD0Ev @75
    _ZN4inet13physicallayer12ReceiverBaseD1Ev @76
    _ZN4inet13physicallayer12ReceiverBaseD2Ev @77
    _ZN4inet13physicallayer13BandListeningD2Ev @78
    _ZN4inet13physicallayer13FlatRadioBaseD0Ev @79
    _ZN4inet13physicallayer13FlatRadioBaseD1Ev @80
    _ZN4inet13physicallayer13FlatRadioBaseD2Ev @81
    _ZN4inet13physicallayer13IScalarSignalC2Ev @82
    _ZN4inet13physicallayer13ITransmissionC2Ev @83
    _ZN4inet13physicallayer13ITransmissionD0Ev @84
    _ZN4inet13physicallayer13ITransmissionD2Ev @85
    _ZN4inet13physicallayer13ListeningBaseD2Ev @86
    _ZN4inet13physicallayer13ReceptionBaseD0Ev @87
    _ZN4inet13physicallayer13ReceptionBaseD1Ev @88
    _ZN4inet13physicallayer13ReceptionBaseD2Ev @89
    _ZN4inet13physicallayer14INeighborCacheC2Ev @90
    _ZN4inet13physicallayer14INeighborCacheD0Ev @91
    _ZN4inet13physicallayer14INeighborCacheD2Ev @92
    _ZN4inet13physicallayer15AnalogModelBaseC2Ev @93
    _ZN4inet13physicallayer15AnalogModelBaseD0Ev @94
    _ZN4inet13physicallayer15AnalogModelBaseD1Ev @95
    _ZN4inet13physicallayer15AnalogModelBaseD2Ev @96
    _ZN4inet13physicallayer15IApskModulationD2Ev @97
    _ZN4inet13physicallayer15ScalarReceptionD0Ev @98
    _ZN4inet13physicallayer15ScalarReceptionD1Ev @99
    _ZN4inet13physicallayer15ScalarReceptionD2Ev @100
    _ZN4inet13physicallayer15TransmitterBaseD0Ev @101
    _ZN4inet13physicallayer15TransmitterBaseD1Ev @102
    _ZN4inet13physicallayer15TransmitterBaseD2Ev @103
    _ZN4inet13physicallayer16FlatReceiverBase14setSensitivityENS_5units5valueIdNS2_7composeINS4_INS4_INS2_5units1mENS4_INS5_2kgENS2_3powINS5_1sELin2ELi1EEEEEEES6_EENS8_IS9_Lin1ELi1EEEEEEE @104
    _ZN4inet13physicallayer16FlatReceiverBase18setEnergyDetectionENS_5units5valueIdNS2_7composeINS4_INS4_INS2_5units1mENS4_INS5_2kgENS2_3powINS5_1sELin2ELi1EEEEEEES6_EENS8_IS9_Lin1ELi1EEEEEEE @105
    _ZN4inet13physicallayer16FlatReceiverBaseD0Ev @106
    _ZN4inet13physicallayer16FlatReceiverBaseD1Ev @107
    _ZN4inet13physicallayer16FlatReceiverBaseD2Ev @108
    _ZN4inet13physicallayer16SnirReceiverBaseD0Ev @109
    _ZN4inet13physicallayer16SnirReceiverBaseD1Ev @110
    _ZN4inet13physicallayer16SnirReceiverBaseD2Ev @111
    _ZN4inet13physicallayer16TransmissionBaseD0Ev @112
    _ZN4inet13physicallayer16TransmissionBaseD1Ev @113
    _ZN4inet13physicallayer16TransmissionBaseD2Ev @114
    _ZN4inet13physicallayer17FlatReceptionBaseD0Ev @115
    _ZN4inet13physicallayer17FlatReceptionBaseD1Ev @116
    _ZN4inet13physicallayer17FlatReceptionBaseD2Ev @117
    _ZN4inet13physicallayer17FreeSpacePathLossD2Ev @118
    _ZN4inet13physicallayer17IMediumLimitCacheC2Ev @119
    _ZN4inet13physicallayer17IMediumLimitCacheD0Ev @120
    _ZN4inet13physicallayer17IMediumLimitCacheD2Ev @121
    _ZN4inet13physicallayer17INarrowbandSignalC2Ev @122
    _ZN4inet13physicallayer18ApskModulationBaseD2Ev @123
    _ZN4inet13physicallayer18ISignalAnalogModelC2Ev @124
    _ZN4inet13physicallayer18ISignalAnalogModelD0Ev @125
    _ZN4inet13physicallayer18ISignalAnalogModelD2Ev @126
    _ZN4inet13physicallayer19FlatTransmitterBase10setBitrateENS_5units5valueIdNS2_7composeINS2_5units1bENS2_3powINS5_1sELin1ELi1EEEEEEE @127
    _ZN4inet13physicallayer19FlatTransmitterBase15setHeaderLengthENS_5units5valueIxNS2_5units1bEEE @128
    _ZN4inet13physicallayer19FlatTransmitterBase8setPowerENS_5units5valueIdNS2_7composeINS4_INS4_INS2_5units1mENS4_INS5_2kgENS2_3powINS5_1sELin2ELi1EEEEEEES6_EENS8_IS9_Lin1ELi1EEEEEEE @129
    _ZN4inet13physicallayer19FlatTransmitterBaseD0Ev @130
    _ZN4inet13physicallayer19FlatTransmitterBaseD1Ev @131
    _ZN4inet13physicallayer19FlatTransmitterBaseD2Ev @132
    _ZN4inet13physicallayer19NarrowbandRadioBaseD0Ev @133
    _ZN4inet13physicallayer19NarrowbandRadioBaseD1Ev @134
    _ZN4inet13physicallayer19NarrowbandRadioBaseD2Ev @135
    _ZN4inet13physicallayer21IReceptionAnalogModelC2Ev @136
    _ZN4inet13physicallayer21IReceptionAnalogModelD0Ev @137
    _ZN4inet13physicallayer21IReceptionAnalogModelD1Ev @138
    _ZN4inet13physicallayer21IReceptionAnalogModelD2Ev @139
    _ZN4inet13physicallayer21ScalarAnalogModelBaseC2Ev @140
    _ZN4inet13physicallayer21ScalarAnalogModelBaseD0Ev @141
    _ZN4inet13physicallayer21ScalarAnalogModelBaseD1Ev @142
    _ZN4inet13physicallayer21ScalarAnalogModelBaseD2Ev @143
    _ZN4inet13physicallayer22NarrowbandReceiverBase12setBandwidthENS_5units5valueIdNS2_3powINS2_5units1sELin1ELi1EEEEE @144
    _ZN4inet13physicallayer22NarrowbandReceiverBase13setModulationEPKNS0_11IModulationE @145
    _ZN4inet13physicallayer22NarrowbandReceiverBase18setCenterFrequencyENS_5units5valueIdNS2_3powINS2_5units1sELin1ELi1EEEEE @146
    _ZN4inet13physicallayer22NarrowbandReceiverBaseD0Ev @147
    _ZN4inet13physicallayer22NarrowbandReceiverBaseD1Ev @148
    _ZN4inet13physicallayer22NarrowbandReceiverBaseD2Ev @149
    _ZN4inet13physicallayer23NarrowbandReceptionBaseD0Ev @150
    _ZN4inet13physicallayer23NarrowbandReceptionBaseD1Ev @151
    _ZN4inet13physicallayer23NarrowbandReceptionBaseD2Ev @152
    _ZN4inet13physicallayer24ITransmissionAnalogModelC2Ev @153
    _ZN4inet13physicallayer24ITransmissionAnalogModelD0Ev @154
    _ZN4inet13physicallayer24ITransmissionAnalogModelD1Ev @155
    _ZN4inet13physicallayer24ITransmissionAnalogModelD2Ev @156
    _ZN4inet13physicallayer25NarrowbandTransmitterBase12setBandwidthENS_5units5valueIdNS2_3powINS2_5units1sELin1ELi1EEEEE @157
    _ZN4inet13physicallayer25NarrowbandTransmitterBase13setModulationEPKNS0_11IModulationE @158
    _ZN4inet13physicallayer25NarrowbandTransmitterBase18setCenterFrequencyENS_5units5valueIdNS2_3powINS2_5units1sELin1ELi1EEEEE @159
    _ZN4inet13physicallayer25NarrowbandTransmitterBaseD0Ev @160
    _ZN4inet13physicallayer25NarrowbandTransmitterBaseD1Ev @161
    _ZN4inet13physicallayer25NarrowbandTransmitterBaseD2Ev @162
    _ZN4inet13physicallayer26StateBasedEpEnergyConsumerC2Ev @163
    _ZN4inet13physicallayer26StateBasedEpEnergyConsumerD0Ev @164
    _ZN4inet13physicallayer26StateBasedEpEnergyConsumerD1Ev @165
    _ZN4inet13physicallayer26StateBasedEpEnergyConsumerD2Ev @166
    _ZN4inet13physicallayer6IRadioC2Ev @167
    _ZN4inet13physicallayer6IRadioD0Ev @168
    _ZN4inet13physicallayer6IRadioD2Ev @169
    _ZN4inet13physicallayer9IPathLossD2Ev @170
    _ZN4inet13physicallayer9IReceiverC2Ev @171
    _ZN4inet13physicallayer9IReceiverD0Ev @172
    _ZN4inet13physicallayer9IReceiverD2Ev @173
    _ZN4inet13staticPtrCastIKN5flora7LoRaTagEKNS_7TagBaseEEENS_12IntrusivePtrIT_EERKNS6_IT0_EE @174
    _ZN4inet13staticPtrCastIKNS_12ErrorRateIndEKNS_7TagBaseEEENS_12IntrusivePtrIT_EERKNS5_IT0_EE @175
    _ZN4inet13staticPtrCastIKNS_14SignalPowerIndEKNS_7TagBaseEEENS_12IntrusivePtrIT_EERKNS5_IT0_EE @176
    _ZN4inet13staticPtrCastIKNS_7SnirIndEKNS_7TagBaseEEENS_12IntrusivePtrIT_EERKNS5_IT0_EE @177
    _ZN4inet13staticPtrCastIN5flora12LoRaMacFrameENS_5ChunkEEENS_12IntrusivePtrIT_EERKNS4_IT0_EE @178
    _ZN4inet13staticPtrCastIN5flora13LoRaAppPacketENS_5ChunkEEENS_12IntrusivePtrIT_EERKNS4_IT0_EE @179
    _ZN4inet13staticPtrCastIN5flora15LoRaPhyPreambleENS_5ChunkEEENS_12IntrusivePtrIT_EERKNS4_IT0_EE @180
    _ZN4inet13staticPtrCastIN5flora7LoRaTagENS_7TagBaseEEENS_12IntrusivePtrIT_EERKNS4_IT0_EE @181
    _ZN4inet13staticPtrCastINS_11FieldsChunkENS_5ChunkEEENS_12IntrusivePtrIT_EERKNS3_IT0_EE @182
    _ZN4inet13staticPtrCastINS_12ErrorRateIndENS_7TagBaseEEENS_12IntrusivePtrIT_EERKNS3_IT0_EE @183
    _ZN4inet13staticPtrCastINS_12InterfaceIndENS_7TagBaseEEENS_12IntrusivePtrIT_EERKNS3_IT0_EE @184
    _ZN4inet13staticPtrCastINS_13MacAddressIndENS_7TagBaseEEENS_12IntrusivePtrIT_EERKNS3_IT0_EE @185
    _ZN4inet13staticPtrCastINS_13MacAddressReqENS_7TagBaseEEENS_12IntrusivePtrIT_EERKNS3_IT0_EE @186
    _ZN4inet13staticPtrCastINS_13SignalTimeIndENS_7TagBaseEEENS_12IntrusivePtrIT_EERKNS3_IT0_EE @187
    _ZN4inet13staticPtrCastINS_14SignalPowerIndENS_7TagBaseEEENS_12IntrusivePtrIT_EERKNS3_IT0_EE @188
    _ZN4inet13staticPtrCastINS_14SignalPowerReqENS_7TagBaseEEENS_12IntrusivePtrIT_EERKNS3_IT0_EE @189
    _ZN4inet13staticPtrCastINS_17PacketProtocolTagENS_7TagBaseEEENS_12IntrusivePtrIT_EERKNS3_IT0_EE @190
    _ZN4inet13staticPtrCastINS_5ChunkES1_EENS_12IntrusivePtrIT_EERKNS2_IT0_EE @191
    _ZN4inet13staticPtrCastINS_7SnirIndENS_7TagBaseEEENS_12IntrusivePtrIT_EERKNS3_IT0_EE @192
    _ZN4inet14IPhysicalLayerC2Ev @193
    _ZN4inet14IPhysicalLayerD0Ev @194
    _ZN4inet14IPhysicalLayerD2Ev @195
    _ZN4inet14ModuleRefByParINS_13physicallayer12IRadioMediumEE3getEv @196
    _ZN4inet14ModuleRefByParINS_5power15IEpEnergySourceEE9referenceEPN7omnetpp7cModuleEPKcb @197
    _ZN4inet14ModuleRefByParINS_5power15IEpEnergySourceEEC2Ev @198
    _ZN4inet14ModuleRefByParINS_5power15IEpEnergySourceEED2Ev @199
    _ZN4inet14dynamicPtrCastIKN5flora12LoRaMacFrameEKNS_11FieldsChunkEEENS_12IntrusivePtrIT_EERKNS6_IT0_EE @200
    _ZN4inet14dynamicPtrCastIKN5flora12LoRaMacFrameEKNS_5ChunkEEENS_12IntrusivePtrIT_EERKNS6_IT0_EE @201
    _ZN4inet14dynamicPtrCastIKN5flora15LoRaPhyPreambleEKNS_11FieldsChunkEEENS_12IntrusivePtrIT_EERKNS6_IT0_EE @202
    _ZN4inet14dynamicPtrCastIN5flora12LoRaMacFrameENS_5ChunkEEENS_12IntrusivePtrIT_EERKNS4_IT0_EE @203
    _ZN4inet14dynamicPtrCastIN5flora13LoRaAppPacketENS_5ChunkEEENS_12IntrusivePtrIT_EERKNS4_IT0_EE @204
    _ZN4inet14dynamicPtrCastIN5flora15LoRaPhyPreambleENS_5ChunkEEENS_12IntrusivePtrIT_EERKNS4_IT0_EE @205
    _ZN4inet14dynamicPtrCastINS_11FieldsChunkENS_5ChunkEEENS_12IntrusivePtrIT_EERKNS3_IT0_EE @206
    _ZN4inet15doParsimPackingEPN7omnetpp11cCommBufferERKNS_10MacAddressE @207
    _ZN4inet16IPrintableObjectC2ERKS0_ @208
    _ZN4inet16IPrintableObjectC2Ev @209
    _ZN4inet16IPrintableObjectD0Ev @210
    _ZN4inet16IPrintableObjectD2Ev @211
    _ZN4inet16IPrintableObjectaSERKS0_ @212
    _ZN4inet16getModuleFromParIN5flora10LoRaMediumEEEPT_RN7omnetpp4cParEPKNS5_7cModuleE @213
    _ZN4inet16getModuleFromParIN7omnetpp7cModuleEEEPT_RNS1_4cParEPKS2_ @214
    _ZN4inet16getModuleFromParINS_5power15IEpEnergySourceEEEPT_RN7omnetpp4cParEPKNS5_7cModuleE @215
    _ZN4inet17InitStageRegistry30ensureInitStageNumbersAssignedEv @216
    _ZN4inet17L3AddressResolverC2Ev @217
    _ZN4inet17L3AddressResolverD2Ev @218
    _ZN4inet17doParsimUnpackingEPN7omnetpp11cCommBufferERNS_10MacAddressE @219
    _ZN4inet17findModuleFromParINS_5power15IEpEnergySourceEEEPT_RN7omnetpp4cParEPKNS5_7cModuleE @220
    _ZN4inet18printFieldToStringB5cxx11EPKNS_16IPrintableObjectEii @221
    _ZN4inet19IRegionTaggedObjectaSERKS0_ @222
    _ZN4inet19SharingRegionTagSetaSERKS0_ @223
    _ZN4inet32makeExclusivelyOwnedMutableChunkIN5flora12LoRaMacFrameEEEKNS_12IntrusivePtrIT_EERKNS3_IKS4_EE @224
    _ZN4inet4math10n_choose_kEii @225
    _ZN4inet4math11dB2fractionEd @226
    _ZN4inet4math11fraction2dBEd @227
    _ZN4inet4math7dBmW2mWEd @228
    _ZN4inet4math7mW2dBmWEd @229
    _ZN4inet5Chunk10doInsertAtERKNS_12IntrusivePtrIKS0_EENS_5units5valueIxNS6_5units1bEEE @230
    _ZN4inet5Chunk10doRemoveAtENS_5units5valueIxNS1_5units1bEEES5_ @231
    _ZN4inet5Chunk13getRegionTagsEv @232
    _ZN4inet5Chunk13markImmutableEv @233
    _ZN4inet5Chunk13markIncorrectEv @234
    _ZN4inet5Chunk14doInsertAtBackERKNS_12IntrusivePtrIKS0_EE @235
    _ZN4inet5Chunk14doRemoveAtBackENS_5units5valueIxNS1_5units1bEEE @236
    _ZN4inet5Chunk14markIncompleteEv @237
    _ZN4inet5Chunk15doInsertAtFrontERKNS_12IntrusivePtrIKS0_EE @238
    _ZN4inet5Chunk15doRemoveAtFrontENS_5units5valueIxNS1_5units1bEEE @239
    _ZN4inet5Chunk25markImproperlyRepresentedEv @240
    _ZN4inet5Chunk29markMutableIfExclusivelyOwnedEv @241
    _ZN4inet5ChunkaSERKS0_ @242
    _ZN4inet5Coord4copyERKS0_ @243
    _ZN4inet5CoordC2ERKS0_ @244
    _ZN4inet5CoordC2Eddd @245
    _ZN4inet5CoordaSERKS0_ @246
    _ZN4inet5CoordmIERKS0_ @247
    _ZN4inet5power15IEnergyConsumerC2Ev @248
    _ZN4inet5power15IEnergyConsumerD0Ev @249
    _ZN4inet5power15IEnergyConsumerD2Ev @250
    _ZN4inet5power17IEpEnergyConsumerC2Ev @251
    _ZN4inet5power17IEpEnergyConsumerD0Ev @252
    _ZN4inet5power17IEpEnergyConsumerD1Ev @253
    _ZN4inet5power17IEpEnergyConsumerD2Ev @254
    _ZN4inet5units11output_unitINS0_3powINS0_5units1sELin1ELi1EEEE2fnISoEEvRT_ @255
    _ZN4inet5units11output_unitINS0_5scaleINS0_3powINS0_5units1sELin1ELi1EEELi1ELi1000EEEE2fnISoEEvRT_ @256
    _ZN4inet5units11output_unitINS0_5scaleINS0_7composeINS0_5units1bENS0_3powINS4_1sELin1ELi1EEEEELi1ELi1000EEEE2fnISoEEvRT_ @257
    _ZN4inet5units11output_unitINS0_5scaleINS0_7composeINS3_INS3_INS0_5units1mENS3_INS4_2kgENS0_3powINS4_1sELin2ELi1EEEEEEES5_EENS7_IS8_Lin1ELi1EEEEELi1000ELi1EEEE2fnISoEEvRT_ @258
    _ZN4inet5units11output_unitINS0_5scaleINS2_INS0_3powINS0_5units1sELin1ELi1EEELi1ELi1000EEELi1ELi1000EEEE2fnISoEEvRT_ @259
    _ZN4inet5units11output_unitINS0_5scaleINS2_INS0_7composeINS0_5units1bENS0_3powINS4_1sELin1ELi1EEEEELi1ELi1000EEELi1ELi1000EEEE2fnISoEEvRT_ @260
    _ZN4inet5units11output_unitINS0_5scaleINS2_INS0_7composeINS3_INS3_INS0_5units1mENS3_INS4_2kgENS0_3powINS4_1sELin2ELi1EEEEEEES5_EENS7_IS8_Lin1ELi1EEEEELi1000ELi1EEELi1000ELi1EEEE2fnISoEEvRT_ @261
    _ZN4inet5units11output_unitINS0_5scaleINS2_INS2_INS0_3powINS0_5units1sELin1ELi1EEELi1ELi1000EEELi1ELi1000EEELi1ELi1000EEEE2fnISoEEvRT_ @262
    _ZN4inet5units11output_unitINS0_5scaleINS2_INS2_INS0_7composeINS0_5units1bENS0_3powINS4_1sELin1ELi1EEEEELi1ELi1000EEELi1ELi1000EEELi1ELi1000EEEE2fnISoEEvRT_ @263
    _ZN4inet5units11output_unitINS0_5scaleINS2_INS2_INS0_7composeINS3_INS3_INS0_5units1mENS3_INS4_2kgENS0_3powINS4_1sELin2ELi1EEEEEEES5_EENS7_IS8_Lin1ELi1EEEEELi1000ELi1EEELi1000ELi1EEELi1000ELi1EEEE2fnISoEEvRT_ @264
    _ZN4inet5units11output_unitINS0_5scaleINS2_INS2_INS2_INS0_7composeINS3_INS3_INS0_5units1mENS3_INS4_2kgENS0_3powINS4_1sELin2ELi1EEEEEEES5_EENS7_IS8_Lin1ELi1EEEEELi1000ELi1EEELi1000ELi1EEELi1000ELi1EEELi1000ELi1EEEE2fnISoEEvRT_ @265
    _ZN4inet5units11output_unitINS0_5units1mEE2fnISoEEvRT_ @266
    _ZN4inet5units11output_unitINS0_7composeINS0_5units1bENS0_3powINS3_1sELin1ELi1EEEEEE2fnISoEEvRT_ @267
    _ZN4inet5units11output_unitINS0_7composeINS0_5units1mENS0_3powINS3_1sELin1ELi1EEEEEE2fnISoEEvRT_ @268
    _ZN4inet5units11output_unitINS0_7composeINS2_INS2_INS0_5units1mENS2_INS3_2kgENS0_3powINS3_1sELin2ELi1EEEEEEES4_EENS6_IS7_Lin1ELi1EEEEEE2fnISoEEvRT_ @269
    _ZN4inet5units15doParsimPackingIdNS0_3powINS0_5units1sELin1ELi1EEEEEvPN7omnetpp11cCommBufferERKNS0_5valueIT_T0_EE @270
    _ZN4inet5units15doParsimPackingIdNS0_7composeINS0_5units1bENS0_3powINS3_1sELin1ELi1EEEEEEEvPN7omnetpp11cCommBufferERKNS0_5valueIT_T0_EE @271
    _ZN4inet5units15doParsimPackingIdNS0_7composeINS2_INS2_INS0_5units1mENS2_INS3_2kgENS0_3powINS3_1sELin2ELi1EEEEEEES4_EENS6_IS7_Lin1ELi1EEEEEEEvPN7omnetpp11cCommBufferERKNS0_5valueIT_T0_EE @272
    _ZN4inet5units17doParsimUnpackingIdNS0_3powINS0_5units1sELin1ELi1EEEEEvPN7omnetpp11cCommBufferERNS0_5valueIT_T0_EE @273
    _ZN4inet5units17doParsimUnpackingIdNS0_7composeINS0_5units1bENS0_3powINS3_1sELin1ELi1EEEEEEEvPN7omnetpp11cCommBufferERNS0_5valueIT_T0_EE @274
    _ZN4inet5units17doParsimUnpackingIdNS0_7composeINS2_INS2_INS0_5units1mENS2_INS3_2kgENS0_3powINS3_1sELin2ELi1EEEEEEES4_EENS6_IS7_Lin1ELi1EEEEEEEvPN7omnetpp11cCommBufferERNS0_5valueIT_T0_EE @275
    _ZN4inet5units5valueIdNS0_3powINS0_5units1mELin1ELi1EEEEC2ERKd @276
    _ZN4inet5units5valueIdNS0_3powINS0_5units1sELin1ELi1EEEE3setERKd @277
    _ZN4inet5units5valueIdNS0_3powINS0_5units1sELin1ELi1EEEEC2ERKd @278
    _ZN4inet5units5valueIdNS0_3powINS0_5units1sELin1ELi1EEEEC2Ev @279
    _ZN4inet5units5valueIdNS0_3powINS0_5units1sELin1ELi1EEEEC2IdNS0_5scaleINS8_INS8_IS5_Li1ELi1000EEELi1ELi1000EEELi1ELi1000EEEEERKNS1_IT_T0_EE @280
    _ZN4inet5units5valueIdNS0_3powINS0_5units1sELin1ELi1EEEEC2IdNS0_5scaleINS8_IS5_Li1ELi1000EEELi1ELi1000EEEEERKNS1_IT_T0_EE @281
    _ZN4inet5units5valueIdNS0_3powINS0_5units1sELin1ELi1EEEEC2IdNS0_5scaleIS5_Li1ELi1000EEEEERKNS1_IT_T0_EE @282
    _ZN4inet5units5valueIdNS0_3powINS0_5units3molELin1ELi1EEEEC2ERKd @283
    _ZN4inet5units5valueIdNS0_3powINS0_8internal4noneELi0ELi1EEEEC2ERKd @284
    _ZN4inet5units5valueIdNS0_3powINS0_8internal4noneELi0ELi1EEEEC2IdNS0_7composeINS0_5units1mENS2_ISA_Lin1ELi1EEEEEEERKNS1_IT_T0_EE @285
    _ZN4inet5units5valueIdNS0_3powINS0_8internal4noneELi0ELi1EEEEC2IdNS0_7composeINS8_INS8_INS8_INS0_5units1mENS8_INS9_2kgENS2_INS9_1sELin2ELi1EEEEEEESA_EENS2_ISC_Lin1ELi1EEEEENS2_ISI_Lin1ELi1EEEEEEERKNS1_IT_T0_EE @286
    _ZN4inet5units5valueIdNS0_5scaleINS0_3powINS0_5units1sELin1ELi1EEELi1ELi1000EEEEC2ERKd @287
    _ZN4inet5units5valueIdNS0_5scaleINS0_3powINS0_5units1sELin1ELi1EEELi1ELi1000EEEEC2IdS6_EERKNS1_IT_T0_EE @288
    _ZN4inet5units5valueIdNS0_5scaleINS0_7composeINS0_5units1bENS0_3powINS4_1sELin1ELi1EEEEELi1ELi1000EEEEC2ERKd @289
    _ZN4inet5units5valueIdNS0_5scaleINS0_7composeINS0_5units1bENS0_3powINS4_1sELin1ELi1EEEEELi1ELi1000EEEEC2IdS9_EERKNS1_IT_T0_EE @290
    _ZN4inet5units5valueIdNS0_5scaleINS0_7composeINS3_INS3_INS0_5units1mENS3_INS4_2kgENS0_3powINS4_1sELin2ELi1EEEEEEES5_EENS7_IS8_Lin1ELi1EEEEELi1000ELi1EEEEC2ERKd @291
    _ZN4inet5units5valueIdNS0_5scaleINS0_7composeINS3_INS3_INS0_5units1mENS3_INS4_2kgENS0_3powINS4_1sELin2ELi1EEEEEEES5_EENS7_IS8_Lin1ELi1EEEEELi1000ELi1EEEEC2IdSE_EERKNS1_IT_T0_EE @292
    _ZN4inet5units5valueIdNS0_5scaleINS2_INS0_3powINS0_5units1sELin1ELi1EEELi1ELi1000EEELi1ELi1000EEEEC2ERKd @293
    _ZN4inet5units5valueIdNS0_5scaleINS2_INS0_3powINS0_5units1sELin1ELi1EEELi1ELi1000EEELi1ELi1000EEEEC2IdS6_EERKNS1_IT_T0_EE @294
    _ZN4inet5units5valueIdNS0_5scaleINS2_INS0_7composeINS0_5units1bENS0_3powINS4_1sELin1ELi1EEEEELi1ELi1000EEELi1ELi1000EEEEC2ERKd @295
    _ZN4inet5units5valueIdNS0_5scaleINS2_INS0_7composeINS0_5units1bENS0_3powINS4_1sELin1ELi1EEEEELi1ELi1000EEELi1ELi1000EEEEC2IdS9_EERKNS1_IT_T0_EE @296
    _ZN4inet5units5valueIdNS0_5scaleINS2_INS0_7composeINS3_INS3_INS0_5units1mENS3_INS4_2kgENS0_3powINS4_1sELin2ELi1EEEEEEES5_EENS7_IS8_Lin1ELi1EEEEELi1000ELi1EEELi1000ELi1EEEEC2ERKd @297
    _ZN4inet5units5valueIdNS0_5scaleINS2_INS0_7composeINS3_INS3_INS0_5units1mENS3_INS4_2kgENS0_3powINS4_1sELin2ELi1EEEEEEES5_EENS7_IS8_Lin1ELi1EEEEELi1000ELi1EEELi1000ELi1EEEEC2IdSE_EERKNS1_IT_T0_EE @298
    _ZN4inet5units5valueIdNS0_5scaleINS2_INS2_INS0_3powINS0_5units1sELin1ELi1EEELi1ELi1000EEELi1ELi1000EEELi1ELi1000EEEEC2ERKd @299
    _ZN4inet5units5valueIdNS0_5scaleINS2_INS2_INS0_3powINS0_5units1sELin1ELi1EEELi1ELi1000EEELi1ELi1000EEELi1ELi1000EEEEC2IdS6_EERKNS1_IT_T0_EE @300
    _ZN4inet5units5valueIdNS0_5scaleINS2_INS2_INS0_7composeINS0_5units1bENS0_3powINS4_1sELin1ELi1EEEEELi1ELi1000EEELi1ELi1000EEELi1ELi1000EEEEC2ERKd @301
    _ZN4inet5units5valueIdNS0_5scaleINS2_INS2_INS0_7composeINS0_5units1bENS0_3powINS4_1sELin1ELi1EEEEELi1ELi1000EEELi1ELi1000EEELi1ELi1000EEEEC2IdS9_EERKNS1_IT_T0_EE @302
    _ZN4inet5units5valueIdNS0_5scaleINS2_INS2_INS0_7composeINS3_INS3_INS0_5units1mENS3_INS4_2kgENS0_3powINS4_1sELin2ELi1EEEEEEES5_EENS7_IS8_Lin1ELi1EEEEELi1000ELi1EEELi1000ELi1EEELi1000ELi1EEEEC2ERKd @303
    _ZN4inet5units5valueIdNS0_5scaleINS2_INS2_INS0_7composeINS3_INS3_INS0_5units1mENS3_INS4_2kgENS0_3powINS4_1sELin2ELi1EEEEEEES5_EENS7_IS8_Lin1ELi1EEEEELi1000ELi1EEELi1000ELi1EEELi1000ELi1EEEEC2IdSE_EERKNS1_IT_T0_EE @304
    _ZN4inet5units5valueIdNS0_5scaleINS2_INS2_INS2_INS0_7composeINS3_INS3_INS0_5units1mENS3_INS4_2kgENS0_3powINS4_1sELin2ELi1EEEEEEES5_EENS7_IS8_Lin1ELi1EEEEELi1000ELi1EEELi1000ELi1EEELi1000ELi1EEELi1000ELi1EEEEC2ERKd @305
    _ZN4inet5units5valueIdNS0_5scaleINS2_INS2_INS2_INS0_7composeINS3_INS3_INS0_5units1mENS3_INS4_2kgENS0_3powINS4_1sELin2ELi1EEEEEEES5_EENS7_IS8_Lin1ELi1EEEEELi1000ELi1EEELi1000ELi1EEELi1000ELi1EEELi1000ELi1EEEEC2IdSE_EERKNS1_IT_T0_EE @306
    _ZN4inet5units5valueIdNS0_5units1mEEC2ERKd @307
    _ZN4inet5units5valueIdNS0_5units1mEEC2Ev @308
    _ZN4inet5units5valueIdNS0_5units1sEEC2ERKd @309
    _ZN4inet5units5valueIdNS0_5units2kgEEC2ERKd @310
    _ZN4inet5units5valueIdNS0_5units3radEEC2ERKd @311
    _ZN4inet5units5valueIdNS0_7composeINS0_3powINS0_5units1mELi3ELi1EEENS2_INS3_INS4_2kgELin1ELi1EEENS3_INS4_1sELin2ELi1EEEEEEEEC2ERKd @312
    _ZN4inet5units5valueIdNS0_7composeINS0_5units1bENS0_3powINS3_1sELin1ELi1EEEEEE3setERKd @313
    _ZN4inet5units5valueIdNS0_7composeINS0_5units1bENS0_3powINS3_1sELin1ELi1EEEEEEC2ERKd @314
    _ZN4inet5units5valueIdNS0_7composeINS0_5units1bENS0_3powINS3_1sELin1ELi1EEEEEEC2IdNS0_5scaleINSB_INSB_IS8_Li1ELi1000EEELi1ELi1000EEELi1ELi1000EEEEERKNS1_IT_T0_EE @315
    _ZN4inet5units5valueIdNS0_7composeINS0_5units1bENS0_3powINS3_1sELin1ELi1EEEEEEC2IdNS0_5scaleINSB_IS8_Li1ELi1000EEELi1ELi1000EEEEERKNS1_IT_T0_EE @316
    _ZN4inet5units5valueIdNS0_7composeINS0_5units1bENS0_3powINS3_1sELin1ELi1EEEEEEC2IdNS0_5scaleIS8_Li1ELi1000EEEEERKNS1_IT_T0_EE @317
    _ZN4inet5units5valueIdNS0_7composeINS0_5units1mENS0_3powINS3_1sELin1ELi1EEEEEEC2ERKd @318
    _ZN4inet5units5valueIdNS0_7composeINS0_5units1mENS0_3powINS3_1sELin2ELi1EEEEEEC2ERKd @319
    _ZN4inet5units5valueIdNS0_7composeINS0_5units1mENS0_3powIS4_Lin1ELi1EEEEEEC2ERKd @320
    _ZN4inet5units5valueIdNS0_7composeINS0_5units1sENS2_INS2_INS2_INS3_1mENS2_INS3_2kgENS0_3powIS4_Lin2ELi1EEEEEEES5_EENS7_IS4_Lin1ELi1EEEEEEEEC2ERKd @321
    _ZN4inet5units5valueIdNS0_7composeINS0_5units1sENS3_1AEEEEC2ERKd @322
    _ZN4inet5units5valueIdNS0_7composeINS2_INS0_5units1mENS2_INS3_2kgENS0_3powINS3_1sELin2ELi1EEEEEEENS6_INS3_1AELin2ELi1EEEEEEC2ERKd @323
    _ZN4inet5units5valueIdNS0_7composeINS2_INS0_5units1mENS2_INS3_2kgENS0_3powINS3_1sELin2ELi1EEEEEEES4_EEEC2ERKd @324
    _ZN4inet5units5valueIdNS0_7composeINS2_INS0_5units1mENS2_INS3_2kgENS0_3powINS3_1sELin2ELi1EEEEEEES4_EEEC2IdNS2_IS7_NS2_ISB_NS6_IS7_Lin1ELi1EEEEEEEEERKNS1_IT_T0_EE @325
    _ZN4inet5units5valueIdNS0_7composeINS2_INS0_5units1mENS2_INS3_2kgENS0_3powINS3_1sELin2ELi1EEEEEEES4_EEEpLIdNS2_IS7_NS2_ISB_NS6_IS7_Lin1ELi1EEEEEEEEERSC_RKNS1_IT_T0_EE @326
    _ZN4inet5units5valueIdNS0_7composeINS2_INS0_5units1sENS3_1AEEENS0_3powINS2_INS2_INS2_INS2_INS3_1mENS2_INS3_2kgENS7_IS4_Lin2ELi1EEEEEEES8_EENS7_IS4_Lin1ELi1EEEEENS7_IS5_Lin1ELi1EEEEELin1ELi1EEEEEEC2ERKd @327
    _ZN4inet5units5valueIdNS0_7composeINS2_INS2_INS0_5units1mENS2_INS3_2kgENS0_3powINS3_1sELin2ELi1EEEEEEES4_EENS2_INS6_INS3_3molELin1ELi1EEENS6_IS5_Lin1ELi1EEEEEEEEC2ERKd @328
    _ZN4inet5units5valueIdNS0_7composeINS2_INS2_INS0_5units1mENS2_INS3_2kgENS0_3powINS3_1sELin2ELi1EEEEEEES4_EENS6_INS3_1KELin1ELi1EEEEEEC2ERKd @329
    _ZN4inet5units5valueIdNS0_7composeINS2_INS2_INS0_5units1mENS2_INS3_2kgENS0_3powINS3_1sELin2ELi1EEEEEEES4_EENS6_IS7_Lin1ELi1EEEEEE3setERKd @330
    _ZN4inet5units5valueIdNS0_7composeINS2_INS2_INS0_5units1mENS2_INS3_2kgENS0_3powINS3_1sELin2ELi1EEEEEEES4_EENS6_IS7_Lin1ELi1EEEEEEC2ERKd @331
    _ZN4inet5units5valueIdNS0_7composeINS2_INS2_INS0_5units1mENS2_INS3_2kgENS0_3powINS3_1sELin2ELi1EEEEEEES4_EENS6_IS7_Lin1ELi1EEEEEEC2Ev @332
    _ZN4inet5units5valueIdNS0_7composeINS2_INS2_INS0_5units1mENS2_INS3_2kgENS0_3powINS3_1sELin2ELi1EEEEEEES4_EENS6_IS7_Lin1ELi1EEEEEEC2IdNS0_5scaleINSG_INSG_INSG_ISD_Li1000ELi1EEELi1000ELi1EEELi1000ELi1EEELi1000ELi1EEEEERKNS1_IT_T0_EE @333
    _ZN4inet5units5valueIdNS0_7composeINS2_INS2_INS0_5units1mENS2_INS3_2kgENS0_3powINS3_1sELin2ELi1EEEEEEES4_EENS6_IS7_Lin1ELi1EEEEEEC2IdNS0_5scaleINSG_INSG_ISD_Li1000ELi1EEELi1000ELi1EEELi1000ELi1EEEEERKNS1_IT_T0_EE @334
    _ZN4inet5units5valueIdNS0_7composeINS2_INS2_INS0_5units1mENS2_INS3_2kgENS0_3powINS3_1sELin2ELi1EEEEEEES4_EENS6_IS7_Lin1ELi1EEEEEEC2IdNS0_5scaleINSG_ISD_Li1000ELi1EEELi1000ELi1EEEEERKNS1_IT_T0_EE @335
    _ZN4inet5units5valueIdNS0_7composeINS2_INS2_INS0_5units1mENS2_INS3_2kgENS0_3powINS3_1sELin2ELi1EEEEEEES4_EENS6_IS7_Lin1ELi1EEEEEEC2IdNS0_5scaleISD_Li1000ELi1EEEEERKNS1_IT_T0_EE @336
    _ZN4inet5units5valueIdNS0_7composeINS2_INS2_INS0_5units1mENS2_INS3_2kgENS0_3powINS3_1sELin2ELi1EEEEEEES4_EENS6_IS7_Lin1ELi1EEEEEEaSIdNS0_5scaleISD_Li1000ELi1EEEEERSE_RKNS1_IT_T0_EE @337
    _ZN4inet5units5valueIdNS0_7composeINS2_INS2_INS0_5units1mENS2_INS3_2kgENS0_3powINS3_1sELin2ELi1EEEEEEES4_EENS6_IS7_Lin1ELi1EEEEEEmIIdSD_EERSE_RKNS1_IT_T0_EE @338
    _ZN4inet5units5valueIdNS0_7composeINS2_INS2_INS0_5units1mENS2_INS3_2kgENS0_3powINS3_1sELin2ELi1EEEEEEES4_EENS6_IS7_Lin1ELi1EEEEEEpLIdNS0_5scaleISD_Li1000ELi1EEEEERSE_RKNS1_IT_T0_EE @339
    _ZN4inet5units5valueIdNS0_7composeINS2_INS2_INS0_5units1mENS2_INS3_2kgENS0_3powINS3_1sELin2ELi1EEEEEEES4_EENS6_IS7_Lin1ELi1EEEEEEpLIdSD_EERSE_RKNS1_IT_T0_EE @340
    _ZN4inet5units5valueIdNS0_7composeINS2_INS2_INS0_5units1mENS2_INS3_2kgENS0_3powINS3_1sELin2ELi1EEEEEEES4_EES7_EEEC2ERKd @341
    _ZN4inet5units5valueIdNS0_7composeINS2_INS2_INS0_5units1sENS3_1AEEENS0_3powINS2_INS2_INS2_INS2_INS3_1mENS2_INS3_2kgENS7_IS4_Lin2ELi1EEEEEEES8_EENS7_IS4_Lin1ELi1EEEEENS7_IS5_Lin1ELi1EEEEELin1ELi1EEEEENS7_IS8_Lin1ELi1EEEEEEC2ERKd @342
    _ZN4inet5units5valueIdNS0_7composeINS2_INS2_INS2_INS0_5units1mENS2_INS3_2kgENS0_3powINS3_1sELin2ELi1EEEEEEES4_EENS6_IS7_Lin1ELi1EEEEENS2_INS6_IS4_Lin1ELi1EEENS6_INS3_1KELin4ELi1EEEEEEEEC2ERKd @343
    _ZN4inet5units5valueIdNS0_7composeINS2_INS2_INS2_INS0_5units1mENS2_INS3_2kgENS0_3powINS3_1sELin2ELi1EEEEEEES4_EENS6_IS7_Lin1ELi1EEEEENS6_ISD_Lin1ELi1EEEEEEC2ERKd @344
    _ZN4inet5units5valueIdNS0_7composeINS2_INS2_INS2_INS2_INS0_5units1mENS2_INS3_2kgENS0_3powINS3_1sELin2ELi1EEEEEEES4_EENS6_IS7_Lin1ELi1EEEEENS6_INS3_1AELin1ELi1EEEEES7_EEEC2ERKd @345
    _ZN4inet5units5valueIxNS0_5units1bEEC2ERKx @346
    _ZN4inet5units5valueIxNS0_5units1bEEC2IxNS0_8intscaleIS3_Li1ELi8EEEEERKNS1_IT_T0_EE @347
    _ZN4inet5units5valueIxNS0_5units1bEEpLIxS3_EERS4_RKNS1_IT_T0_EE @348
    _ZN4inet5units5valueIxNS0_8intscaleINS0_5units1bELi1ELi8EEEEC2ERKx @349
    _ZN4inet5units6values11unit2stringIdNS0_3powINS0_5units1sELin1ELi1EEEEENSt7__cxx1112basic_stringIcSt11char_traitsIcESaIcEEERKNS0_5valueIT_T0_EE @350
    _ZN4inet5units6values11unit2stringIdNS0_7composeINS0_5units1bENS0_3powINS4_1sELin1ELi1EEEEEEENSt7__cxx1112basic_stringIcSt11char_traitsIcESaIcEEERKNS0_5valueIT_T0_EE @351
    _ZN4inet5units6values11unit2stringIdNS0_7composeINS3_INS3_INS0_5units1mENS3_INS4_2kgENS0_3powINS4_1sELin2ELi1EEEEEEES5_EENS7_IS8_Lin1ELi1EEEEEEENSt7__cxx1112basic_stringIcSt11char_traitsIcESaIcEEERKNS0_5valueIT_T0_EE @352
    _ZN4inet5units8internal11fixed_powerILi0ELi1ELi0ELi0EE3powIdEET_RKS5_ @353
    _ZN4inet5units8internal11fixed_powerILin1ELi1ELin1ELi0EE3powIdEET_RKS5_ @354
    _ZN4inet5units8internal11fixed_powerILin2ELi1ELin2ELi0EE3powIdEET_RKS5_ @355
    _ZN4inet5units8internal14scaling_factorINS0_3powINS0_5units1mELin1ELi1EEEE2fnIdEET_v @356
    _ZN4inet5units8internal14scaling_factorINS0_3powINS0_5units1sELin1ELi1EEEE2fnIdEET_v @357
    _ZN4inet5units8internal14scaling_factorINS0_3powINS0_5units1sELin2ELi1EEEE2fnIdEET_v @358
    _ZN4inet5units8internal14scaling_factorINS0_3powINS0_7composeINS4_INS4_INS0_5units1mENS4_INS5_2kgENS3_INS5_1sELin2ELi1EEEEEEES6_EENS3_IS8_Lin1ELi1EEEEELin1ELi1EEEE2fnIdEET_v @359
    _ZN4inet5units8internal14scaling_factorINS0_3powINS1_4noneELi0ELi1EEEE2fnIdEET_v @360
    _ZN4inet5units8internal14scaling_factorINS0_5units1mEE2fnIdEET_v @361
    _ZN4inet5units8internal14scaling_factorINS0_5units1sEE2fnIdEET_v @362
    _ZN4inet5units8internal14scaling_factorINS0_5units2kgEE2fnIdEET_v @363
    _ZN4inet5units8internal14scaling_factorINS0_7composeINS0_5units1mENS0_3powIS5_Lin1ELi1EEEEEE2fnIdEET_v @364
    _ZN4inet5units8internal14scaling_factorINS0_7composeINS0_5units1mENS3_INS4_2kgENS0_3powINS4_1sELin2ELi1EEEEEEEE2fnIdEET_v @365
    _ZN4inet5units8internal14scaling_factorINS0_7composeINS0_5units1sENS3_INS3_INS3_INS4_1mENS3_INS4_2kgENS0_3powIS5_Lin2ELi1EEEEEEES6_EENS8_IS5_Lin1ELi1EEEEEEEE2fnIdEET_v @366
    _ZN4inet5units8internal14scaling_factorINS0_7composeINS0_5units2kgENS0_3powINS4_1sELin2ELi1EEEEEE2fnIdEET_v @367
    _ZN4inet5units8internal14scaling_factorINS0_7composeINS3_INS0_5units1mENS3_INS4_2kgENS0_3powINS4_1sELin2ELi1EEEEEEES5_EEE2fnIdEET_v @368
    _ZN4inet5units8internal14scaling_factorINS0_7composeINS3_INS3_INS0_5units1mENS3_INS4_2kgENS0_3powINS4_1sELin2ELi1EEEEEEES5_EENS7_IS8_Lin1ELi1EEEEEE2fnIdEET_v @369
    _ZN4inet5units8internal14scaling_factorINS0_7composeINS3_INS3_INS3_INS0_5units1mENS3_INS4_2kgENS0_3powINS4_1sELin2ELi1EEEEEEES5_EENS7_IS8_Lin1ELi1EEEEENS7_ISE_Lin1ELi1EEEEEE2fnIdEET_v @370
    _ZN4inet5units8internal14scaling_factorINS1_4noneEE2fnIdEET_v @371
    _ZN4inet5units8internal7convertINS0_3powINS0_5units1sELin1ELi1EEENS0_5scaleINS7_INS7_IS6_Li1ELi1000EEELi1ELi1000EEELi1ELi1000EEEE2fnIdEET_RKSD_ @372
    _ZN4inet5units8internal7convertINS0_3powINS0_5units1sELin1ELi1EEENS0_5scaleINS7_IS6_Li1ELi1000EEELi1ELi1000EEEE2fnIdEET_RKSC_ @373
    _ZN4inet5units8internal7convertINS0_3powINS0_5units1sELin1ELi1EEENS0_5scaleIS6_Li1ELi1000EEEE2fnIdEET_RKSB_ @374
    _ZN4inet5units8internal7convertINS0_3powINS0_5units1sELin1ELi1EEES6_E2fnIdEERKT_SB_ @375
    _ZN4inet5units8internal7convertINS0_5scaleINS0_3powINS0_5units1sELin1ELi1EEELi1ELi1000EEES7_E2fnIdEET_RKSB_ @376
    _ZN4inet5units8internal7convertINS0_5scaleINS0_7composeINS0_5units1bENS0_3powINS5_1sELin1ELi1EEEEELi1ELi1000EEESA_E2fnIdEET_RKSE_ @377
    _ZN4inet5units8internal7convertINS0_5scaleINS0_7composeINS4_INS4_INS0_5units1mENS4_INS5_2kgENS0_3powINS5_1sELin2ELi1EEEEEEES6_EENS8_IS9_Lin1ELi1EEEEELi1000ELi1EEESF_E2fnIdEET_RKSJ_ @378
    _ZN4inet5units8internal7convertINS0_5scaleINS3_INS0_3powINS0_5units1sELin1ELi1EEELi1ELi1000EEELi1ELi1000EEES7_E2fnIdEET_RKSC_ @379
    _ZN4inet5units8internal7convertINS0_5scaleINS3_INS0_7composeINS0_5units1bENS0_3powINS5_1sELin1ELi1EEEEELi1ELi1000EEELi1ELi1000EEESA_E2fnIdEET_RKSF_ @380
    _ZN4inet5units8internal7convertINS0_5scaleINS3_INS0_7composeINS4_INS4_INS0_5units1mENS4_INS5_2kgENS0_3powINS5_1sELin2ELi1EEEEEEES6_EENS8_IS9_Lin1ELi1EEEEELi1000ELi1EEELi1000ELi1EEESF_E2fnIdEET_RKSK_ @381
    _ZN4inet5units8internal7convertINS0_5scaleINS3_INS3_INS0_3powINS0_5units1sELin1ELi1EEELi1ELi1000EEELi1ELi1000EEELi1ELi1000EEES7_E2fnIdEET_RKSD_ @382
    _ZN4inet5units8internal7convertINS0_5scaleINS3_INS3_INS0_7composeINS0_5units1bENS0_3powINS5_1sELin1ELi1EEEEELi1ELi1000EEELi1ELi1000EEELi1ELi1000EEESA_E2fnIdEET_RKSG_ @383
    _ZN4inet5units8internal7convertINS0_5scaleINS3_INS3_INS0_7composeINS4_INS4_INS0_5units1mENS4_INS5_2kgENS0_3powINS5_1sELin2ELi1EEEEEEES6_EENS8_IS9_Lin1ELi1EEEEELi1000ELi1EEELi1000ELi1EEELi1000ELi1EEESF_E2fnIdEET_RKSL_ @384
    _ZN4inet5units8internal7convertINS0_5scaleINS3_INS3_INS3_INS0_7composeINS4_INS4_INS0_5units1mENS4_INS5_2kgENS0_3powINS5_1sELin2ELi1EEEEEEES6_EENS8_IS9_Lin1ELi1EEEEELi1000ELi1EEELi1000ELi1EEELi1000ELi1EEELi1000ELi1EEESF_E2fnIdEET_RKSM_ @385
    _ZN4inet5units8internal7convertINS0_5units1bES4_E2fnIxEERKT_S9_ @386
    _ZN4inet5units8internal7convertINS0_7composeINS0_5units1bENS0_3powINS4_1sELin1ELi1EEEEENS0_5scaleINSA_INSA_IS9_Li1ELi1000EEELi1ELi1000EEELi1ELi1000EEEE2fnIdEET_RKSG_ @387
    _ZN4inet5units8internal7convertINS0_7composeINS0_5units1bENS0_3powINS4_1sELin1ELi1EEEEENS0_5scaleINSA_IS9_Li1ELi1000EEELi1ELi1000EEEE2fnIdEET_RKSF_ @388
    _ZN4inet5units8internal7convertINS0_7composeINS0_5units1bENS0_3powINS4_1sELin1ELi1EEEEENS0_5scaleIS9_Li1ELi1000EEEE2fnIdEET_RKSE_ @389
    _ZN4inet5units8internal7convertINS0_7composeINS0_5units1bENS0_3powINS4_1sELin1ELi1EEEEES9_E2fnIdEERKT_SE_ @390
    _ZN4inet5units8internal7convertINS0_7composeINS0_5units1mENS0_3powIS5_Lin1ELi1EEEEENS6_INS1_4noneELi0ELi1EEEE2fnIdEET_RKSD_ @391
    _ZN4inet5units8internal7convertINS0_7composeINS0_5units1sENS3_INS3_INS3_INS4_1mENS3_INS4_2kgENS0_3powIS5_Lin2ELi1EEEEEEES6_EENS8_IS5_Lin1ELi1EEEEEEESC_E2fnIdEET_RKSI_ @392
    _ZN4inet5units8internal7convertINS0_7composeINS3_INS3_INS0_5units1mENS3_INS4_2kgENS0_3powINS4_1sELin2ELi1EEEEEEES5_EENS7_IS8_Lin1ELi1EEEEENS0_5scaleINSF_INSF_INSF_ISE_Li1000ELi1EEELi1000ELi1EEELi1000ELi1EEELi1000ELi1EEEE2fnIdEET_RKSM_ @393
    _ZN4inet5units8internal7convertINS0_7composeINS3_INS3_INS0_5units1mENS3_INS4_2kgENS0_3powINS4_1sELin2ELi1EEEEEEES5_EENS7_IS8_Lin1ELi1EEEEENS0_5scaleINSF_INSF_ISE_Li1000ELi1EEELi1000ELi1EEELi1000ELi1EEEE2fnIdEET_RKSL_ @394
    _ZN4inet5units8internal7convertINS0_7composeINS3_INS3_INS0_5units1mENS3_INS4_2kgENS0_3powINS4_1sELin2ELi1EEEEEEES5_EENS7_IS8_Lin1ELi1EEEEENS0_5scaleINSF_ISE_Li1000ELi1EEELi1000ELi1EEEE2fnIdEET_RKSK_ @395
    _ZN4inet5units8internal7convertINS0_7composeINS3_INS3_INS0_5units1mENS3_INS4_2kgENS0_3powINS4_1sELin2ELi1EEEEEEES5_EENS7_IS8_Lin1ELi1EEEEENS0_5scaleISE_Li1000ELi1EEEE2fnIdEET_RKSJ_ @396
    _ZN4inet5units8internal7convertINS0_7composeINS3_INS3_INS0_5units1mENS3_INS4_2kgENS0_3powINS4_1sELin2ELi1EEEEEEES5_EENS7_IS8_Lin1ELi1EEEEESE_E2fnIdEERKT_SJ_ @397
    _ZN4inet5units8internal7convertINS0_7composeINS3_INS3_INS3_INS0_5units1mENS3_INS4_2kgENS0_3powINS4_1sELin2ELi1EEEEEEES5_EENS7_IS8_Lin1ELi1EEEEENS7_ISE_Lin1ELi1EEEEENS7_INS1_4noneELi0ELi1EEEE2fnIdEET_RKSL_ @398
    _ZN4inet5units8internal7convertINS0_8intscaleINS0_5units1bELi1ELi8EEES5_E2fnIxEET_RKS9_ @399
    _ZN4inet5units8internal8convert2INS0_3powINS0_5units1sELin1ELi1EEENS0_5scaleINS7_INS7_IS6_Li1ELi1000EEELi1ELi1000EEELi1ELi1000EEEE2fnIdEET_RKSD_ @400
    _ZN4inet5units8internal8convert2INS0_3powINS0_5units1sELin1ELi1EEENS0_5scaleINS7_IS6_Li1ELi1000EEELi1ELi1000EEEE2fnIdEET_RKSC_ @401
    _ZN4inet5units8internal8convert2INS0_3powINS0_5units1sELin1ELi1EEENS0_5scaleIS6_Li1ELi1000EEEE2fnIdEET_RKSB_ @402
    _ZN4inet5units8internal8convert2INS0_5scaleINS0_3powINS0_5units1sELin1ELi1EEELi1ELi1000EEES7_E2fnIdEET_RKSB_ @403
    _ZN4inet5units8internal8convert2INS0_5scaleINS0_7composeINS0_5units1bENS0_3powINS5_1sELin1ELi1EEEEELi1ELi1000EEESA_E2fnIdEET_RKSE_ @404
    _ZN4inet5units8internal8convert2INS0_5scaleINS0_7composeINS4_INS4_INS0_5units1mENS4_INS5_2kgENS0_3powINS5_1sELin2ELi1EEEEEEES6_EENS8_IS9_Lin1ELi1EEEEELi1000ELi1EEESF_E2fnIdEET_RKSJ_ @405
    _ZN4inet5units8internal8convert2INS0_5scaleINS3_INS0_3powINS0_5units1sELin1ELi1EEELi1ELi1000EEELi1ELi1000EEES7_E2fnIdEET_RKSC_ @406
    _ZN4inet5units8internal8convert2INS0_5scaleINS3_INS0_7composeINS0_5units1bENS0_3powINS5_1sELin1ELi1EEEEELi1ELi1000EEELi1ELi1000EEESA_E2fnIdEET_RKSF_ @407
    _ZN4inet5units8internal8convert2INS0_5scaleINS3_INS0_7composeINS4_INS4_INS0_5units1mENS4_INS5_2kgENS0_3powINS5_1sELin2ELi1EEEEEEES6_EENS8_IS9_Lin1ELi1EEEEELi1000ELi1EEELi1000ELi1EEESF_E2fnIdEET_RKSK_ @408
    _ZN4inet5units8internal8convert2INS0_5scaleINS3_INS3_INS0_3powINS0_5units1sELin1ELi1EEELi1ELi1000EEELi1ELi1000EEELi1ELi1000EEES7_E2fnIdEET_RKSD_ @409
    _ZN4inet5units8internal8convert2INS0_5scaleINS3_INS3_INS0_7composeINS0_5units1bENS0_3powINS5_1sELin1ELi1EEEEELi1ELi1000EEELi1ELi1000EEELi1ELi1000EEESA_E2fnIdEET_RKSG_ @410
    _ZN4inet5units8internal8convert2INS0_5scaleINS3_INS3_INS0_7composeINS4_INS4_INS0_5units1mENS4_INS5_2kgENS0_3powINS5_1sELin2ELi1EEEEEEES6_EENS8_IS9_Lin1ELi1EEEEELi1000ELi1EEELi1000ELi1EEELi1000ELi1EEESF_E2fnIdEET_RKSL_ @411
    _ZN4inet5units8internal8convert2INS0_5scaleINS3_INS3_INS3_INS0_7composeINS4_INS4_INS0_5units1mENS4_INS5_2kgENS0_3powINS5_1sELin2ELi1EEEEEEES6_EENS8_IS9_Lin1ELi1EEEEELi1000ELi1EEELi1000ELi1EEELi1000ELi1EEELi1000ELi1EEESF_E2fnIdEET_RKSM_ @412
    _ZN4inet5units8internal8convert2INS0_7composeINS0_5units1bENS0_3powINS4_1sELin1ELi1EEEEENS0_5scaleINSA_INSA_IS9_Li1ELi1000EEELi1ELi1000EEELi1ELi1000EEEE2fnIdEET_RKSG_ @413
    _ZN4inet5units8internal8convert2INS0_7composeINS0_5units1bENS0_3powINS4_1sELin1ELi1EEEEENS0_5scaleINSA_IS9_Li1ELi1000EEELi1ELi1000EEEE2fnIdEET_RKSF_ @414
    _ZN4inet5units8internal8convert2INS0_7composeINS0_5units1bENS0_3powINS4_1sELin1ELi1EEEEENS0_5scaleIS9_Li1ELi1000EEEE2fnIdEET_RKSE_ @415
    _ZN4inet5units8internal8convert2INS0_7composeINS0_5units1mENS0_3powIS5_Lin1ELi1EEEEENS6_INS1_4noneELi0ELi1EEEE2fnIdEET_RKSD_ @416
    _ZN4inet5units8internal8convert2INS0_7composeINS0_5units1sENS3_INS3_INS3_INS4_1mENS3_INS4_2kgENS0_3powIS5_Lin2ELi1EEEEEEES6_EENS8_IS5_Lin1ELi1EEEEEEESC_E2fnIdEET_RKSI_ @417
    _ZN4inet5units8internal8convert2INS0_7composeINS3_INS3_INS0_5units1mENS3_INS4_2kgENS0_3powINS4_1sELin2ELi1EEEEEEES5_EENS7_IS8_Lin1ELi1EEEEENS0_5scaleINSF_INSF_INSF_ISE_Li1000ELi1EEELi1000ELi1EEELi1000ELi1EEELi1000ELi1EEEE2fnIdEET_RKSM_ @418
    _ZN4inet5units8internal8convert2INS0_7composeINS3_INS3_INS0_5units1mENS3_INS4_2kgENS0_3powINS4_1sELin2ELi1EEEEEEES5_EENS7_IS8_Lin1ELi1EEEEENS0_5scaleINSF_INSF_ISE_Li1000ELi1EEELi1000ELi1EEELi1000ELi1EEEE2fnIdEET_RKSL_ @419
    _ZN4inet5units8internal8convert2INS0_7composeINS3_INS3_INS0_5units1mENS3_INS4_2kgENS0_3powINS4_1sELin2ELi1EEEEEEES5_EENS7_IS8_Lin1ELi1EEEEENS0_5scaleINSF_ISE_Li1000ELi1EEELi1000ELi1EEEE2fnIdEET_RKSK_ @420
    _ZN4inet5units8internal8convert2INS0_7composeINS3_INS3_INS0_5units1mENS3_INS4_2kgENS0_3powINS4_1sELin2ELi1EEEEEEES5_EENS7_IS8_Lin1ELi1EEEEENS0_5scaleISE_Li1000ELi1EEEE2fnIdEET_RKSJ_ @421
    _ZN4inet5units8internal8convert2INS0_7composeINS3_INS3_INS3_INS0_5units1mENS3_INS4_2kgENS0_3powINS4_1sELin2ELi1EEEEEEES5_EENS7_IS8_Lin1ELi1EEEEENS7_ISE_Lin1ELi1EEEEENS7_INS1_4noneELi0ELi1EEEE2fnIdEET_RKSL_ @422
    _ZN4inet5units8internal8convert2INS0_8intscaleINS0_5units1bELi1ELi8EEES5_E2fnIxEET_RKS9_ @423
    _ZN4inet5units8internal8convert3INS0_3powINS0_5units1sELin1ELi1EEENS0_5scaleINS7_INS7_IS6_Li1ELi1000EEELi1ELi1000EEELi1ELi1000EEEE2fnIdEET_RKSD_ @424
    _ZN4inet5units8internal8convert3INS0_3powINS0_5units1sELin1ELi1EEENS0_5scaleINS7_IS6_Li1ELi1000EEELi1ELi1000EEEE2fnIdEET_RKSC_ @425
    _ZN4inet5units8internal8convert3INS0_3powINS0_5units1sELin1ELi1EEENS0_5scaleIS6_Li1ELi1000EEEE2fnIdEET_RKSB_ @426
    _ZN4inet5units8internal8convert3INS0_7composeINS0_5units1bENS0_3powINS4_1sELin1ELi1EEEEENS0_5scaleINSA_INSA_IS9_Li1ELi1000EEELi1ELi1000EEELi1ELi1000EEEE2fnIdEET_RKSG_ @427
    _ZN4inet5units8internal8convert3INS0_7composeINS0_5units1bENS0_3powINS4_1sELin1ELi1EEEEENS0_5scaleINSA_IS9_Li1ELi1000EEELi1ELi1000EEEE2fnIdEET_RKSF_ @428
    _ZN4inet5units8internal8convert3INS0_7composeINS0_5units1bENS0_3powINS4_1sELin1ELi1EEEEENS0_5scaleIS9_Li1ELi1000EEEE2fnIdEET_RKSE_ @429
    _ZN4inet5units8internal8convert3INS0_7composeINS0_5units1mENS0_3powIS5_Lin1ELi1EEEEENS6_INS1_4noneELi0ELi1EEEE2fnIdEET_RKSD_ @430
    _ZN4inet5units8internal8convert3INS0_7composeINS0_5units1sENS3_INS3_INS3_INS4_1mENS3_INS4_2kgENS0_3powIS5_Lin2ELi1EEEEEEES6_EENS8_IS5_Lin1ELi1EEEEEEESC_E2fnIdEET_RKSI_ @431
    _ZN4inet5units8internal8convert3INS0_7composeINS3_INS3_INS0_5units1mENS3_INS4_2kgENS0_3powINS4_1sELin2ELi1EEEEEEES5_EENS7_IS8_Lin1ELi1EEEEENS0_5scaleINSF_INSF_INSF_ISE_Li1000ELi1EEELi1000ELi1EEELi1000ELi1EEELi1000ELi1EEEE2fnIdEET_RKSM_ @432
    _ZN4inet5units8internal8convert3INS0_7composeINS3_INS3_INS0_5units1mENS3_INS4_2kgENS0_3powINS4_1sELin2ELi1EEEEEEES5_EENS7_IS8_Lin1ELi1EEEEENS0_5scaleINSF_INSF_ISE_Li1000ELi1EEELi1000ELi1EEELi1000ELi1EEEE2fnIdEET_RKSL_ @433
    _ZN4inet5units8internal8convert3INS0_7composeINS3_INS3_INS0_5units1mENS3_INS4_2kgENS0_3powINS4_1sELin2ELi1EEEEEEES5_EENS7_IS8_Lin1ELi1EEEEENS0_5scaleINSF_ISE_Li1000ELi1EEELi1000ELi1EEEE2fnIdEET_RKSK_ @434
    _ZN4inet5units8internal8convert3INS0_7composeINS3_INS3_INS0_5units1mENS3_INS4_2kgENS0_3powINS4_1sELin2ELi1EEEEEEES5_EENS7_IS8_Lin1ELi1EEEEENS0_5scaleISE_Li1000ELi1EEEE2fnIdEET_RKSJ_ @435
    _ZN4inet5units8internal8convert3INS0_7composeINS3_INS3_INS3_INS0_5units1mENS3_INS4_2kgENS0_3powINS4_1sELin2ELi1EEEEEEES5_EENS7_IS8_Lin1ELi1EEEEENS7_ISE_Lin1ELi1EEEEENS7_INS1_4noneELi0ELi1EEEE2fnIdEET_RKSL_ @436
    _ZN4inet5unitslsIdEERSoS2_RKNS0_5valueIT_NS0_3powINS0_5units1sELin1ELi1EEEEE @437
    _ZN4inet5unitslsIdEERSoS2_RKNS0_5valueIT_NS0_7composeINS0_5units1bENS0_3powINS6_1sELin1ELi1EEEEEEE @438
    _ZN4inet5unitslsIdEERSoS2_RKNS0_5valueIT_NS0_7composeINS5_INS5_INS0_5units1mENS5_INS6_2kgENS0_3powINS6_1sELin2ELi1EEEEEEES7_EENS9_ISA_Lin1ELi1EEEEEEE @439
    _ZN4inet5unitslsIdNS0_5scaleINS0_3powINS0_5units1sELin1ELi1EEELi1ELi1000EEEEERSoS8_RKNS0_5valueIT_T0_EE @440
    _ZN4inet5unitslsIdNS0_5scaleINS0_7composeINS0_5units1bENS0_3powINS4_1sELin1ELi1EEEEELi1ELi1000EEEEERSoSB_RKNS0_5valueIT_T0_EE @441
    _ZN4inet5unitslsIdNS0_5scaleINS0_7composeINS3_INS3_INS0_5units1mENS3_INS4_2kgENS0_3powINS4_1sELin2ELi1EEEEEEES5_EENS7_IS8_Lin1ELi1EEEEELi1000ELi1EEEEERSoSG_RKNS0_5valueIT_T0_EE @442
    _ZN4inet5unitslsIdNS0_5scaleINS2_INS0_3powINS0_5units1sELin1ELi1EEELi1ELi1000EEELi1ELi1000EEEEERSoS9_RKNS0_5valueIT_T0_EE @443
    _ZN4inet5unitslsIdNS0_5scaleINS2_INS0_7composeINS0_5units1bENS0_3powINS4_1sELin1ELi1EEEEELi1ELi1000EEELi1ELi1000EEEEERSoSC_RKNS0_5valueIT_T0_EE @444
    _ZN4inet5unitslsIdNS0_5scaleINS2_INS0_7composeINS3_INS3_INS0_5units1mENS3_INS4_2kgENS0_3powINS4_1sELin2ELi1EEEEEEES5_EENS7_IS8_Lin1ELi1EEEEELi1000ELi1EEELi1000ELi1EEEEERSoSH_RKNS0_5valueIT_T0_EE @445
    _ZN4inet5unitslsIdNS0_5scaleINS2_INS2_INS0_3powINS0_5units1sELin1ELi1EEELi1ELi1000EEELi1ELi1000EEELi1ELi1000EEEEERSoSA_RKNS0_5valueIT_T0_EE @446
    _ZN4inet5unitslsIdNS0_5scaleINS2_INS2_INS0_7composeINS0_5units1bENS0_3powINS4_1sELin1ELi1EEEEELi1ELi1000EEELi1ELi1000EEELi1ELi1000EEEEERSoSD_RKNS0_5valueIT_T0_EE @447
    _ZN4inet5unitslsIdNS0_5scaleINS2_INS2_INS0_7composeINS3_INS3_INS0_5units1mENS3_INS4_2kgENS0_3powINS4_1sELin2ELi1EEEEEEES5_EENS7_IS8_Lin1ELi1EEEEELi1000ELi1EEELi1000ELi1EEELi1000ELi1EEEEERSoSI_RKNS0_5valueIT_T0_EE @448
    _ZN4inet5unitslsIdNS0_5scaleINS2_INS2_INS2_INS0_7composeINS3_INS3_INS0_5units1mENS3_INS4_2kgENS0_3powINS4_1sELin2ELi1EEEEEEES5_EENS7_IS8_Lin1ELi1EEEEELi1000ELi1EEELi1000ELi1EEELi1000ELi1EEELi1000ELi1EEEEERSoSJ_RKNS0_5valueIT_T0_EE @449
    _ZN4inet5unitslsIdNS0_5units1mEEERSoS4_RKNS0_5valueIT_T0_EE @450
    _ZN4inet5unitslsIdNS0_7composeINS0_5units1mENS0_3powINS3_1sELin1ELi1EEEEEEERSoS9_RKNS0_5valueIT_T0_EE @451
    _ZN4inet6Packet10popAtFrontIN5flora12LoRaMacFrameEEEKNS_12IntrusivePtrIKT_EENS_5units5valueIxNS9_5units1bEEEi @452
    _ZN4inet6Packet10popAtFrontIN5flora15LoRaPhyPreambleEEEKNS_12IntrusivePtrIKT_EENS_5units5valueIxNS9_5units1bEEEi @453
    _ZN4inet6Packet12eraseAtFrontENS_5units5valueIxNS1_5units1bEEE @454
    _ZN4inet6Packet12insertAtBackERKNS_12IntrusivePtrIKNS_5ChunkEEE @455
    _ZN4inet6Packet13insertAtFrontERKNS_12IntrusivePtrIKNS_5ChunkEEE @456
    _ZN4inet6Packet13removeAtFrontIN5flora12LoRaMacFrameEEEKNS_12IntrusivePtrIT_EENS_5units5valueIxNS8_5units1bEEEi @457
    _ZN4inet6Packet14addTagIfAbsentIN5flora7LoRaTagEEEKNS_12IntrusivePtrIT_EEv @458
    _ZN4inet6Packet14addTagIfAbsentINS_12ErrorRateIndEEEKNS_12IntrusivePtrIT_EEv @459
    _ZN4inet6Packet14addTagIfAbsentINS_12InterfaceIndEEEKNS_12IntrusivePtrIT_EEv @460
    _ZN4inet6Packet14addTagIfAbsentINS_13MacAddressIndEEEKNS_12IntrusivePtrIT_EEv @461
    _ZN4inet6Packet14addTagIfAbsentINS_13MacAddressReqEEEKNS_12IntrusivePtrIT_EEv @462
    _ZN4inet6Packet14addTagIfAbsentINS_13SignalTimeIndEEEKNS_12IntrusivePtrIT_EEv @463
    _ZN4inet6Packet14addTagIfAbsentINS_14SignalPowerIndEEEKNS_12IntrusivePtrIT_EEv @464
    _ZN4inet6Packet14addTagIfAbsentINS_14SignalPowerReqEEEKNS_12IntrusivePtrIT_EEv @465
    _ZN4inet6Packet14addTagIfAbsentINS_17PacketProtocolTagEEEKNS_12IntrusivePtrIT_EEv @466
    _ZN4inet6Packet14addTagIfAbsentINS_7SnirIndEEEKNS_12IntrusivePtrIT_EEv @467
    _ZN4inet6Packet6addTagIN5flora7LoRaTagEEEKNS_12IntrusivePtrIT_EEv @468
    _ZN4inet6Packet9clearTagsEv @469
    _ZN4inet6Packet9removeTagIN5flora7LoRaTagEEEKNS_12IntrusivePtrIT_EEv @470
    _ZN4inet7ISocketD2Ev @471
    _ZN4inet7TagBase12parsimUnpackEPN7omnetpp11cCommBufferE @472
    _ZN4inet7TagBaseC2ERKS0_ @473
    _ZN4inet7TagBaseC2Ev @474
    _ZN4inet7TagBaseD2Ev @475
    _ZN4inet7TagBaseaSERKS0_ @476
    _ZN4inet8queueing17IActivePacketSinkC2Ev @477
    _ZN4inet8queueing17IActivePacketSinkD0Ev @478
    _ZN4inet8queueing17IActivePacketSinkD2Ev @479
    _ZN4inet9L3AddressC2ERKS0_ @480
    _ZN4inet9L3AddressC2Ev @481
    _ZN4inet9L3AddressaSERKS0_ @482
    _ZN4inet9UdpSocket13setOutputGateEPN7omnetpp5cGateE @483
    _ZN4inet9UdpSocketD2Ev @484
    _ZN4inetlsERSoPKNS_16IPrintableObjectE @485
    _ZN4inetlsERSoRKNS_10MacAddressE @486
    _ZN4inetlsERSoRKNS_5CoordE @487
    _ZN4inetlsERSoRKNS_9L3AddressE @488
    _ZN4inetmiERKNS_5CoordES2_ @489
    _ZN5flora10LoRaMedium15addTransmissionEPKN4inet13physicallayer6IRadioEPKNS2_13ITransmissionE @490
    _ZN5flora10LoRaMediumC1Ev @491
    _ZN5flora10LoRaMediumC2Ev @492
    _ZN5flora10LoRaMediumD0Ev @493
    _ZN5flora10LoRaMediumD1Ev @494
    _ZN5flora10LoRaMediumD2Ev @495
    _ZN5flora11LoRaGWRadio10initializeEi @496
    _ZN5flora11LoRaGWRadio12endReceptionEPN7omnetpp8cMessageE @497
    _ZN5flora11LoRaGWRadio12handleSignalEPN4inet13physicallayer14WirelessSignalE @498
    _ZN5flora11LoRaGWRadio14abortReceptionEPN7omnetpp8cMessageE @499
    _ZN5flora11LoRaGWRadio14startReceptionEPN7omnetpp8cMessageEN4inet13physicallayer12IRadioSignal10SignalPartE @500
    _ZN5flora11LoRaGWRadio15endTransmissionEPN7omnetpp8cMessageE @501
    _ZN5flora11LoRaGWRadio17continueReceptionEPN7omnetpp8cMessageE @502
    _ZN5flora11LoRaGWRadio17handleSelfMessageEPN7omnetpp8cMessageE @503
    _ZN5flora11LoRaGWRadio17handleUpperPacketEPN4inet6PacketE @504
    _ZN5flora11LoRaGWRadio17startTransmissionEPN4inet6PacketENS1_13physicallayer12IRadioSignal10SignalPartE @505
    _ZN5flora11LoRaGWRadio20continueTransmissionEPN7omnetpp8cMessageE @506
    _ZN5flora11LoRaGWRadio23handleTransmissionTimerEPN7omnetpp8cMessageE @507
    _ZN5flora11LoRaGWRadio6finishEv @508
    _ZN5flora11LoRaGWRadioC1Ev @509
    _ZN5flora11LoRaGWRadioD0Ev @510
    _ZN5flora11LoRaGWRadioD1Ev @511
    _ZN5flora11LoRaGWRadioD2Ev @512
    _ZN5flora11LoRaOptions12parsimUnpackEPN7omnetpp11cCommBufferE @513
    _ZN5flora11LoRaOptions12setADRACKReqEb @514
    _ZN5flora11LoRaOptions12setUseHeaderEb @515
    _ZN5flora11LoRaOptions4copyERKS0_ @516
    _ZN5flora11LoRaOptions9setLoRaBWEd @517
    _ZN5flora11LoRaOptions9setLoRaCFEd @518
    _ZN5flora11LoRaOptions9setLoRaCREi @519
    _ZN5flora11LoRaOptions9setLoRaSFEi @520
    _ZN5flora11LoRaOptions9setLoRaTPEd @521
    _ZN5flora11LoRaOptionsC1ERKS0_ @522
    _ZN5flora11LoRaOptionsC1Ev @523
    _ZN5flora11LoRaOptionsC2ERKS0_ @524
    _ZN5flora11LoRaOptionsC2Ev @525
    _ZN5flora11LoRaOptionsD0Ev @526
    _ZN5flora11LoRaOptionsD1Ev @527
    _ZN5flora11LoRaOptionsD2Ev @528
    _ZN5flora11LoRaOptionsaSERKS0_ @529
    _ZN5flora12LoRaMacFrame12parsimUnpackEPN7omnetpp11cCommBufferE @530
    _ZN5flora12LoRaMacFrame16setLoRaUseHeaderEb @531
    _ZN5flora12LoRaMacFrame17setSequenceNumberEi @532
    _ZN5flora12LoRaMacFrame18setReceiverAddressERKN4inet10MacAddressE @533
    _ZN5flora12LoRaMacFrame21setTransmitterAddressERKN4inet10MacAddressE @534
    _ZN5flora12LoRaMacFrame27getReceiverAddressForUpdateEv @535
    _ZN5flora12LoRaMacFrame30getTransmitterAddressForUpdateEv @536
    _ZN5flora12LoRaMacFrame4copyERKS0_ @537
    _ZN5flora12LoRaMacFrame7setRSSIEd @538
    _ZN5flora12LoRaMacFrame7setSNIREd @539
    _ZN5flora12LoRaMacFrame9setLoRaBWEN4inet5units5valueIdNS2_3powINS2_5units1sELin1ELi1EEEEE @540
    _ZN5flora12LoRaMacFrame9setLoRaCFEN4inet5units5valueIdNS2_3powINS2_5units1sELin1ELi1EEEEE @541
    _ZN5flora12LoRaMacFrame9setLoRaCREi @542
    _ZN5flora12LoRaMacFrame9setLoRaSFEi @543
    _ZN5flora12LoRaMacFrame9setLoRaTPEd @544
    _ZN5flora12LoRaMacFrameC1ERKS0_ @545
    _ZN5flora12LoRaMacFrameC1Ev @546
    _ZN5flora12LoRaMacFrameC2ERKS0_ @547
    _ZN5flora12LoRaMacFrameC2Ev @548
    _ZN5flora12LoRaMacFrameD0Ev @549
    _ZN5flora12LoRaMacFrameD1Ev @550
    _ZN5flora12LoRaMacFrameD2Ev @551
    _ZN5flora12LoRaMacFrameaSERKS0_ @552
    _ZN5flora12LoRaReceiver10initializeEi @553
    _ZN5flora12LoRaReceiver6finishEv @554
    _ZN5flora12LoRaReceiver9setLoRaBWEN4inet5units5valueIdNS2_3powINS2_5units1sELin1ELi1EEEEE @555
    _ZN5flora12LoRaReceiver9setLoRaCFEN4inet5units5valueIdNS2_3powINS2_5units1sELin1ELi1EEEEE @556
    _ZN5flora12LoRaReceiver9setLoRaCREd @557
    _ZN5flora12LoRaReceiver9setLoRaSFEi @558
    _ZN5flora12LoRaReceiver9setLoRaTPEN4inet5units5valueIdNS2_7composeINS4_INS4_INS2_5units1mENS4_INS5_2kgENS2_3powINS5_1sELin2ELi1EEEEEEES6_EENS8_IS9_Lin1ELi1EEEEEEE @559
    _ZN5flora12LoRaReceiverC1Ev @560
    _ZN5flora12LoRaReceiverC2Ev @561
    _ZN5flora12LoRaReceiverD0Ev @562
    _ZN5flora12LoRaReceiverD1Ev @563
    _ZN5flora12LoRaReceiverD2Ev @564
    _ZN5flora12maxIgnoreNaNEdd @565
    _ZN5flora12maxIgnoreNaNIN4inet5units5valueIdNS2_5units1mEEEEET_S7_S7_ @566
    _ZN5flora12maxIgnoreNaNIN4inet5units5valueIdNS2_7composeINS2_5units1mENS2_3powINS5_1sELin1ELi1EEEEEEEEET_SC_SC_ @567
    _ZN5flora12maxIgnoreNaNIN4inet5units5valueIdNS2_7composeINS4_INS4_INS2_5units1mENS4_INS5_2kgENS2_3powINS5_1sELin2ELi1EEEEEEES6_EENS8_IS9_Lin1ELi1EEEEEEEEET_SH_SH_ @568
    _ZN5flora12minIgnoreNaNIN4inet5units5valueIdNS2_7composeINS4_INS4_INS2_5units1mENS4_INS5_2kgENS2_3powINS5_1sELin2ELi1EEEEEEES6_EENS8_IS9_Lin1ELi1EEEEEEEEET_SH_SH_ @569
    _ZN5flora13LoRaAppPacket10setMsgTypeEi @570
    _ZN5flora13LoRaAppPacket10setOptionsERKNS_11LoRaOptionsE @571
    _ZN5flora13LoRaAppPacket12parsimUnpackEPN7omnetpp11cCommBufferE @572
    _ZN5flora13LoRaAppPacket19getOptionsForUpdateEv @573
    _ZN5flora13LoRaAppPacket20setSampleMeasurementEi @574
    _ZN5flora13LoRaAppPacket4copyERKS0_ @575
    _ZN5flora13LoRaAppPacketC1ERKS0_ @576
    _ZN5flora13LoRaAppPacketC1Ev @577
    _ZN5flora13LoRaAppPacketC2ERKS0_ @578
    _ZN5flora13LoRaAppPacketC2Ev @579
    _ZN5flora13LoRaAppPacketD0Ev @580
    _ZN5flora13LoRaAppPacketD1Ev @581
    _ZN5flora13LoRaAppPacketD2Ev @582
    _ZN5flora13LoRaAppPacketaSERKS0_ @583
    _ZN5flora13LoRaReceptionC1EPKN4inet13physicallayer6IRadioEPKNS2_13ITransmissionEN7omnetpp7SimTimeESA_NS1_5CoordESB_NS1_10QuaternionESC_NS1_5units5valueIdNSD_3powINSD_5units1sELin1ELi1EEEEESJ_NSE_IdNSD_7composeINSK_INSK_INSG_1mENSK_INSG_2kgENSF_ISH_Lin2ELi1EEEEEEESL_EESI_EEEEii @584
    _ZN5flora13LoRaReceptionC2EPKN4inet13physicallayer6IRadioEPKNS2_13ITransmissionEN7omnetpp7SimTimeESA_NS1_5CoordESB_NS1_10QuaternionESC_NS1_5units5valueIdNSD_3powINSD_5units1sELin1ELi1EEEEESJ_NSE_IdNSD_7composeINSK_INSK_INSG_1mENSK_INSG_2kgENSF_ISH_Lin2ELi1EEEEEEESL_EESI_EEEEii @585
    _ZN5flora13LoRaReceptionD0Ev @586
    _ZN5flora13LoRaReceptionD1Ev @587
    _ZN5flora13LoRaReceptionD2Ev @588
    _ZN5flora13SimpleLoRaApp10initializeEi @589
    _ZN5flora13SimpleLoRaApp13handleMessageEPN7omnetpp8cMessageE @590
    _ZN5flora13SimpleLoRaApp15sendJoinRequestEv @591
    _ZN5flora13SimpleLoRaApp20handleOperationStageEPN4inet18LifecycleOperationEPNS1_13IDoneCallbackE @592
    _ZN5flora13SimpleLoRaApp20increaseSFIfPossibleEv @593
    _ZN5flora13SimpleLoRaApp27handleMessageFromLowerLayerEPN7omnetpp8cMessageE @594
    _ZN5flora13SimpleLoRaApp32generateUniformCircleCoordinatesEddd @595
    _ZN5flora13SimpleLoRaApp5getBWEv @596
    _ZN5flora13SimpleLoRaApp5getCFEv @597
    _ZN5flora13SimpleLoRaApp5getCREv @598
    _ZN5flora13SimpleLoRaApp5getSFEv @599
    _ZN5flora13SimpleLoRaApp5getTPEv @600
    _ZN5flora13SimpleLoRaApp5setBWEN4inet5units5valueIdNS2_3powINS2_5units1sELin1ELi1EEEEE @601
    _ZN5flora13SimpleLoRaApp5setCFEN4inet5units5valueIdNS2_3powINS2_5units1sELin1ELi1EEEEE @602
    _ZN5flora13SimpleLoRaApp5setCREi @603
    _ZN5flora13SimpleLoRaApp5setSFEi @604
    _ZN5flora13SimpleLoRaApp5setTPEi @605
    _ZN5flora13SimpleLoRaApp6finishEv @606
    _ZN5flora13SimpleLoRaAppC2Ev @607
    _ZN5flora13SimpleLoRaAppD0Ev @608
    _ZN5flora13SimpleLoRaAppD2Ev @609
    _ZN5flora14LoRaModulation13constellationE @610 DATA
    _ZN5flora14LoRaModulation15getHeaderEnableEv @611
    _ZN5flora14LoRaModulation15setHeaderEnableERKb @612
    _ZN5flora14LoRaModulationC1EiN4inet5units5valueIdNS2_3powINS2_5units1sELin1ELi1EEEEENS3_IdNS2_7composeINS5_1bES7_EEEEid @613
    _ZN5flora14LoRaModulationC2EiN4inet5units5valueIdNS2_3powINS2_5units1sELin1ELi1EEEEENS3_IdNS2_7composeINS5_1bES7_EEEEid @614
    _ZN5flora14LoRaModulationD0Ev @615
    _ZN5flora14LoRaModulationD2Ev @616
    _ZN5flora14receivedPacketC2EOS0_ @617
    _ZN5flora14receivedPacketC2ERKS0_ @618
    _ZN5flora14receivedPacketC2Ev @619
    _ZN5flora14receivedPacketD2Ev @620
    _ZN5flora14receivedPacketaSEOS0_ @621
    _ZN5flora15LoRaAnalogModelC1Ev @622
    _ZN5flora15LoRaAnalogModelD0Ev @623
    _ZN5flora15LoRaAnalogModelD1Ev @624
    _ZN5flora15LoRaAnalogModelD2Ev @625
    _ZN5flora15LoRaHataOkumura10initializeEi @626
    _ZN5flora15LoRaHataOkumuraC1Ev @627
    _ZN5flora15LoRaHataOkumuraC2Ev @628
    _ZN5flora15LoRaHataOkumuraD0Ev @629
    _ZN5flora15LoRaHataOkumuraD2Ev @630
    _ZN5flora15LoRaMediumCache10initializeEi @631
    _ZN5flora15LoRaMediumCache11removeRadioEPKN4inet13physicallayer6IRadioE @632
    _ZN5flora15LoRaMediumCache12updateLimitsEv @633
    _ZN5flora15LoRaMediumCache8addRadioEPKN4inet13physicallayer6IRadioE @634
    _ZN5flora15LoRaMediumCacheC1Ev @635
    _ZN5flora15LoRaMediumCacheC2Ev @636
    _ZN5flora15LoRaMediumCacheD0Ev @637
    _ZN5flora15LoRaMediumCacheD2Ev @638
    _ZN5flora15LoRaPhyPreamble12parsimUnpackEPN7omnetpp11cCommBufferE @639
    _ZN5flora15LoRaPhyPreamble12setBandwidthEN4inet5units5valueIdNS2_3powINS2_5units1sELin1ELi1EEEEE @640
    _ZN5flora15LoRaPhyPreamble12setUseHeaderEb @641
    _ZN5flora15LoRaPhyPreamble15setSpreadFactorEi @642
    _ZN5flora15LoRaPhyPreamble18setCenterFrequencyEN4inet5units5valueIdNS2_3powINS2_5units1sELin1ELi1EEEEE @643
    _ZN5flora15LoRaPhyPreamble18setCodeRendundanceEi @644
    _ZN5flora15LoRaPhyPreamble18setReceiverAddressERKN4inet10MacAddressE @645
    _ZN5flora15LoRaPhyPreamble27getReceiverAddressForUpdateEv @646
    _ZN5flora15LoRaPhyPreamble4copyERKS0_ @647
    _ZN5flora15LoRaPhyPreamble8setPowerEN4inet5units5valueIdNS2_7composeINS4_INS4_INS2_5units1mENS4_INS5_2kgENS2_3powINS5_1sELin2ELi1EEEEEEES6_EENS8_IS9_Lin1ELi1EEEEEEE @648
    _ZN5flora15LoRaPhyPreambleC1ERKS0_ @649
    _ZN5flora15LoRaPhyPreambleC1Ev @650
    _ZN5flora15LoRaPhyPreambleC2ERKS0_ @651
    _ZN5flora15LoRaPhyPreambleC2Ev @652
    _ZN5flora15LoRaPhyPreambleD0Ev @653
    _ZN5flora15LoRaPhyPreambleD1Ev @654
    _ZN5flora15LoRaPhyPreambleD2Ev @655
    _ZN5flora15LoRaPhyPreambleaSERKS0_ @656
    _ZN5flora15LoRaTransmitter10initializeEi @657
    _ZN5flora15LoRaTransmitterC1Ev @658
    _ZN5flora15LoRaTransmitterC2Ev @659
    _ZN5flora15LoRaTransmitterD0Ev @660
    _ZN5flora15LoRaTransmitterD1Ev @661
    _ZN5flora15LoRaTransmitterD2Ev @662
    _ZN5flora15PacketForwarder10initializeEi @663
    _ZN5flora15PacketForwarder10sendPacketEv @664
    _ZN5flora15PacketForwarder13handleMessageEPN7omnetpp8cMessageE @665
    _ZN5flora15PacketForwarder13receiveSignalEPN7omnetpp10cComponentEixPNS1_7cObjectE @666
    _ZN5flora15PacketForwarder20processLoraMACPacketEPN4inet6PacketE @667
    _ZN5flora15PacketForwarder6finishEv @668
    _ZN5flora15PacketForwarder8startUDPEv @669
    _ZN5flora15PacketForwarderC2Ev @670
    _ZN5flora15PacketForwarderD0Ev @671
    _ZN5flora15PacketForwarderD2Ev @672
    _ZN5flora16LoRaPathLossOulu10initializeEi @673
    _ZN5flora16LoRaPathLossOuluC1Ev @674
    _ZN5flora16LoRaPathLossOuluC2Ev @675
    _ZN5flora16LoRaPathLossOuluD0Ev @676
    _ZN5flora16LoRaPathLossOuluD2Ev @677
    _ZN5flora16LoRaTransmissionC1EPKN4inet13physicallayer6IRadioEPKNS1_6PacketEN7omnetpp7SimTimeESA_SA_SA_SA_NS1_5CoordESB_NS1_10QuaternionESC_NS1_5units5valueIdNSD_7composeINSF_INSF_INSD_5units1mENSF_INSG_2kgENSD_3powINSG_1sELin2ELi1EEEEEEESH_EENSJ_ISK_Lin1ELi1EEEEEEENSE_IdSP_EEiSS_i @678
    _ZN5flora16LoRaTransmissionC2EPKN4inet13physicallayer6IRadioEPKNS1_6PacketEN7omnetpp7SimTimeESA_SA_SA_SA_NS1_5CoordESB_NS1_10QuaternionESC_NS1_5units5valueIdNSD_7composeINSF_INSF_INSD_5units1mENSF_INSG_2kgENSD_3powINSG_1sELin2ELi1EEEEEEESH_EENSJ_ISK_Lin1ELi1EEEEEEENSE_IdSP_EEiSS_i @679
    _ZN5flora16LoRaTransmissionD0Ev @680
    _ZN5flora16LoRaTransmissionD1Ev @681
    _ZN5flora16LoRaTransmissionD2Ev @682
    _ZN5flora16NetworkServerApp10initializeEi @683
    _ZN5flora16NetworkServerApp11evaluateADREPN4inet6PacketENS1_9L3AddressEdd @684
    _ZN5flora16NetworkServerApp13handleMessageEPN7omnetpp8cMessageE @685
    _ZN5flora16NetworkServerApp13receiveSignalEPN7omnetpp10cComponentEixPNS1_7cObjectE @686
    _ZN5flora16NetworkServerApp16updateKnownNodesEPN4inet6PacketE @687
    _ZN5flora16NetworkServerApp17isPacketProcessedERKN4inet12IntrusivePtrIKNS_12LoRaMacFrameEEE @688
    _ZN5flora16NetworkServerApp20processLoraMACPacketEPN4inet6PacketE @689
    _ZN5flora16NetworkServerApp22processScheduledPacketEPN7omnetpp8cMessageE @690
    _ZN5flora16NetworkServerApp23addPktToProcessingTableEPN4inet6PacketE @691
    _ZN5flora16NetworkServerApp6finishEv @692
    _ZN5flora16NetworkServerApp8startUDPEv @693
    _ZN5flora16NetworkServerAppC2Ev @694
    _ZN5flora16NetworkServerAppD0Ev @695
    _ZN5flora16NetworkServerAppD2Ev @696
    _ZN5flora17LoRaBandListeningC1EPKN4inet13physicallayer6IRadioEN7omnetpp7SimTimeES7_NS1_5CoordES8_NS1_5units5valueIdNS9_3powINS9_5units1sELin1ELi1EEEEESF_i @697
    _ZN5flora17LoRaBandListeningC2EPKN4inet13physicallayer6IRadioEN7omnetpp7SimTimeES7_NS1_5CoordES8_NS1_5units5valueIdNS9_3powINS9_5units1sELin1ELi1EEEEESF_i @698
    _ZN5flora17LoRaBandListeningD0Ev @699
    _ZN5flora17LoRaBandListeningD2Ev @700
    _ZN5flora17LoRaNeighborCache10RadioEntryC2EPKN4inet13physicallayer6IRadioE @701
    _ZN5flora17LoRaNeighborCache10RadioEntryD2Ev @702
    _ZN5flora17LoRaNeighborCache10initializeEi @703
    _ZN5flora17LoRaNeighborCache11removeRadioEPKN4inet13physicallayer6IRadioE @704
    _ZN5flora17LoRaNeighborCache13handleMessageEPN7omnetpp8cMessageE @705
    _ZN5flora17LoRaNeighborCache18updateNeighborListEPNS0_10RadioEntryE @706
    _ZN5flora17LoRaNeighborCache19updateNeighborListsEv @707
    _ZN5flora17LoRaNeighborCache28removeRadioFromNeighborListsEPKN4inet13physicallayer6IRadioE @708
    _ZN5flora17LoRaNeighborCache8addRadioEPKN4inet13physicallayer6IRadioE @709
    _ZN5flora17LoRaNeighborCacheC1Ev @710
    _ZN5flora17LoRaNeighborCacheC2Ev @711
    _ZN5flora17LoRaNeighborCacheD0Ev @712
    _ZN5flora17LoRaNeighborCacheD1Ev @713
    _ZN5flora17LoRaNeighborCacheD2Ev @714
    _ZN5flora17LoRaTagDescriptorC1Ev @715
    _ZN5flora17LoRaTagDescriptorC2Ev @716
    _ZN5flora17LoRaTagDescriptorD0Ev @717
    _ZN5flora17LoRaTagDescriptorD1Ev @718
    _ZN5flora17LoRaTagDescriptorD2Ev @719
    _ZN5flora18LoRaEnergyConsumer10initializeEi @720
    _ZN5flora18LoRaEnergyConsumer13receiveSignalEPN7omnetpp10cComponentEixPNS1_7cObjectE @721
    _ZN5flora18LoRaEnergyConsumer21readConfigurationFileEv @722
    _ZN5flora18LoRaEnergyConsumer6finishEv @723
    _ZN5flora18LoRaEnergyConsumerC1Ev @724
    _ZN5flora18LoRaEnergyConsumerD0Ev @725
    _ZN5flora18LoRaEnergyConsumerD1Ev @726
    _ZN5flora18LoRaEnergyConsumerD2Ev @727
    _ZN5flora18LoRaMacControlInfo12parsimUnpackEPN7omnetpp11cCommBufferE @728
    _ZN5flora18LoRaMacControlInfo15getSrcForUpdateEv @729
    _ZN5flora18LoRaMacControlInfo16getDestForUpdateEv @730
    _ZN5flora18LoRaMacControlInfo16setLoRaUseHeaderEb @731
    _ZN5flora18LoRaMacControlInfo4copyERKS0_ @732
    _ZN5flora18LoRaMacControlInfo6setSrcERKN4inet10MacAddressE @733
    _ZN5flora18LoRaMacControlInfo7setDestERKN4inet10MacAddressE @734
    _ZN5flora18LoRaMacControlInfo9setLoRaBWEN4inet5units5valueIdNS2_3powINS2_5units1sELin1ELi1EEEEE @735
    _ZN5flora18LoRaMacControlInfo9setLoRaCFEN4inet5units5valueIdNS2_3powINS2_5units1sELin1ELi1EEEEE @736
    _ZN5flora18LoRaMacControlInfo9setLoRaCREi @737
    _ZN5flora18LoRaMacControlInfo9setLoRaSFEi @738
    _ZN5flora18LoRaMacControlInfo9setLoRaTPEd @739
    _ZN5flora18LoRaMacControlInfoC1ERKS0_ @740
    _ZN5flora18LoRaMacControlInfoC1Ev @741
    _ZN5flora18LoRaMacControlInfoC2ERKS0_ @742
    _ZN5flora18LoRaMacControlInfoC2Ev @743
    _ZN5flora18LoRaMacControlInfoD0Ev @744
    _ZN5flora18LoRaMacControlInfoD1Ev @745
    _ZN5flora18LoRaMacControlInfoD2Ev @746
    _ZN5flora18LoRaMacControlInfoaSERKS0_ @747
    _ZN5flora21LoRaOptionsDescriptorC1Ev @748
    _ZN5flora21LoRaOptionsDescriptorC2Ev @749
    _ZN5flora21LoRaOptionsDescriptorD0Ev @750
    _ZN5flora21LoRaOptionsDescriptorD1Ev @751
    _ZN5flora21LoRaOptionsDescriptorD2Ev @752
    _ZN5flora22LoRaLogNormalShadowing10initializeEi @753
    _ZN5flora22LoRaLogNormalShadowingC1Ev @754
    _ZN5flora22LoRaLogNormalShadowingC2Ev @755
    _ZN5flora22LoRaLogNormalShadowingD0Ev @756
    _ZN5flora22LoRaLogNormalShadowingD2Ev @757
    _ZN5flora22LoRaMacFrameDescriptorC1Ev @758
    _ZN5flora22LoRaMacFrameDescriptorC2Ev @759
    _ZN5flora22LoRaMacFrameDescriptorD0Ev @760
    _ZN5flora22LoRaMacFrameDescriptorD1Ev @761
    _ZN5flora22LoRaMacFrameDescriptorD2Ev @762
    _ZN5flora23LoRaAppPacketDescriptorC1Ev @763
    _ZN5flora23LoRaAppPacketDescriptorC2Ev @764
    _ZN5flora23LoRaAppPacketDescriptorD0Ev @765
    _ZN5flora23LoRaAppPacketDescriptorD1Ev @766
    _ZN5flora23LoRaAppPacketDescriptorD2Ev @767
    _ZN5flora23LoRaReceptionIndication10setMinRSSIEN4inet5units5valueIdNS2_7composeINS4_INS4_INS2_5units1mENS4_INS5_2kgENS2_3powINS5_1sELin2ELi1EEEEEEES6_EENS8_IS9_Lin1ELi1EEEEEEE @768
    _ZN5flora23LoRaReceptionIndication10setMinSNIREd @769
    _ZN5flora23LoRaReceptionIndication12parsimUnpackEPN7omnetpp11cCommBufferE @770
    _ZN5flora23LoRaReceptionIndication4copyERKS0_ @771
    _ZN5flora23LoRaReceptionIndication9setLoRaBWEN4inet5units5valueIdNS2_3powINS2_5units1sELin1ELi1EEEEE @772
    _ZN5flora23LoRaReceptionIndication9setLoRaCFEN4inet5units5valueIdNS2_3powINS2_5units1sELin1ELi1EEEEE @773
    _ZN5flora23LoRaReceptionIndication9setLoRaCREi @774
    _ZN5flora23LoRaReceptionIndication9setLoRaSFEi @775
    _ZN5flora23LoRaReceptionIndication9setLoRaTPEN4inet5units5valueIdNS2_7composeINS4_INS4_INS2_5units1mENS4_INS5_2kgENS2_3powINS5_1sELin2ELi1EEEEEEES6_EENS8_IS9_Lin1ELi1EEEEEEE @776
    _ZN5flora23LoRaReceptionIndicationC1ERKS0_ @777
    _ZN5flora23LoRaReceptionIndicationC1Ev @778
    _ZN5flora23LoRaReceptionIndicationC2ERKS0_ @779
    _ZN5flora23LoRaReceptionIndicationC2Ev @780
    _ZN5flora23LoRaReceptionIndicationD0Ev @781
    _ZN5flora23LoRaReceptionIndicationD1Ev @782
    _ZN5flora23LoRaReceptionIndicationD2Ev @783
    _ZN5flora23LoRaReceptionIndicationaSERKS0_ @784
    _ZN5flora23LoRaTransmissionRequest10setBitrateEN4inet5units5valueIdNS2_7composeINS2_5units1bENS2_3powINS5_1sELin1ELi1EEEEEEE @785
    _ZN5flora23LoRaTransmissionRequest12parsimUnpackEPN7omnetpp11cCommBufferE @786
    _ZN5flora23LoRaTransmissionRequest12setBandwidthEN4inet5units5valueIdNS2_3powINS2_5units1sELin1ELi1EEEEE @787
    _ZN5flora23LoRaTransmissionRequest19setCarrierFrequencyEN4inet5units5valueIdNS2_3powINS2_5units1sELin1ELi1EEEEE @788
    _ZN5flora23LoRaTransmissionRequest4copyERKS0_ @789
    _ZN5flora23LoRaTransmissionRequest8setPowerEN4inet5units5valueIdNS2_7composeINS4_INS4_INS2_5units1mENS4_INS5_2kgENS2_3powINS5_1sELin2ELi1EEEEEEES6_EENS8_IS9_Lin1ELi1EEEEEEE @790
    _ZN5flora23LoRaTransmissionRequestC1ERKS0_ @791
    _ZN5flora23LoRaTransmissionRequestC1Ev @792
    _ZN5flora23LoRaTransmissionRequestC2ERKS0_ @793
    _ZN5flora23LoRaTransmissionRequestC2Ev @794
    _ZN5flora23LoRaTransmissionRequestD0Ev @795
    _ZN5flora23LoRaTransmissionRequestD1Ev @796
    _ZN5flora23LoRaTransmissionRequestD2Ev @797
    _ZN5flora23LoRaTransmissionRequestaSERKS0_ @798
    _ZN5flora25LoRaConfigureRadioCommand10setBitrateEN4inet5units5valueIdNS2_7composeINS2_5units1bENS2_3powINS5_1sELin1ELi1EEEEEEE @799
    _ZN5flora25LoRaConfigureRadioCommand12parsimUnpackEPN7omnetpp11cCommBufferE @800
    _ZN5flora25LoRaConfigureRadioCommand12setBandwidthEN4inet5units5valueIdNS2_3powINS2_5units1sELin1ELi1EEEEE @801
    _ZN5flora25LoRaConfigureRadioCommand12setRadioModeEi @802
    _ZN5flora25LoRaConfigureRadioCommand19setCarrierFrequencyEN4inet5units5valueIdNS2_3powINS2_5units1sELin1ELi1EEEEE @803
    _ZN5flora25LoRaConfigureRadioCommand4copyERKS0_ @804
    _ZN5flora25LoRaConfigureRadioCommand8setPowerEN4inet5units5valueIdNS2_7composeINS4_INS4_INS2_5units1mENS4_INS5_2kgENS2_3powINS5_1sELin2ELi1EEEEEEES6_EENS8_IS9_Lin1ELi1EEEEEEE @805
    _ZN5flora25LoRaConfigureRadioCommandC1ERKS0_ @806
    _ZN5flora25LoRaConfigureRadioCommandC1Ev @807
    _ZN5flora25LoRaConfigureRadioCommandC2ERKS0_ @808
    _ZN5flora25LoRaConfigureRadioCommandC2Ev @809
    _ZN5flora25LoRaConfigureRadioCommandD0Ev @810
    _ZN5flora25LoRaConfigureRadioCommandD1Ev @811
    _ZN5flora25LoRaConfigureRadioCommandD2Ev @812
    _ZN5flora25LoRaConfigureRadioCommandaSERKS0_ @813
    _ZN5flora25LoRaPhyPreambleDescriptorC1Ev @814
    _ZN5flora25LoRaPhyPreambleDescriptorC2Ev @815
    _ZN5flora25LoRaPhyPreambleDescriptorD0Ev @816
    _ZN5flora25LoRaPhyPreambleDescriptorD1Ev @817
    _ZN5flora25LoRaPhyPreambleDescriptorD2Ev @818
    _ZN5flora28LoRaMacControlInfoDescriptorC1Ev @819
    _ZN5flora28LoRaMacControlInfoDescriptorC2Ev @820
    _ZN5flora28LoRaMacControlInfoDescriptorD0Ev @821
    _ZN5flora28LoRaMacControlInfoDescriptorD1Ev @822
    _ZN5flora28LoRaMacControlInfoDescriptorD2Ev @823
    _ZN5flora33LoRaReceptionIndicationDescriptorC1Ev @824
    _ZN5flora33LoRaReceptionIndicationDescriptorC2Ev @825
    _ZN5flora33LoRaReceptionIndicationDescriptorD0Ev @826
    _ZN5flora33LoRaReceptionIndicationDescriptorD1Ev @827
    _ZN5flora33LoRaReceptionIndicationDescriptorD2Ev @828
    _ZN5flora33LoRaTransmissionRequestDescriptorC1Ev @829
    _ZN5flora33LoRaTransmissionRequestDescriptorC2Ev @830
    _ZN5flora33LoRaTransmissionRequestDescriptorD0Ev @831
    _ZN5flora33LoRaTransmissionRequestDescriptorD1Ev @832
    _ZN5flora33LoRaTransmissionRequestDescriptorD2Ev @833
    _ZN5flora35LoRaConfigureRadioCommandDescriptorC1Ev @834
    _ZN5flora35LoRaConfigureRadioCommandDescriptorC2Ev @835
    _ZN5flora35LoRaConfigureRadioCommandDescriptorD0Ev @836
    _ZN5flora35LoRaConfigureRadioCommandDescriptorD1Ev @837
    _ZN5flora35LoRaConfigureRadioCommandDescriptorD2Ev @838
    _ZN5flora7LoRaMac10getAddressEv @839
    _ZN5flora7LoRaMac10initializeEi @840
    _ZN5flora7LoRaMac11decapsulateEPN4inet6PacketE @841
    _ZN5flora7LoRaMac11encapsulateEPN4inet6PacketE @842
    _ZN5flora7LoRaMac11getProviderEPN7omnetpp5cGateE @843
    _ZN5flora7LoRaMac11isBroadcastERKN4inet12IntrusivePtrIKNS_12LoRaMacFrameEEE @844
    _ZN5flora7LoRaMac11isReceivingEv @845
    _ZN5flora7LoRaMac12sendAckFrameEv @846
    _ZN5flora7LoRaMac13handleWithFsmEPN7omnetpp8cMessageE @847
    _ZN5flora7LoRaMac13receiveSignalEPN7omnetpp10cComponentEixPNS1_7cObjectE @848
    _ZN5flora7LoRaMac13sendDataFrameEPN4inet6PacketE @849
    _ZN5flora7LoRaMac14turnOnReceiverEv @850
    _ZN5flora7LoRaMac15turnOffReceiverEv @851
    _ZN5flora7LoRaMac17handleLowerPacketEPN4inet6PacketE @852
    _ZN5flora7LoRaMac17handleSelfMessageEPN7omnetpp8cMessageE @853
    _ZN5flora7LoRaMac17handleUpperPacketEPN4inet6PacketE @854
    _ZN5flora7LoRaMac18processUpperPacketEv @855
    _ZN5flora7LoRaMac19handleStopOperationEPN4inet18LifecycleOperationE @856
    _ZN5flora7LoRaMac20handleCrashOperationEPN4inet18LifecycleOperationE @857
    _ZN5flora7LoRaMac20handleStartOperationEPN4inet18LifecycleOperationE @858
    _ZN5flora7LoRaMac22getCurrentTransmissionEv @859
    _ZN5flora7LoRaMac25configureNetworkInterfaceEv @860
    _ZN5flora7LoRaMac25finishCurrentTransmissionEv @861
    _ZN5flora7LoRaMac25handlePullPacketProcessedEPN4inet6PacketEPN7omnetpp5cGateEb @862
    _ZN5flora7LoRaMac26handleCanPullPacketChangedEPN7omnetpp5cGateE @863
    _ZN5flora7LoRaMac5isAckERKN4inet12IntrusivePtrIKNS_12LoRaMacFrameEEE @864
    _ZN5flora7LoRaMac6finishEv @865
    _ZN5flora7LoRaMac7isForUsERKN4inet12IntrusivePtrIKNS_12LoRaMacFrameEEE @866
    _ZN5flora7LoRaMacC2Ev @867
    _ZN5flora7LoRaMacD0Ev @868
    _ZN5flora7LoRaMacD1Ev @869
    _ZN5flora7LoRaMacD2Ev @870
    _ZN5flora7LoRaTag12parsimUnpackEPN7omnetpp11cCommBufferE @871
    _ZN5flora7LoRaTag12setBandwidthEN4inet5units5valueIdNS2_3powINS2_5units1sELin1ELi1EEEEE @872
    _ZN5flora7LoRaTag12setUseHeaderEb @873
    _ZN5flora7LoRaTag15setSpreadFactorEi @874
    _ZN5flora7LoRaTag18setCenterFrequencyEN4inet5units5valueIdNS2_3powINS2_5units1sELin1ELi1EEEEE @875
    _ZN5flora7LoRaTag18setCodeRendundanceEi @876
    _ZN5flora7LoRaTag4copyERKS0_ @877
    _ZN5flora7LoRaTag8setPowerEN4inet5units5valueIdNS2_7composeINS4_INS4_INS2_5units1mENS4_INS5_2kgENS2_3powINS5_1sELin2ELi1EEEEEEES6_EENS8_IS9_Lin1ELi1EEEEEEE @878
    _ZN5flora7LoRaTagC1ERKS0_ @879
    _ZN5flora7LoRaTagC1Ev @880
    _ZN5flora7LoRaTagC2ERKS0_ @881
    _ZN5flora7LoRaTagC2Ev @882
    _ZN5flora7LoRaTagD0Ev @883
    _ZN5flora7LoRaTagD1Ev @884
    _ZN5flora7LoRaTagD2Ev @885
    _ZN5flora7LoRaTagaSERKS0_ @886
    _ZN5flora9LoRaGWMac10getAddressEv @887
    _ZN5flora9LoRaGWMac10initializeEi @888
    _ZN5flora9LoRaGWMac13receiveSignalEPN7omnetpp10cComponentEixPNS1_7cObjectE @889
    _ZN5flora9LoRaGWMac14sendPacketBackEPN4inet6PacketE @890
    _ZN5flora9LoRaGWMac17handleSelfMessageEPN7omnetpp8cMessageE @891
    _ZN5flora9LoRaGWMac18handleLowerMessageEPN7omnetpp8cMessageE @892
    _ZN5flora9LoRaGWMac18handleUpperMessageEPN7omnetpp8cMessageE @893
    _ZN5flora9LoRaGWMac22createFakeLoRaMacFrameEv @894
    _ZN5flora9LoRaGWMac25configureNetworkInterfaceEv @895
    _ZN5flora9LoRaGWMac6finishEv @896
    _ZN5flora9LoRaGWMacC2Ev @897
    _ZN5flora9LoRaGWMacD0Ev @898
    _ZN5flora9LoRaGWMacD2Ev @899
    _ZN5flora9LoRaRadio10initializeEi @900
    _ZN5flora9LoRaRadio12endReceptionEPN7omnetpp8cMessageE @901
    _ZN5flora9LoRaRadio12handleSignalEPN4inet13physicallayer14WirelessSignalE @902
    _ZN5flora9LoRaRadio13droppedPacketE @903 DATA
    _ZN5flora9LoRaRadio13minSNIRSignalE @904 DATA
    _ZN5flora9LoRaRadio14abortReceptionEPN7omnetpp8cMessageE @905
    _ZN5flora9LoRaRadio14startReceptionEPN7omnetpp8cMessageEN4inet13physicallayer12IRadioSignal10SignalPartE @906
    _ZN5flora9LoRaRadio15endTransmissionEv @907
    _ZN5flora9LoRaRadio16captureReceptionEPN7omnetpp8cMessageE @908
    _ZN5flora9LoRaRadio17abortTransmissionEv @909
    _ZN5flora9LoRaRadio17continueReceptionEPN7omnetpp8cMessageE @910
    _ZN5flora9LoRaRadio17handleSelfMessageEPN7omnetpp8cMessageE @911
    _ZN5flora9LoRaRadio17handleUpperPacketEPN4inet6PacketE @912
    _ZN5flora9LoRaRadio17startTransmissionEPN4inet6PacketENS1_13physicallayer12IRadioSignal10SignalPartE @913
    _ZN5flora9LoRaRadio18bitErrorRateSignalE @914 DATA
    _ZN5flora9LoRaRadio18handleLowerCommandEPN7omnetpp8cMessageE @915
    _ZN5flora9LoRaRadio18handleUpperCommandEPN7omnetpp8cMessageE @916
    _ZN5flora9LoRaRadio19handleMessageWhenUpEPN7omnetpp8cMessageE @917
    _ZN5flora9LoRaRadio20continueTransmissionEv @918
    _ZN5flora9LoRaRadio20handleReceptionTimerEPN7omnetpp8cMessageE @919
    _ZN5flora9LoRaRadio21handleMessageWhenDownEPN7omnetpp8cMessageE @920
    _ZN5flora9LoRaRadio21packetErrorRateSignalE @921 DATA
    _ZN5flora9LoRaRadio21symbolErrorRateSignalE @922 DATA
    _ZN5flora9LoRaRadio23handleTransmissionTimerEPN7omnetpp8cMessageE @923
    _ZN5flora9LoRaRadio6sendUpEPN4inet6PacketE @924
    _ZN5flora9LoRaRadioC1Ev @925
    _ZN5flora9LoRaRadioD0Ev @926
    _ZN5flora9LoRaRadioD1Ev @927
    _ZN5flora9LoRaRadioD2Ev @928
    _ZN5flora9knownNodeC2ERKS0_ @929
    _ZN5flora9knownNodeC2Ev @930
    _ZN5flora9knownNodeD2Ev @931
    _ZN7omnetpp10as_cObjectIN4inet10MacAddressEEENSt9enable_ifIXntsr3std14is_polymorphicIT_EE5valueEPKNS_7cObjectEE4typeEPKS4_ @932
    _ZN7omnetpp10as_cObjectIN5flora11LoRaOptionsEEENSt9enable_ifIXsr3std14is_polymorphicIT_EE5valueEPKNS_7cObjectEE4typeEPKS4_ @933
    _ZN7omnetpp10cComponent10initializeEi @934
    _ZN7omnetpp10cComponent12recordScalarEPKcNS_7SimTimeES2_ @935
    _ZN7omnetpp10cComponent19registerSelfPointerIN4inet13physicallayer6IRadioEEEvRPT_ @936
    _ZN7omnetpp10cComponent19registerSelfPointerIN4inet5power15IEpEnergySourceEEEvRPT_ @937
    _ZN7omnetpp10cComponent19registerSelfPointerIN4inet8queueing12IPacketQueueEEEvRPT_ @938
    _ZN7omnetpp10cComponent21deregisterSelfPointerIN4inet13physicallayer6IRadioEEEvRPT_ @939
    _ZN7omnetpp10cComponent21deregisterSelfPointerIN4inet5power15IEpEnergySourceEEEvRPT_ @940
    _ZN7omnetpp10cComponent21deregisterSelfPointerIN4inet8queueing12IPacketQueueEEEvRPT_ @941
    _ZN7omnetpp10cComponent4emitEiPKNS_7cObjectEPS1_ @942
    _ZN7omnetpp10cComponent4emitEicPNS_7cObjectE @943
    _ZN7omnetpp10cComponent4emitEiePNS_7cObjectE @944
    _ZN7omnetpp10cComponent4emitEifPNS_7cObjectE @945
    _ZN7omnetpp10cComponent4emitEihPNS_7cObjectE @946
    _ZN7omnetpp10cComponent4emitEiiPNS_7cObjectE @947
    _ZN7omnetpp10cComponent4emitEijPNS_7cObjectE @948
    _ZN7omnetpp10cComponent4emitEilPNS_7cObjectE @949
    _ZN7omnetpp10cComponent4emitEimPNS_7cObjectE @950
    _ZN7omnetpp10cComponent4emitEisPNS_7cObjectE @951
    _ZN7omnetpp10cComponent4emitEitPNS_7cObjectE @952
    _ZN7omnetpp10cComponent4emitEixPNS_7cObjectE @953
    _ZN7omnetpp10cComponent4emitEiyPNS_7cObjectE @954
    _ZN7omnetpp10cComponent9setRNGMapEsPi @955
    _ZN7omnetpp10cExceptionD2Ev @956
    _ZN7omnetpp10cIListener12subscribedToEPNS_10cComponentEi @957
    _ZN7omnetpp10cIListener16unsubscribedFromEPNS_10cComponentEi @958
    _ZN7omnetpp10cIListener6finishEPNS_10cComponentEi @959
    _ZN7omnetpp10cIListenerC2Ev @960
    _ZN7omnetpp10cWatchBase6assignEPKc @961
    _ZN7omnetpp10cWatchBaseC2EPKc @962
    _ZN7omnetpp10cWatchBaseD0Ev @963
    _ZN7omnetpp10cWatchBaseD2Ev @964
    _ZN7omnetpp10fromAnyPtrIN5flora11LoRaOptionsEEEPT_NS_7any_ptrE @965
    _ZN7omnetpp10fromAnyPtrIN5flora12LoRaMacFrameEEEPT_NS_7any_ptrE @966
    _ZN7omnetpp10fromAnyPtrIN5flora13LoRaAppPacketEEEPT_NS_7any_ptrE @967
    _ZN7omnetpp10fromAnyPtrIN5flora15LoRaPhyPreambleEEEPT_NS_7any_ptrE @968
    _ZN7omnetpp10fromAnyPtrIN5flora18LoRaMacControlInfoEEEPT_NS_7any_ptrE @969
    _ZN7omnetpp10fromAnyPtrIN5flora23LoRaReceptionIndicationEEEPT_NS_7any_ptrE @970
    _ZN7omnetpp10fromAnyPtrIN5flora23LoRaTransmissionRequestEEEPT_NS_7any_ptrE @971
    _ZN7omnetpp10fromAnyPtrIN5flora25LoRaConfigureRadioCommandEEEPT_NS_7any_ptrE @972
    _ZN7omnetpp10fromAnyPtrIN5flora7LoRaTagEEEPT_NS_7any_ptrE @973
    _ZN7omnetpp11SendOptions5afterENS_7SimTimeE @974
    _ZN7omnetpp11SendOptionsC2Ev @975
    _ZN7omnetpp11cSimulation19getActiveSimulationEv @976
    _ZN7omnetpp11createWatchEPKcRd @977
    _ZN7omnetpp11createWatchEPKcRi @978
    _ZN7omnetpp11createWatchEPKcRl @979
    _ZN7omnetpp11createWatchIN4inet5CoordEEEPNS_10cWatchBaseEPKcRT_ @980
    _ZN7omnetpp11createWatchIN4inet5units5valueIdNS2_5units1mEEEEEPNS_10cWatchBaseEPKcRT_ @981
    _ZN7omnetpp11createWatchIN4inet5units5valueIdNS2_7composeINS2_5units1mENS2_3powINS5_1sELin1ELi1EEEEEEEEEPNS_10cWatchBaseEPKcRT_ @982
    _ZN7omnetpp11createWatchIN4inet5units5valueIdNS2_7composeINS4_INS4_INS2_5units1mENS4_INS5_2kgENS2_3powINS5_1sELin2ELi1EEEEEEES6_EENS8_IS9_Lin1ELi1EEEEEEEEEPNS_10cWatchBaseEPKcRT_ @983
    _ZN7omnetpp11createWatchINS_4cFSMEEEPNS_10cWatchBaseEPKcRT_ @984
    _ZN7omnetpp11createWatchINS_7SimTimeEEEPNS_10cWatchBaseEPKcRT_ @985
    _ZN7omnetpp11noncopyableC2Ev @986
    _ZN7omnetpp11noncopyableD2Ev @987
    _ZN7omnetpp12cNamedObject14getNamePoolingEv @988
    _ZN7omnetpp12cNamedObject7setFlagEib @989
    _ZN7omnetpp12cPacketQueueC2EPKcPNS_6cQueue10ComparatorE @990
    _ZN7omnetpp12cPacketQueueD2Ev @991
    _ZN7omnetpp13CodeFragmentsD2Ev @992
    _ZN7omnetpp13cRuntimeErrorD2Ev @993
    _ZN7omnetpp13cSimpleModule10sendDirectEPNS_8cMessageENS_7SimTimeES3_PNS_5cGateE @994
    _ZN7omnetpp13cSimpleModule10sendDirectEPNS_8cMessageENS_7SimTimeES3_PNS_7cModuleEPKci @995
    _ZN7omnetpp13cSimpleModule10sendDirectEPNS_8cMessageENS_7SimTimeES3_PNS_7cModuleEi @996
    _ZN7omnetpp13cSimpleModule10sendDirectEPNS_8cMessageEPNS_5cGateE @997
    _ZN7omnetpp13cSimpleModule10sendDirectEPNS_8cMessageEPNS_7cModuleEPKci @998
    _ZN7omnetpp13cSimpleModule10sendDirectEPNS_8cMessageEPNS_7cModuleEi @999
    _ZN7omnetpp13cSimpleModule10sendDirectEPNS_8cMessageERKNS_11SendOptionsEPNS_7cModuleEPKci @1000
    _ZN7omnetpp13cSimpleModule10sendDirectEPNS_8cMessageERKNS_11SendOptionsEPNS_7cModuleEi @1001
    _ZN7omnetpp13cSimpleModule11sendDelayedEPNS_8cMessageENS_7SimTimeEPKci @1002
    _ZN7omnetpp13cSimpleModule11sendDelayedEPNS_8cMessageENS_7SimTimeEPNS_5cGateE @1003
    _ZN7omnetpp13cSimpleModule11sendDelayedEPNS_8cMessageENS_7SimTimeEi @1004
    _ZN7omnetpp13cSimpleModule4sendEPNS_8cMessageEPKci @1005
    _ZN7omnetpp13cSimpleModule4sendEPNS_8cMessageEPNS_5cGateE @1006
    _ZN7omnetpp13cSimpleModule4sendEPNS_8cMessageERKNS_11SendOptionsEPKci @1007
    _ZN7omnetpp13cSimpleModule4sendEPNS_8cMessageERKNS_11SendOptionsEi @1008
    _ZN7omnetpp13cSimpleModule4sendEPNS_8cMessageEi @1009
    _ZN7omnetpp14check_and_castIPKN4inet13physicallayer11ScalarNoiseEKNS2_6INoiseEEET_PT0_ @1010
    _ZN7omnetpp14check_and_castIPKN4inet13physicallayer13IScalarSignalEKNS2_18ISignalAnalogModelEEET_PT0_ @1011
    _ZN7omnetpp14check_and_castIPKN4inet13physicallayer13IScalarSignalEKNS2_24ITransmissionAnalogModelEEET_PT0_ @1012
    _ZN7omnetpp14check_and_castIPKN4inet13physicallayer17INarrowbandSignalEKNS2_18ISignalAnalogModelEEET_PT0_ @1013
    _ZN7omnetpp14check_and_castIPKN4inet13physicallayer17INarrowbandSignalEKNS2_24ITransmissionAnalogModelEEET_PT0_ @1014
    _ZN7omnetpp14check_and_castIPKN4inet13physicallayer21IReceptionAnalogModelEKNS2_13ReceptionBaseEEET_PT0_ @1015
    _ZN7omnetpp14check_and_castIPKN4inet13physicallayer24ITransmissionAnalogModelEKNS2_16TransmissionBaseEEET_PT0_ @1016
    _ZN7omnetpp14check_and_castIPKN5flora13LoRaReceptionEKN4inet13physicallayer10IReceptionEEET_PT0_ @1017
    _ZN7omnetpp14check_and_castIPKN5flora13LoRaReceptionEKN4inet13physicallayer18ISignalAnalogModelEEET_PT0_ @1018
    _ZN7omnetpp14check_and_castIPKN5flora16LoRaTransmissionEKN4inet13physicallayer13ITransmissionEEET_PT0_ @1019
    _ZN7omnetpp14check_and_castIPKN5flora17LoRaBandListeningEKN4inet13physicallayer10IListeningEEET_PT0_ @1020
    _ZN7omnetpp14check_and_castIPKNS_7cModuleEKN4inet13physicallayer6IRadioEEET_PT0_ @1021
    _ZN7omnetpp14check_and_castIPKNS_7cObjectEKN4inet13physicallayer10IReceptionEEET_PT0_ @1022
    _ZN7omnetpp14check_and_castIPKNS_7cObjectEKN4inet13physicallayer13ITransmissionEEET_PT0_ @1023
    _ZN7omnetpp14check_and_castIPN4inet13physicallayer11RadioMediumENS2_12IRadioMediumEEET_PT0_ @1024
    _ZN7omnetpp14check_and_castIPN4inet13physicallayer14WirelessSignalENS_8cMessageEEET_PT0_ @1025
    _ZN7omnetpp14check_and_castIPN4inet13physicallayer21ConfigureRadioCommandENS_7cObjectEEET_PT0_ @1026
    _ZN7omnetpp14check_and_castIPN4inet13physicallayer6IRadioENS_7cModuleEEET_PT0_ @1027
    _ZN7omnetpp14check_and_castIPN4inet15IInterfaceTableENS_7cModuleEEET_PT0_ @1028
    _ZN7omnetpp14check_and_castIPN4inet18StationaryMobilityENS_7cModuleEEET_PT0_ @1029
    _ZN7omnetpp14check_and_castIPN4inet6PacketENS_7cObjectEEET_PT0_ @1030
    _ZN7omnetpp14check_and_castIPN4inet6PacketENS_8cMessageEEET_PT0_ @1031
    _ZN7omnetpp14check_and_castIPN5flora10LoRaMediumEN4inet13physicallayer12IRadioMediumEEET_PT0_ @1032
    _ZN7omnetpp14check_and_castIPN5flora10LoRaMediumENS_7cModuleEEET_PT0_ @1033
    _ZN7omnetpp14check_and_castIPN5flora12LoRaMacFrameENS_7cObjectEEET_PT0_ @1034
    _ZN7omnetpp14check_and_castIPN5flora13LoRaAppPacketENS_7cObjectEEET_PT0_ @1035
    _ZN7omnetpp14check_and_castIPN5flora15LoRaPhyPreambleENS_7cObjectEEET_PT0_ @1036
    _ZN7omnetpp14check_and_castIPN5flora22LoRaLogNormalShadowingENS_7cModuleEEET_PT0_ @1037
    _ZN7omnetpp14check_and_castIPN5flora7LoRaMacENS_7cModuleEEET_PT0_ @1038
    _ZN7omnetpp14check_and_castIPN5flora7LoRaTagENS_7cObjectEEET_PT0_ @1039
    _ZN7omnetpp14check_and_castIPN5flora9LoRaGWMacENS_7cModuleEEET_PT0_ @1040
    _ZN7omnetpp14check_and_castIPN5flora9LoRaRadioEN4inet13physicallayer6IRadioEEET_PT0_ @1041
    _ZN7omnetpp14check_and_castIPN5flora9LoRaRadioENS_7cModuleEEET_PT0_ @1042
    _ZN7omnetpp15doParsimPackingEPNS_11cCommBufferEb @1043
    _ZN7omnetpp15doParsimPackingEPNS_11cCommBufferEd @1044
    _ZN7omnetpp15doParsimPackingEPNS_11cCommBufferEi @1045
    _ZN7omnetpp15doParsimPackingIN5flora11LoRaOptionsEEEvPNS_11cCommBufferERKT_ @1046
    _ZN7omnetpp16cClassDescriptorD2Ev @1047
    _ZN7omnetpp16cStringTokenizerC2EPKcS2_ @1048
    _ZN7omnetpp16checked_int_castIixEET_T0_PKNS_7cObjectEPKc @1049
    _ZN7omnetpp16checked_int_castIixEET_T0_PKc @1050
    _ZN7omnetpp16checked_int_castIxxEET_T0_PKNS_7cObjectEPKc @1051
    _ZN7omnetpp17doParsimUnpackingEPNS_11cCommBufferERb @1052
    _ZN7omnetpp17doParsimUnpackingEPNS_11cCommBufferERd @1053
    _ZN7omnetpp17doParsimUnpackingEPNS_11cCommBufferERi @1054
    _ZN7omnetpp17doParsimUnpackingIN5flora11LoRaOptionsEEEvPNS_11cCommBufferERT_ @1055
    _ZN7omnetpp17opp_component_ptrIN4inet13physicallayer6IRadioEE11registerPtrEv @1056
    _ZN7omnetpp17opp_component_ptrIN4inet13physicallayer6IRadioEE13deregisterPtrEv @1057
    _ZN7omnetpp17opp_component_ptrIN4inet13physicallayer6IRadioEEC2Ev @1058
    _ZN7omnetpp17opp_component_ptrIN4inet13physicallayer6IRadioEED2Ev @1059
    _ZN7omnetpp17opp_component_ptrIN4inet13physicallayer6IRadioEEaSEPS3_ @1060
    _ZN7omnetpp17opp_component_ptrIN4inet5power15IEpEnergySourceEE11registerPtrEv @1061
    _ZN7omnetpp17opp_component_ptrIN4inet5power15IEpEnergySourceEE13deregisterPtrEv @1062
    _ZN7omnetpp17opp_component_ptrIN4inet5power15IEpEnergySourceEEC2Ev @1063
    _ZN7omnetpp17opp_component_ptrIN4inet5power15IEpEnergySourceEED2Ev @1064
    _ZN7omnetpp17opp_component_ptrIN4inet5power15IEpEnergySourceEEaSEPS3_ @1065
    _ZN7omnetpp17opp_component_ptrIN4inet8queueing12IPacketQueueEE11registerPtrEv @1066
    _ZN7omnetpp17opp_component_ptrIN4inet8queueing12IPacketQueueEE13deregisterPtrEv @1067
    _ZN7omnetpp17opp_component_ptrIN4inet8queueing12IPacketQueueEEaSEPS3_ @1068
    _ZN7omnetpp21cGenericReadonlyWatchIN4inet5CoordEEC2EPKcRKS2_ @1069
    _ZN7omnetpp21cGenericReadonlyWatchIN4inet5CoordEED0Ev @1070
    _ZN7omnetpp21cGenericReadonlyWatchIN4inet5CoordEED2Ev @1071
    _ZN7omnetpp21cGenericReadonlyWatchIN4inet5units5valueIdNS2_5units1mEEEEC2EPKcRKS6_ @1072
    _ZN7omnetpp21cGenericReadonlyWatchIN4inet5units5valueIdNS2_5units1mEEEED0Ev @1073
    _ZN7omnetpp21cGenericReadonlyWatchIN4inet5units5valueIdNS2_5units1mEEEED2Ev @1074
    _ZN7omnetpp21cGenericReadonlyWatchIN4inet5units5valueIdNS2_7composeINS2_5units1mENS2_3powINS5_1sELin1ELi1EEEEEEEEC2EPKcRKSB_ @1075
    _ZN7omnetpp21cGenericReadonlyWatchIN4inet5units5valueIdNS2_7composeINS2_5units1mENS2_3powINS5_1sELin1ELi1EEEEEEEED0Ev @1076
    _ZN7omnetpp21cGenericReadonlyWatchIN4inet5units5valueIdNS2_7composeINS2_5units1mENS2_3powINS5_1sELin1ELi1EEEEEEEED2Ev @1077
    _ZN7omnetpp21cGenericReadonlyWatchIN4inet5units5valueIdNS2_7composeINS4_INS4_INS2_5units1mENS4_INS5_2kgENS2_3powINS5_1sELin2ELi1EEEEEEES6_EENS8_IS9_Lin1ELi1EEEEEEEEC2EPKcRKSG_ @1078
    _ZN7omnetpp21cGenericReadonlyWatchIN4inet5units5valueIdNS2_7composeINS4_INS4_INS2_5units1mENS4_INS5_2kgENS2_3powINS5_1sELin2ELi1EEEEEEES6_EENS8_IS9_Lin1ELi1EEEEEEEED0Ev @1079
    _ZN7omnetpp21cGenericReadonlyWatchIN4inet5units5valueIdNS2_7composeINS4_INS4_INS2_5units1mENS4_INS5_2kgENS2_3powINS5_1sELin2ELi1EEEEEEES6_EENS8_IS9_Lin1ELi1EEEEEEEED2Ev @1080
    _ZN7omnetpp21cGenericReadonlyWatchINS_4cFSMEEC2EPKcRKS1_ @1081
    _ZN7omnetpp21cGenericReadonlyWatchINS_4cFSMEED0Ev @1082
    _ZN7omnetpp21cGenericReadonlyWatchINS_4cFSMEED2Ev @1083
    _ZN7omnetpp21cGenericReadonlyWatchINS_7SimTimeEEC2EPKcRKS1_ @1084
    _ZN7omnetpp21cGenericReadonlyWatchINS_7SimTimeEED0Ev @1085
    _ZN7omnetpp21cGenericReadonlyWatchINS_7SimTimeEED2Ev @1086
    _ZN7omnetpp22check_and_cast_failureIPKN4inet13physicallayer11ScalarNoiseEKNS2_6INoiseEEEvPT0_T_ @1087
    _ZN7omnetpp22check_and_cast_failureIPKN4inet13physicallayer13IScalarSignalEKNS2_18ISignalAnalogModelEEEvPT0_T_ @1088
    _ZN7omnetpp22check_and_cast_failureIPKN4inet13physicallayer13IScalarSignalEKNS2_24ITransmissionAnalogModelEEEvPT0_T_ @1089
    _ZN7omnetpp22check_and_cast_failureIPKN4inet13physicallayer17INarrowbandSignalEKNS2_18ISignalAnalogModelEEEvPT0_T_ @1090
    _ZN7omnetpp22check_and_cast_failureIPKN4inet13physicallayer17INarrowbandSignalEKNS2_24ITransmissionAnalogModelEEEvPT0_T_ @1091
    _ZN7omnetpp22check_and_cast_failureIPKN4inet13physicallayer21IReceptionAnalogModelEKNS2_13ReceptionBaseEEEvPT0_T_ @1092
    _ZN7omnetpp22check_and_cast_failureIPKN4inet13physicallayer24ITransmissionAnalogModelEKNS2_16TransmissionBaseEEEvPT0_T_ @1093
    _ZN7omnetpp22check_and_cast_failureIPKN5flora13LoRaReceptionEKN4inet13physicallayer10IReceptionEEEvPT0_T_ @1094
    _ZN7omnetpp22check_and_cast_failureIPKN5flora13LoRaReceptionEKN4inet13physicallayer18ISignalAnalogModelEEEvPT0_T_ @1095
    _ZN7omnetpp22check_and_cast_failureIPKN5flora16LoRaTransmissionEKN4inet13physicallayer13ITransmissionEEEvPT0_T_ @1096
    _ZN7omnetpp22check_and_cast_failureIPKN5flora17LoRaBandListeningEKN4inet13physicallayer10IListeningEEEvPT0_T_ @1097
    _ZN7omnetpp22check_and_cast_failureIPKNS_7cModuleEKN4inet13physicallayer6IRadioEEEvPT0_T_ @1098
    _ZN7omnetpp22check_and_cast_failureIPKNS_7cObjectEKN4inet13physicallayer10IReceptionEEEvPT0_T_ @1099
    _ZN7omnetpp22check_and_cast_failureIPKNS_7cObjectEKN4inet13physicallayer13ITransmissionEEEvPT0_T_ @1100
    _ZN7omnetpp22check_and_cast_failureIPN4inet13physicallayer11RadioMediumENS2_12IRadioMediumEEEvPT0_T_ @1101
    _ZN7omnetpp22check_and_cast_failureIPN4inet13physicallayer14WirelessSignalENS_8cMessageEEEvPT0_T_ @1102
    _ZN7omnetpp22check_and_cast_failureIPN4inet13physicallayer21ConfigureRadioCommandENS_7cObjectEEEvPT0_T_ @1103
    _ZN7omnetpp22check_and_cast_failureIPN4inet13physicallayer6IRadioENS_7cModuleEEEvPT0_T_ @1104
    _ZN7omnetpp22check_and_cast_failureIPN4inet15IInterfaceTableENS_7cModuleEEEvPT0_T_ @1105
    _ZN7omnetpp22check_and_cast_failureIPN4inet18StationaryMobilityENS_7cModuleEEEvPT0_T_ @1106
    _ZN7omnetpp22check_and_cast_failureIPN4inet6PacketENS_7cObjectEEEvPT0_T_ @1107
    _ZN7omnetpp22check_and_cast_failureIPN4inet6PacketENS_8cMessageEEEvPT0_T_ @1108
    _ZN7omnetpp22check_and_cast_failureIPN5flora10LoRaMediumEN4inet13physicallayer12IRadioMediumEEEvPT0_T_ @1109
    _ZN7omnetpp22check_and_cast_failureIPN5flora10LoRaMediumENS_7cModuleEEEvPT0_T_ @1110
    _ZN7omnetpp22check_and_cast_failureIPN5flora12LoRaMacFrameENS_7cObjectEEEvPT0_T_ @1111
    _ZN7omnetpp22check_and_cast_failureIPN5flora13LoRaAppPacketENS_7cObjectEEEvPT0_T_ @1112
    _ZN7omnetpp22check_and_cast_failureIPN5flora15LoRaPhyPreambleENS_7cObjectEEEvPT0_T_ @1113
    _ZN7omnetpp22check_and_cast_failureIPN5flora22LoRaLogNormalShadowingENS_7cModuleEEEvPT0_T_ @1114
    _ZN7omnetpp22check_and_cast_failureIPN5flora7LoRaMacENS_7cModuleEEEvPT0_T_ @1115
    _ZN7omnetpp22check_and_cast_failureIPN5flora7LoRaTagENS_7cObjectEEEvPT0_T_ @1116
    _ZN7omnetpp22check_and_cast_failureIPN5flora9LoRaGWMacENS_7cModuleEEEvPT0_T_ @1117
    _ZN7omnetpp22check_and_cast_failureIPN5flora9LoRaRadioEN4inet13physicallayer6IRadioEEEvPT0_T_ @1118
    _ZN7omnetpp22check_and_cast_failureIPN5flora9LoRaRadioENS_7cModuleEEEvPT0_T_ @1119
    _ZN7omnetpp23cGenericAssignableWatchIdE6assignEPKc @1120
    _ZN7omnetpp23cGenericAssignableWatchIdEC2EPKcRd @1121
    _ZN7omnetpp23cGenericAssignableWatchIdED0Ev @1122
    _ZN7omnetpp23cGenericAssignableWatchIdED2Ev @1123
    _ZN7omnetpp23cGenericAssignableWatchIiE6assignEPKc @1124
    _ZN7omnetpp23cGenericAssignableWatchIiEC2EPKcRi @1125
    _ZN7omnetpp23cGenericAssignableWatchIiED0Ev @1126
    _ZN7omnetpp23cGenericAssignableWatchIiED2Ev @1127
    _ZN7omnetpp23cGenericAssignableWatchIlE6assignEPKc @1128
    _ZN7omnetpp23cGenericAssignableWatchIlEC2EPKcRl @1129
    _ZN7omnetpp23cGenericAssignableWatchIlED0Ev @1130
    _ZN7omnetpp23cGenericAssignableWatchIlED2Ev @1131
    _ZN7omnetpp23cNoncopyableOwnedObject12parsimUnpackEPNS_11cCommBufferE @1132
    _ZN7omnetpp23cNoncopyableOwnedObjectC2EPKcb @1133
    _ZN7omnetpp23cNoncopyableOwnedObjectD2Ev @1134
    _ZN7omnetpp4cFSM8setStateEiPKc @1135
    _ZN7omnetpp4cFSMD2Ev @1136
    _ZN7omnetpp4cLog19runtimeLogPredicateEPKNS_10cComponentENS_8LogLevelEPKc @1137
    _ZN7omnetpp4fabsERKNS_7SimTimeE @1138
    _ZN7omnetpp6cValue3setENS_7any_ptrE @1139
    _ZN7omnetpp6cValue3setEb @1140
    _ZN7omnetpp6cValue3setEdPKc @1141
    _ZN7omnetpp6cValue3setExPKc @1142
    _ZN7omnetpp6cValueC2ENS_7any_ptrE @1143
    _ZN7omnetpp6cValueC2Eb @1144
    _ZN7omnetpp6cValueC2Ed @1145
    _ZN7omnetpp6cValueC2EdPKc @1146
    _ZN7omnetpp6cValueC2Ei @1147
    _ZN7omnetpp7SimTime10checkedAddERKS0_ @1148
    _ZN7omnetpp7SimTime10checkedSubERKS0_ @1149
    _ZN7omnetpp7SimTime10getMaxTimeEv @1150
    _ZN7omnetpp7SimTime10setSecondsEx @1151
    _ZN7omnetpp7SimTime11getScaleExpEv @1152
    _ZN7omnetpp7SimTime12assertInitedIdEEvT_ @1153
    _ZN7omnetpp7SimTime12assertInitedIiEEvT_ @1154
    _ZN7omnetpp7SimTime12haveSameSignExx @1155
    _ZN7omnetpp7SimTime6setRawEx @1156
    _ZN7omnetpp7SimTime7toInt64Ed @1157
    _ZN7omnetpp7SimTimeC2ERKS0_ @1158
    _ZN7omnetpp7SimTimeC2Ed @1159
    _ZN7omnetpp7SimTimeC2Ev @1160
    _ZN7omnetpp7SimTimeaSEd @1161
    _ZN7omnetpp7SimTimeaSEi @1162
    _ZN7omnetpp7SimTimedVEi @1163
    _ZN7omnetpp7SimTimemIERKS0_ @1164
    _ZN7omnetpp7SimTimemLEd @1165
    _ZN7omnetpp7SimTimepLERKS0_ @1166
    _ZN7omnetpp7any_ptr3getIN5flora11LoRaOptionsEEEPT_v @1167
    _ZN7omnetpp7any_ptr3getIN5flora18LoRaMacControlInfoEEEPT_v @1168
    _ZN7omnetpp7any_ptr3getIN5flora23LoRaReceptionIndicationEEEPT_v @1169
    _ZN7omnetpp7any_ptr3getIN5flora23LoRaTransmissionRequestEEEPT_v @1170
    _ZN7omnetpp7any_ptr3getIN5flora25LoRaConfigureRadioCommandEEEPT_v @1171
    _ZN7omnetpp7any_ptr3getINS_7cObjectEEEPT_v @1172
    _ZN7omnetpp7any_ptrC2EDn @1173
    _ZN7omnetpp7any_ptrC2ERKS0_ @1174
    _ZN7omnetpp7any_ptrC2Ev @1175
    _ZN7omnetpp7any_ptrC2IN4inet10MacAddressEEEPKT_ @1176
    _ZN7omnetpp7any_ptrC2IN4inet10MacAddressEEEPT_ @1177
    _ZN7omnetpp7any_ptrC2IN5flora11LoRaOptionsEEEPKT_ @1178
    _ZN7omnetpp7any_ptrC2IN5flora11LoRaOptionsEEEPT_ @1179
    _ZN7omnetpp7any_ptrC2INS_7cObjectEEEPKT_ @1180
    _ZN7omnetpp7any_ptrC2INS_7cObjectEEEPT_ @1181
    _ZN7omnetpp7any_ptraSERKS0_ @1182
    _ZN7omnetpp7cModule27setBuiltinAnimationsAllowedEb @1183
    _ZN7omnetpp7cObjectC2ERKS0_ @1184
    _ZN7omnetpp7cObjectC2Ev @1185
    _ZN7omnetpp7cObjectaSERKS0_ @1186
    _ZN7omnetpp7simTimeEv @1187
    _ZN7omnetpp8cMessage10setArrivalEii @1188
    _ZN7omnetpp8cMessage17setContextPointerEPv @1189
    _ZN7omnetpp8cMessage7setKindEs @1190
    _ZN7omnetpp8internal9cLogProxy9getStreamEv @1191
    _ZN7omnetpp8toAnyPtrEPKN4inet10MacAddressE @1192
    _ZN7omnetpp8toAnyPtrEPKN5flora11LoRaOptionsE @1193
    _ZN7omnetpp9bernoulliEPNS_4cRNGEd @1194
    _ZN7omnetpp9cListenerC2Ev @1195
    _ZN7omnetpp9cListenerD2Ev @1196
    _ZN7omnetpp9lognormalEPNS_4cRNGEdd @1197
    _ZN7omnetppdvERKNS_7SimTimeEi @1198
    _ZN7omnetpplsERSoRKNS_7SimTimeE @1199
    _ZN7omnetpplsIN4inet13physicallayer14WirelessSignalEEENSt9enable_ifIXsr3std10is_base_ofINS_7cObjectET_EE5valueERSoE4typeES7_PKS6_ @1200
    _ZN7omnetpplsIN4inet6PacketEEENSt9enable_ifIXsr3std10is_base_ofINS_7cObjectET_EE5valueERSoE4typeES6_PKS5_ @1201
    _ZN7omnetpplsINS_13cSimpleModuleEEENSt9enable_ifIXsr3std10is_base_ofINS_7cObjectET_EE5valueERSoE4typeES5_PKS4_ @1202
    _ZN7omnetpplsINS_4cFSMEEENSt9enable_ifIXsr3std10is_base_ofINS_7cObjectET_EE5valueERSoE4typeES5_RKS4_ @1203
    _ZN7omnetpplsINS_5cGateEEENSt9enable_ifIXsr3std10is_base_ofINS_7cObjectET_EE5valueERSoE4typeES5_PKS4_ @1204
    _ZN7omnetpplsINS_8cMessageEEENSt9enable_ifIXsr3std10is_base_ofINS_7cObjectET_EE5valueERSoE4typeES5_PKS4_ @1205
    _ZN7omnetppmiERKNS_7SimTimeES2_ @1206
    _ZN7omnetppmlERKNS_7SimTimeEd @1207
    _ZN7omnetppmlEdRKNS_7SimTimeE @1208
    _ZN7omnetppplERKNS_7SimTimeES2_ @1209
    _ZN9__gnu_cxx14__alloc_traitsISaIPKN4inet13physicallayer6IRadioEES5_E17_S_select_on_copyERKS6_ @1210
    _ZN9__gnu_cxx14__alloc_traitsISaISt10_List_nodeIdEES2_E17_S_select_on_copyERKS3_ @1211
    _ZN9__gnu_cxx14__alloc_traitsISaISt5tupleIJN4inet9L3AddressEddEEES4_E17_S_select_on_copyERKS5_ @1212
    _ZN9__gnu_cxx16__aligned_bufferIPPvE6_M_ptrEv @1213
    _ZN9__gnu_cxx16__aligned_bufferIPPvE7_M_addrEv @1214
    _ZN9__gnu_cxx16__aligned_membufIPN7omnetpp8cMessageEE6_M_ptrEv @1215
    _ZN9__gnu_cxx16__aligned_membufIPN7omnetpp8cMessageEE7_M_addrEv @1216
    _ZN9__gnu_cxx16__aligned_membufISt4pairIKN7omnetpp7SimTimeEN4inet5units5valueIdNS6_7composeINS8_INS8_INS6_5units1mENS8_INS9_2kgENS6_3powINS9_1sELin2ELi1EEEEEEESA_EENSC_ISD_Lin1ELi1EEEEEEEEE6_M_ptrEv @1217
    _ZN9__gnu_cxx16__aligned_membufISt4pairIKN7omnetpp7SimTimeEN4inet5units5valueIdNS6_7composeINS8_INS8_INS6_5units1mENS8_INS9_2kgENS6_3powINS9_1sELin2ELi1EEEEEEESA_EENSC_ISD_Lin1ELi1EEEEEEEEE7_M_addrEv @1218
    _ZN9__gnu_cxx16__aligned_membufISt4pairIKPKN4inet13physicallayer6IRadioEPN5flora17LoRaNeighborCache10RadioEntryEEE6_M_ptrEv @1219
    _ZN9__gnu_cxx16__aligned_membufISt4pairIKPKN4inet13physicallayer6IRadioEPN5flora17LoRaNeighborCache10RadioEntryEEE7_M_addrEv @1220
    _ZN9__gnu_cxx16__aligned_membufISt4pairIKddEE6_M_ptrEv @1221
    _ZN9__gnu_cxx16__aligned_membufISt4pairIKddEE7_M_addrEv @1222
    _ZN9__gnu_cxx16__aligned_membufISt4pairIKiiEE6_M_ptrEv @1223
    _ZN9__gnu_cxx16__aligned_membufISt4pairIKiiEE7_M_addrEv @1224
    _ZN9__gnu_cxx16__aligned_membufIdE6_M_ptrEv @1225
    _ZN9__gnu_cxx16__aligned_membufIdE7_M_addrEv @1226
    _ZN9__gnu_cxx17__normal_iteratorIPKN5flora14receivedPacketESt6vectorIS2_SaIS2_EEEC2ERKS4_ @1227
    _ZN9__gnu_cxx17__normal_iteratorIPKN5flora14receivedPacketESt6vectorIS2_SaIS2_EEEC2IPS2_vEERKNS0_IT_S7_EE @1228
    _ZN9__gnu_cxx17__normal_iteratorIPKPKN4inet13physicallayer10IReceptionESt6vectorIS5_SaIS5_EEEC2ERKS7_ @1229
    _ZN9__gnu_cxx17__normal_iteratorIPKPKN4inet13physicallayer10IReceptionESt6vectorIS5_SaIS5_EEEppEv @1230
    _ZN9__gnu_cxx17__normal_iteratorIPKPKN4inet13physicallayer18IReceptionDecisionESt6vectorIS5_SaIS5_EEEC2ERKS7_ @1231
    _ZN9__gnu_cxx17__normal_iteratorIPKPKN4inet13physicallayer18IReceptionDecisionESt6vectorIS5_SaIS5_EEEppEv @1232
    _ZN9__gnu_cxx17__normal_iteratorIPKPKN4inet13physicallayer6IRadioESt6vectorIS5_SaIS5_EEEC2ERKS7_ @1233
    _ZN9__gnu_cxx17__normal_iteratorIPKPKN4inet13physicallayer6IRadioESt6vectorIS5_SaIS5_EEEC2IPS5_vEERKNS0_IT_SA_EE @1234
    _ZN9__gnu_cxx17__normal_iteratorIPKPKN4inet13physicallayer6IRadioESt6vectorIS5_SaIS5_EEEppEv @1235
    _ZN9__gnu_cxx17__normal_iteratorIPKPN5flora17LoRaNeighborCache10RadioEntryESt6vectorIS4_SaIS4_EEEC2ERKS6_ @1236
    _ZN9__gnu_cxx17__normal_iteratorIPKPN5flora17LoRaNeighborCache10RadioEntryESt6vectorIS4_SaIS4_EEEC2IPS4_vEERKNS0_IT_S9_EE @1237
    _ZN9__gnu_cxx17__normal_iteratorIPKPN7omnetpp11cXMLElementESt6vectorIS3_SaIS3_EEEC2ERKS5_ @1238
    _ZN9__gnu_cxx17__normal_iteratorIPKPN7omnetpp11cXMLElementESt6vectorIS3_SaIS3_EEEC2IPS3_vEERKNS0_IT_S8_EE @1239
    _ZN9__gnu_cxx17__normal_iteratorIPKPN7omnetpp11cXMLElementESt6vectorIS3_SaIS3_EEEppEi @1240
    _ZN9__gnu_cxx17__normal_iteratorIPKSt5tupleIJN4inet9L3AddressEddEESt6vectorIS4_SaIS4_EEEC2ERKS6_ @1241
    _ZN9__gnu_cxx17__normal_iteratorIPKSt5tupleIJN4inet9L3AddressEddEESt6vectorIS4_SaIS4_EEEppEv @1242
    _ZN9__gnu_cxx17__normal_iteratorIPN4inet9L3AddressESt6vectorIS2_SaIS2_EEEC2ERKS3_ @1243
    _ZN9__gnu_cxx17__normal_iteratorIPN5flora14receivedPacketESt6vectorIS2_SaIS2_EEEC2ERKS3_ @1244
    _ZN9__gnu_cxx17__normal_iteratorIPN5flora14receivedPacketESt6vectorIS2_SaIS2_EEEppEv @1245
    _ZN9__gnu_cxx17__normal_iteratorIPN5flora9knownNodeESt6vectorIS2_SaIS2_EEEC2ERKS3_ @1246
    _ZN9__gnu_cxx17__normal_iteratorIPN5flora9knownNodeESt6vectorIS2_SaIS2_EEEppEv @1247
    _ZN9__gnu_cxx17__normal_iteratorIPPKN4inet13physicallayer6IRadioESt6vectorIS5_SaIS5_EEEC2ERKS6_ @1248
    _ZN9__gnu_cxx17__normal_iteratorIPPKN4inet13physicallayer6IRadioESt6vectorIS5_SaIS5_EEEppEv @1249
    _ZN9__gnu_cxx17__normal_iteratorIPPN5flora17LoRaNeighborCache10RadioEntryESt6vectorIS4_SaIS4_EEEC2ERKS5_ @1250
    _ZN9__gnu_cxx17__normal_iteratorIPPN5flora17LoRaNeighborCache10RadioEntryESt6vectorIS4_SaIS4_EEEppEv @1251
    _ZN9__gnu_cxx17__normal_iteratorIPPN7omnetpp11cXMLElementESt6vectorIS3_SaIS3_EEEC2ERKS4_ @1252
    _ZN9__gnu_cxx17__normal_iteratorIPSt5tupleIJN4inet9L3AddressEddEESt6vectorIS4_SaIS4_EEEC2ERKS5_ @1253
    _ZN9__gnu_cxx5__ops16_Iter_equals_valIKPKN4inet13physicallayer6IRadioEEC2ERS7_ @1254
    _ZN9__gnu_cxx5__ops16_Iter_equals_valIKPKN4inet13physicallayer6IRadioEEclINS_17__normal_iteratorIPS6_St6vectorIS6_SaIS6_EEEEEEbT_ @1255
    _ZN9__gnu_cxx5__ops16_Iter_equals_valIKPN5flora17LoRaNeighborCache10RadioEntryEEC2ERS6_ @1256
    _ZN9__gnu_cxx5__ops16_Iter_equals_valIKPN5flora17LoRaNeighborCache10RadioEntryEEclINS_17__normal_iteratorIPS5_St6vectorIS5_SaIS5_EEEEEEbT_ @1257
    _ZN9__gnu_cxx5__ops16__iter_less_iterEv @1258
    _ZN9__gnu_cxx5__ops17__iter_equals_valIKPKN4inet13physicallayer6IRadioEEENS0_16_Iter_equals_valIT_EERS9_ @1259
    _ZN9__gnu_cxx5__ops17__iter_equals_valIKPN5flora17LoRaNeighborCache10RadioEntryEEENS0_16_Iter_equals_valIT_EERS8_ @1260
    _ZN9__gnu_cxxeqIPKN5flora14receivedPacketESt6vectorIS2_SaIS2_EEEEbRKNS_17__normal_iteratorIT_T0_EESD_ @1261
    _ZN9__gnu_cxxeqIPKPN7omnetpp11cXMLElementESt6vectorIS3_SaIS3_EEEEbRKNS_17__normal_iteratorIT_T0_EESE_ @1262
    _ZN9__gnu_cxxeqIPPKN4inet13physicallayer6IRadioESt6vectorIS5_SaIS5_EEEEbRKNS_17__normal_iteratorIT_T0_EESF_ @1263
    _ZN9__gnu_cxxmiIPKN5flora14receivedPacketESt6vectorIS2_SaIS2_EEEENS_17__normal_iteratorIT_T0_E15difference_typeERKSB_SE_ @1264
    _ZN9__gnu_cxxmiIPKPKN4inet13physicallayer6IRadioESt6vectorIS5_SaIS5_EEEENS_17__normal_iteratorIT_T0_E15difference_typeERKSE_SH_ @1265
    _ZN9__gnu_cxxmiIPKPN5flora17LoRaNeighborCache10RadioEntryESt6vectorIS4_SaIS4_EEEENS_17__normal_iteratorIT_T0_E15difference_typeERKSD_SG_ @1266
    _ZN9__gnu_cxxmiIPN4inet9L3AddressESt6vectorIS2_SaIS2_EEEENS_17__normal_iteratorIT_T0_E15difference_typeERKSA_SD_ @1267
    _ZN9__gnu_cxxmiIPN5flora14receivedPacketESt6vectorIS2_SaIS2_EEEENS_17__normal_iteratorIT_T0_E15difference_typeERKSA_SD_ @1268
    _ZN9__gnu_cxxmiIPN5flora9knownNodeESt6vectorIS2_SaIS2_EEEENS_17__normal_iteratorIT_T0_E15difference_typeERKSA_SD_ @1269
    _ZN9__gnu_cxxmiIPPKN4inet13physicallayer6IRadioESt6vectorIS5_SaIS5_EEEENS_17__normal_iteratorIT_T0_E15difference_typeERKSD_SG_ @1270
    _ZN9__gnu_cxxmiIPPN5flora17LoRaNeighborCache10RadioEntryESt6vectorIS4_SaIS4_EEEENS_17__normal_iteratorIT_T0_E15difference_typeERKSC_SF_ @1271
    _ZN9__gnu_cxxmiIPSt5tupleIJN4inet9L3AddressEddEESt6vectorIS4_SaIS4_EEEENS_17__normal_iteratorIT_T0_E15difference_typeERKSC_SF_ @1272
    _ZN9__gnu_cxxneIPKPKN4inet13physicallayer10IReceptionESt6vectorIS5_SaIS5_EEEEbRKNS_17__normal_iteratorIT_T0_EESG_ @1273
    _ZN9__gnu_cxxneIPKPKN4inet13physicallayer18IReceptionDecisionESt6vectorIS5_SaIS5_EEEEbRKNS_17__normal_iteratorIT_T0_EESG_ @1274
    _ZN9__gnu_cxxneIPKPKN4inet13physicallayer6IRadioESt6vectorIS5_SaIS5_EEEEbRKNS_17__normal_iteratorIT_T0_EESG_ @1275
    _ZN9__gnu_cxxneIPKPN7omnetpp11cXMLElementEPS3_St6vectorIS3_SaIS3_EEEEbRKNS_17__normal_iteratorIT_T1_EERKNSA_IT0_SC_EE @1276
    _ZN9__gnu_cxxneIPKSt5tupleIJN4inet9L3AddressEddEESt6vectorIS4_SaIS4_EEEEbRKNS_17__normal_iteratorIT_T0_EESF_ @1277
    _ZN9__gnu_cxxneIPN5flora14receivedPacketESt6vectorIS2_SaIS2_EEEEbRKNS_17__normal_iteratorIT_T0_EESC_ @1278
    _ZN9__gnu_cxxneIPN5flora9knownNodeESt6vectorIS2_SaIS2_EEEEbRKNS_17__normal_iteratorIT_T0_EESC_ @1279
    _ZN9__gnu_cxxneIPPKN4inet13physicallayer6IRadioESt6vectorIS5_SaIS5_EEEEbRKNS_17__normal_iteratorIT_T0_EESF_ @1280
    _ZN9__gnu_cxxneIPPN5flora17LoRaNeighborCache10RadioEntryESt6vectorIS4_SaIS4_EEEEbRKNS_17__normal_iteratorIT_T0_EESE_ @1281
    _ZNK4inet10MacAddress11isBroadcastEv @1282
    _ZNK4inet10MacAddress11isMulticastEv @1283
    _ZNK4inet10MacAddress6getIntEv @1284
    _ZNK4inet10MacAddresseqERKS0_ @1285
    _ZNK4inet11FieldsChunk12getChunkTypeEv @1286
    _ZNK4inet11FieldsChunk14getChunkLengthEv @1287
    _ZNK4inet12IntervalTree8Interval5printEv @1288
    _ZNK4inet13SharingTagSet11getTagIndexIN5flora7LoRaTagEEEiv @1289
    _ZNK4inet13SharingTagSet11getTagIndexINS_12ErrorRateIndEEEiv @1290
    _ZNK4inet13SharingTagSet11getTagIndexINS_12InterfaceIndEEEiv @1291
    _ZNK4inet13SharingTagSet11getTagIndexINS_13MacAddressIndEEEiv @1292
    _ZNK4inet13SharingTagSet11getTagIndexINS_13MacAddressReqEEEiv @1293
    _ZNK4inet13SharingTagSet11getTagIndexINS_13SignalTimeIndEEEiv @1294
    _ZNK4inet13SharingTagSet11getTagIndexINS_14SignalPowerIndEEEiv @1295
    _ZNK4inet13SharingTagSet11getTagIndexINS_14SignalPowerReqEEEiv @1296
    _ZNK4inet13SharingTagSet11getTagIndexINS_17PacketProtocolTagEEEiv @1297
    _ZNK4inet13SharingTagSet11getTagIndexINS_7SnirIndEEEiv @1298
    _ZNK4inet13SharingTagSet6getTagEi @1299
    _ZNK4inet13SharingTagSet6getTagIN5flora7LoRaTagEEEKNS_12IntrusivePtrIKT_EEv @1300
    _ZNK4inet13SharingTagSet6getTagINS_14SignalPowerIndEEEKNS_12IntrusivePtrIKT_EEv @1301
    _ZNK4inet13SharingTagSet6getTagINS_7SnirIndEEEKNS_12IntrusivePtrIKT_EEv @1302
    _ZNK4inet13SharingTagSet7findTagINS_12ErrorRateIndEEEKNS_12IntrusivePtrIKT_EEv @1303
    _ZNK4inet13SharingTagSet7findTagINS_14SignalPowerIndEEEKNS_12IntrusivePtrIKT_EEv @1304
    _ZNK4inet13SharingTagSet7findTagINS_7SnirIndEEEKNS_12IntrusivePtrIKT_EEv @1305
    _ZNK4inet13physicallayer11RadioMedium11getMaterialEv @1306
    _ZNK4inet13physicallayer11RadioMedium11getPathLossEv @1307
    _ZNK4inet13physicallayer11RadioMedium13numInitStagesEv @1308
    _ZNK4inet13physicallayer11RadioMedium14getAnalogModelEv @1309
    _ZNK4inet13physicallayer11RadioMedium14getPropagationEv @1310
    _ZNK4inet13physicallayer11RadioMedium15getObstacleLossEv @1311
    _ZNK4inet13physicallayer11RadioMedium16getNeighborCacheEv @1312
    _ZNK4inet13physicallayer11RadioMedium18getBackgroundNoiseEv @1313
    _ZNK4inet13physicallayer11RadioMedium19getMediumLimitCacheEv @1314
    _ZNK4inet13physicallayer11RadioMedium21getCommunicationCacheEv @1315
    _ZNK4inet13physicallayer11RadioMedium22getPhysicalEnvironmentEv @1316
    _ZNK4inet13physicallayer12ReceiverBase13numInitStagesEv @1317
    _ZNK4inet13physicallayer12ReceiverBase20getMinReceptionPowerEv @1318
    _ZNK4inet13physicallayer12ReceiverBase23getMinInterferencePowerEv @1319
    _ZNK4inet13physicallayer13BandListening12getBandwidthEv @1320
    _ZNK4inet13physicallayer13BandListening18getCenterFrequencyEv @1321
    _ZNK4inet13physicallayer13ListeningBase10getEndTimeEv @1322
    _ZNK4inet13physicallayer13ListeningBase11getReceiverEv @1323
    _ZNK4inet13physicallayer13ListeningBase12getStartTimeEv @1324
    _ZNK4inet13physicallayer13ListeningBase14getEndPositionEv @1325
    _ZNK4inet13physicallayer13ListeningBase16getStartPositionEv @1326
    _ZNK4inet13physicallayer13ReceptionBase10getEndTimeEv @1327
    _ZNK4inet13physicallayer13ReceptionBase11getDurationEv @1328
    _ZNK4inet13physicallayer13ReceptionBase11getReceiverEv @1329
    _ZNK4inet13physicallayer13ReceptionBase12getStartTimeEv @1330
    _ZNK4inet13physicallayer13ReceptionBase14getAnalogModelEv @1331
    _ZNK4inet13physicallayer13ReceptionBase14getDataEndTimeEv @1332
    _ZNK4inet13physicallayer13ReceptionBase14getEndPositionEv @1333
    _ZNK4inet13physicallayer13ReceptionBase15getDataDurationEv @1334
    _ZNK4inet13physicallayer13ReceptionBase15getTransmissionEv @1335
    _ZNK4inet13physicallayer13ReceptionBase16getDataStartTimeEv @1336
    _ZNK4inet13physicallayer13ReceptionBase16getHeaderEndTimeEv @1337
    _ZNK4inet13physicallayer13ReceptionBase16getStartPositionEv @1338
    _ZNK4inet13physicallayer13ReceptionBase17getEndOrientationEv @1339
    _ZNK4inet13physicallayer13ReceptionBase17getHeaderDurationEv @1340
    _ZNK4inet13physicallayer13ReceptionBase18getHeaderStartTimeEv @1341
    _ZNK4inet13physicallayer13ReceptionBase18getPreambleEndTimeEv @1342
    _ZNK4inet13physicallayer13ReceptionBase19getPreambleDurationEv @1343
    _ZNK4inet13physicallayer13ReceptionBase19getStartOrientationEv @1344
    _ZNK4inet13physicallayer13ReceptionBase20getPreambleStartTimeEv @1345
    _ZNK4inet13physicallayer15ScalarReception15computeMinPowerEN7omnetpp7SimTimeES3_ @1346
    _ZNK4inet13physicallayer15ScalarReception8getPowerEv @1347
    _ZNK4inet13physicallayer15TransmitterBase11getMaxPowerEv @1348
    _ZNK4inet13physicallayer15TransmitterBase13numInitStagesEv @1349
    _ZNK4inet13physicallayer15TransmitterBase23getMaxInterferenceRangeEv @1350
    _ZNK4inet13physicallayer15TransmitterBase24getMaxCommunicationRangeEv @1351
    _ZNK4inet13physicallayer16FlatReceiverBase13getErrorModelEv @1352
    _ZNK4inet13physicallayer16FlatReceiverBase14getSensitivityEv @1353
    _ZNK4inet13physicallayer16FlatReceiverBase18getEnergyDetectionEv @1354
    _ZNK4inet13physicallayer16FlatReceiverBase20getMinReceptionPowerEv @1355
    _ZNK4inet13physicallayer16SnirReceiverBase16getSNIRThresholdEv @1356
    _ZNK4inet13physicallayer16TransmissionBase10getEndTimeEv @1357
    _ZNK4inet13physicallayer16TransmissionBase11getDurationEv @1358
    _ZNK4inet13physicallayer16TransmissionBase12getStartTimeEv @1359
    _ZNK4inet13physicallayer16TransmissionBase14getAnalogModelEv @1360
    _ZNK4inet13physicallayer16TransmissionBase14getDataEndTimeEv @1361
    _ZNK4inet13physicallayer16TransmissionBase14getEndPositionEv @1362
    _ZNK4inet13physicallayer16TransmissionBase15getDataDurationEv @1363
    _ZNK4inet13physicallayer16TransmissionBase16getDataStartTimeEv @1364
    _ZNK4inet13physicallayer16TransmissionBase16getHeaderEndTimeEv @1365
    _ZNK4inet13physicallayer16TransmissionBase16getStartPositionEv @1366
    _ZNK4inet13physicallayer16TransmissionBase16getTransmitterIdEv @1367
    _ZNK4inet13physicallayer16TransmissionBase17getEndOrientationEv @1368
    _ZNK4inet13physicallayer16TransmissionBase17getHeaderDurationEv @1369
    _ZNK4inet13physicallayer16TransmissionBase18getHeaderStartTimeEv @1370
    _ZNK4inet13physicallayer16TransmissionBase18getPreambleEndTimeEv @1371
    _ZNK4inet13physicallayer16TransmissionBase19getPreambleDurationEv @1372
    _ZNK4inet13physicallayer16TransmissionBase19getStartOrientationEv @1373
    _ZNK4inet13physicallayer16TransmissionBase20getPreambleStartTimeEv @1374
    _ZNK4inet13physicallayer16TransmissionBase25getTransmitterAntennaGainEv @1375
    _ZNK4inet13physicallayer16TransmissionBase5getIdEv @1376
    _ZNK4inet13physicallayer16TransmissionBase9getMediumEv @1377
    _ZNK4inet13physicallayer16TransmissionBase9getPacketEv @1378
    _ZNK4inet13physicallayer17PhysicalLayerBase17isInitializeStageEi @1379
    _ZNK4inet13physicallayer17PhysicalLayerBase17isModuleStopStageEi @1380
    _ZNK4inet13physicallayer17PhysicalLayerBase18isModuleStartStageEi @1381
    _ZNK4inet13physicallayer18ApskModulationBase15getCodeWordSizeEv @1382
    _ZNK4inet13physicallayer18ApskModulationBase16getConstellationEv @1383
    _ZNK4inet13physicallayer18ApskModulationBase20getConstellationSizeEv @1384
    _ZNK4inet13physicallayer19FlatTransmitterBase10getBitrateEv @1385
    _ZNK4inet13physicallayer19FlatTransmitterBase11getMaxPowerEv @1386
    _ZNK4inet13physicallayer19FlatTransmitterBase15getHeaderLengthEv @1387
    _ZNK4inet13physicallayer19FlatTransmitterBase8getPowerEv @1388
    _ZNK4inet13physicallayer21ScalarAnalogModelBase13numInitStagesEv @1389
    _ZNK4inet13physicallayer22NarrowbandReceiverBase12getBandwidthEv @1390
    _ZNK4inet13physicallayer22NarrowbandReceiverBase13getModulationEv @1391
    _ZNK4inet13physicallayer22NarrowbandReceiverBase18getCenterFrequencyEv @1392
    _ZNK4inet13physicallayer23NarrowbandReceptionBase12getBandwidthEv @1393
    _ZNK4inet13physicallayer23NarrowbandReceptionBase18getCenterFrequencyEv @1394
    _ZNK4inet13physicallayer25NarrowbandTransmitterBase12getBandwidthEv @1395
    _ZNK4inet13physicallayer25NarrowbandTransmitterBase13getModulationEv @1396
    _ZNK4inet13physicallayer25NarrowbandTransmitterBase18getCenterFrequencyEv @1397
    _ZNK4inet13physicallayer26StateBasedEpEnergyConsumer13numInitStagesEv @1398
    _ZNK4inet13physicallayer26StateBasedEpEnergyConsumer15getEnergySourceEv @1399
    _ZNK4inet13physicallayer26StateBasedEpEnergyConsumer19getPowerConsumptionEv @1400
    _ZNK4inet13physicallayer5Radio10getAntennaEv @1401
    _ZNK4inet13physicallayer5Radio11decapsulateEPNS_6PacketE @1402
    _ZNK4inet13physicallayer5Radio11encapsulateEPNS_6PacketE @1403
    _ZNK4inet13physicallayer5Radio11getReceiverEv @1404
    _ZNK4inet13physicallayer5Radio12getRadioGateEv @1405
    _ZNK4inet13physicallayer5Radio12getRadioModeEv @1406
    _ZNK4inet13physicallayer5Radio14getTransmitterEv @1407
    _ZNK4inet13physicallayer5Radio17getReceptionStateEv @1408
    _ZNK4inet13physicallayer5Radio20getTransmissionStateEv @1409
    _ZNK4inet13physicallayer5Radio5getIdEv @1410
    _ZNK4inet13physicallayer5Radio9getMediumEv @1411
    _ZNK4inet14ModuleRefByParINS_13physicallayer12IRadioMediumEE14checkReferenceEv @1412
    _ZNK4inet14ModuleRefByParINS_13physicallayer12IRadioMediumEEcvPS2_Ev @1413
    _ZNK4inet14ModuleRefByParINS_13physicallayer12IRadioMediumEEptEv @1414
    _ZNK4inet14ModuleRefByParINS_5power15IEpEnergySourceEE14checkReferenceEv @1415
    _ZNK4inet14ModuleRefByParINS_5power15IEpEnergySourceEEcvPS2_Ev @1416
    _ZNK4inet14ModuleRefByParINS_5power15IEpEnergySourceEEptEv @1417
    _ZNK4inet15MacProtocolBase17isInitializeStageEi @1418
    _ZNK4inet15MacProtocolBase17isModuleStopStageEi @1419
    _ZNK4inet15MacProtocolBase18isModuleStartStageEi @1420
    _ZNK4inet16IPrintableObject13printToStreamERSoii @1421
    _ZNK4inet16IPrintableObject13printToStringB5cxx11Eii @1422
    _ZNK4inet16IPrintableObject13printToStringB5cxx11Ev @1423
    _ZNK4inet16IPrintableObject27getInfoStringRepresentationB5cxx11Ei @1424
    _ZNK4inet16IPrintableObject28getDebugStringRepresentationB5cxx11Ei @1425
    _ZNK4inet16IPrintableObject28getTraceStringRepresentationB5cxx11Ei @1426
    _ZNK4inet16IPrintableObject29getDetailStringRepresentationB5cxx11Ei @1427
    _ZNK4inet16IPrintableObject31getCompleteStringRepresentationB5cxx11Ei @1428
    _ZNK4inet16NetworkInterface13getMacAddressEv @1429
    _ZNK4inet16NetworkInterface14getInterfaceIdEv @1430
    _ZNK4inet5Chunk10isCompleteEv @1431
    _ZNK4inet5Chunk11canInsertAtERKNS_12IntrusivePtrIKS0_EENS_5units5valueIxNS6_5units1bEEE @1432
    _ZNK4inet5Chunk11canRemoveAtENS_5units5valueIxNS1_5units1bEEES5_ @1433
    _ZNK4inet5Chunk11isImmutableEv @1434
    _ZNK4inet5Chunk11isIncorrectEv @1435
    _ZNK4inet5Chunk12checkMutableEv @1436
    _ZNK4inet5Chunk12isIncompleteEv @1437
    _ZNK4inet5Chunk13peekConvertedIN5flora12LoRaMacFrameEEEKNS_12IntrusivePtrIT_EERKNS0_8IteratorENS_5units5valueIxNSB_5units1bEEEi @1438
    _ZNK4inet5Chunk13peekConvertedIN5flora13LoRaAppPacketEEEKNS_12IntrusivePtrIT_EERKNS0_8IteratorENS_5units5valueIxNSB_5units1bEEEi @1439
    _ZNK4inet5Chunk13peekConvertedIN5flora15LoRaPhyPreambleEEEKNS_12IntrusivePtrIT_EERKNS0_8IteratorENS_5units5valueIxNSB_5units1bEEEi @1440
    _ZNK4inet5Chunk13peekConvertedINS_11FieldsChunkEEEKNS_12IntrusivePtrIT_EERKNS0_8IteratorENS_5units5valueIxNSA_5units1bEEEi @1441
    _ZNK4inet5Chunk15canInsertAtBackERKNS_12IntrusivePtrIKS0_EE @1442
    _ZNK4inet5Chunk15canRemoveAtBackENS_5units5valueIxNS1_5units1bEEE @1443
    _ZNK4inet5Chunk15checkPeekResultIN5flora12LoRaMacFrameEEEKNS_12IntrusivePtrIT_EERS7_i @1444
    _ZNK4inet5Chunk15checkPeekResultIN5flora13LoRaAppPacketEEEKNS_12IntrusivePtrIT_EERS7_i @1445
    _ZNK4inet5Chunk15checkPeekResultIN5flora15LoRaPhyPreambleEEEKNS_12IntrusivePtrIT_EERS7_i @1446
    _ZNK4inet5Chunk15checkPeekResultINS_11FieldsChunkEEEKNS_12IntrusivePtrIT_EERS6_i @1447
    _ZNK4inet5Chunk16canInsertAtFrontERKNS_12IntrusivePtrIKS0_EE @1448
    _ZNK4inet5Chunk16canRemoveAtFrontENS_5units5valueIxNS1_5units1bEEE @1449
    _ZNK4inet5Chunk21isProperlyRepresentedEv @1450
    _ZNK4inet5Chunk23isImproperlyRepresentedEv @1451
    _ZNK4inet5Chunk4peekIN5flora12LoRaMacFrameEEEKNS_12IntrusivePtrIT_EERKNS0_8IteratorENS_5units5valueIxNSB_5units1bEEEi @1452
    _ZNK4inet5Chunk4peekIN5flora13LoRaAppPacketEEEKNS_12IntrusivePtrIT_EERKNS0_8IteratorENS_5units5valueIxNSB_5units1bEEEi @1453
    _ZNK4inet5Chunk4peekIN5flora15LoRaPhyPreambleEEEKNS_12IntrusivePtrIT_EERKNS0_8IteratorENS_5units5valueIxNSB_5units1bEEEi @1454
    _ZNK4inet5Chunk4peekINS_11FieldsChunkEEEKNS_12IntrusivePtrIT_EERKNS0_8IteratorENS_5units5valueIxNSA_5units1bEEEi @1455
    _ZNK4inet5Chunk4peekIS0_EEKNS_12IntrusivePtrIT_EERKNS0_8IteratorENS_5units5valueIxNS9_5units1bEEEi @1456
    _ZNK4inet5Chunk7isEmptyEv @1457
    _ZNK4inet5Chunk8Iterator11getPositionEv @1458
    _ZNK4inet5Chunk8Iterator9isForwardEv @1459
    _ZNK4inet5Chunk9dupSharedEv @1460
    _ZNK4inet5Chunk9isCorrectEv @1461
    _ZNK4inet5Chunk9isMutableEv @1462
    _ZNK4inet5Coord12squareLengthEv @1463
    _ZNK4inet5Coord3maxERKS0_ @1464
    _ZNK4inet5Coord3minERKS0_ @1465
    _ZNK4inet5Coord7sqrdistERKS0_ @1466
    _ZNK4inet5units5valueIdNS0_3powINS0_5units1sELin1ELi1EEEE3getEv @1467
    _ZNK4inet5units5valueIdNS0_3powINS0_5units1sELin1ELi1EEEEeqIdS5_EEbRKNS1_IT_T0_EE @1468
    _ZNK4inet5units5valueIdNS0_3powINS0_5units1sELin1ELi1EEEEgeIdNS0_5scaleINS8_INS8_IS5_Li1ELi1000EEELi1ELi1000EEELi1ELi1000EEEEEbRKNS1_IT_T0_EE @1469
    _ZNK4inet5units5valueIdNS0_3powINS0_5units1sELin1ELi1EEEEgeIdNS0_5scaleINS8_IS5_Li1ELi1000EEELi1ELi1000EEEEEbRKNS1_IT_T0_EE @1470
    _ZNK4inet5units5valueIdNS0_3powINS0_5units1sELin1ELi1EEEEgeIdNS0_5scaleIS5_Li1ELi1000EEEEEbRKNS1_IT_T0_EE @1471
    _ZNK4inet5units5valueIdNS0_3powINS0_5units1sELin1ELi1EEEEneIdS5_EEbRKNS1_IT_T0_EE @1472
    _ZNK4inet5units5valueIdNS0_3powINS0_8internal4noneELi0ELi1EEEE3getEv @1473
    _ZNK4inet5units5valueIdNS0_5scaleINS0_3powINS0_5units1sELin1ELi1EEELi1ELi1000EEEE3getEv @1474
    _ZNK4inet5units5valueIdNS0_5scaleINS0_7composeINS0_5units1bENS0_3powINS4_1sELin1ELi1EEEEELi1ELi1000EEEE3getEv @1475
    _ZNK4inet5units5valueIdNS0_5scaleINS0_7composeINS3_INS3_INS0_5units1mENS3_INS4_2kgENS0_3powINS4_1sELin2ELi1EEEEEEES5_EENS7_IS8_Lin1ELi1EEEEELi1000ELi1EEEE3getEv @1476
    _ZNK4inet5units5valueIdNS0_5scaleINS2_INS0_3powINS0_5units1sELin1ELi1EEELi1ELi1000EEELi1ELi1000EEEE3getEv @1477
    _ZNK4inet5units5valueIdNS0_5scaleINS2_INS0_7composeINS0_5units1bENS0_3powINS4_1sELin1ELi1EEEEELi1ELi1000EEELi1ELi1000EEEE3getEv @1478
    _ZNK4inet5units5valueIdNS0_5scaleINS2_INS0_7composeINS3_INS3_INS0_5units1mENS3_INS4_2kgENS0_3powINS4_1sELin2ELi1EEEEEEES5_EENS7_IS8_Lin1ELi1EEEEELi1000ELi1EEELi1000ELi1EEEE3getEv @1479
    _ZNK4inet5units5valueIdNS0_5scaleINS2_INS2_INS0_3powINS0_5units1sELin1ELi1EEELi1ELi1000EEELi1ELi1000EEELi1ELi1000EEEE3getEv @1480
    _ZNK4inet5units5valueIdNS0_5scaleINS2_INS2_INS0_7composeINS0_5units1bENS0_3powINS4_1sELin1ELi1EEEEELi1ELi1000EEELi1ELi1000EEELi1ELi1000EEEE3getEv @1481
    _ZNK4inet5units5valueIdNS0_5scaleINS2_INS2_INS0_7composeINS3_INS3_INS0_5units1mENS3_INS4_2kgENS0_3powINS4_1sELin2ELi1EEEEEEES5_EENS7_IS8_Lin1ELi1EEEEELi1000ELi1EEELi1000ELi1EEELi1000ELi1EEEE3getEv @1482
    _ZNK4inet5units5valueIdNS0_5scaleINS2_INS2_INS2_INS0_7composeINS3_INS3_INS0_5units1mENS3_INS4_2kgENS0_3powINS4_1sELin2ELi1EEEEEEES5_EENS7_IS8_Lin1ELi1EEEEELi1000ELi1EEELi1000ELi1EEELi1000ELi1EEELi1000ELi1EEEE3getEv @1483
    _ZNK4inet5units5valueIdNS0_5units1mEE3getEv @1484
    _ZNK4inet5units5valueIdNS0_5units1mEEdvIdS3_dEENS1_IT1_NS0_7composeIS3_NS0_3powIT0_Lin1ELi1EEEEEEERKNS1_IT_S9_EE @1485
    _ZNK4inet5units5valueIdNS0_5units1mEEgtIdS3_EEbRKNS1_IT_T0_EE @1486
    _ZNK4inet5units5valueIdNS0_5units1sEE3getEv @1487
    _ZNK4inet5units5valueIdNS0_5units1sEEmlIdNS0_7composeINS6_INS6_INS2_1mENS6_INS2_2kgENS0_3powIS3_Lin2ELi1EEEEEEES7_EENS9_IS3_Lin1ELi1EEEEEdEENS1_IT1_NS6_IS3_T0_EEEERKNS1_IT_SH_EE @1488
    _ZNK4inet5units5valueIdNS0_7composeINS0_5units1bENS0_3powINS3_1sELin1ELi1EEEEEE3getEv @1489
    _ZNK4inet5units5valueIdNS0_7composeINS0_5units1bENS0_3powINS3_1sELin1ELi1EEEEEEgeIdNS0_5scaleINSB_INSB_IS8_Li1ELi1000EEELi1ELi1000EEELi1ELi1000EEEEEbRKNS1_IT_T0_EE @1490
    _ZNK4inet5units5valueIdNS0_7composeINS0_5units1bENS0_3powINS3_1sELin1ELi1EEEEEEgeIdNS0_5scaleINSB_IS8_Li1ELi1000EEELi1ELi1000EEEEEbRKNS1_IT_T0_EE @1491
    _ZNK4inet5units5valueIdNS0_7composeINS0_5units1bENS0_3powINS3_1sELin1ELi1EEEEEEgeIdNS0_5scaleIS8_Li1ELi1000EEEEEbRKNS1_IT_T0_EE @1492
    _ZNK4inet5units5valueIdNS0_7composeINS0_5units1mENS0_3powINS3_1sELin1ELi1EEEEEE3getEv @1493
    _ZNK4inet5units5valueIdNS0_7composeINS0_5units1mENS0_3powINS3_1sELin1ELi1EEEEEEgtIdS8_EEbRKNS1_IT_T0_EE @1494
    _ZNK4inet5units5valueIdNS0_7composeINS0_5units1mENS0_3powIS4_Lin1ELi1EEEEEE3getEv @1495
    _ZNK4inet5units5valueIdNS0_7composeINS0_5units1sENS2_INS2_INS2_INS3_1mENS2_INS3_2kgENS0_3powIS4_Lin2ELi1EEEEEEES5_EENS7_IS4_Lin1ELi1EEEEEEEE3getEv @1496
    _ZNK4inet5units5valueIdNS0_7composeINS2_INS0_5units1mENS2_INS3_2kgENS0_3powINS3_1sELin2ELi1EEEEEEES4_EEE3getEv @1497
    _ZNK4inet5units5valueIdNS0_7composeINS2_INS2_INS0_5units1mENS2_INS3_2kgENS0_3powINS3_1sELin2ELi1EEEEEEES4_EENS6_IS7_Lin1ELi1EEEEEE3getEv @1498
    _ZNK4inet5units5valueIdNS0_7composeINS2_INS2_INS0_5units1mENS2_INS3_2kgENS0_3powINS3_1sELin2ELi1EEEEEEES4_EENS6_IS7_Lin1ELi1EEEEEEdvIdSD_dEENS1_IT1_NS2_ISD_NS6_IT0_Lin1ELi1EEEEEEERKNS1_IT_SH_EE @1499
    _ZNK4inet5units5valueIdNS0_7composeINS2_INS2_INS0_5units1mENS2_INS3_2kgENS0_3powINS3_1sELin2ELi1EEEEEEES4_EENS6_IS7_Lin1ELi1EEEEEEeqIdSD_EEbRKNS1_IT_T0_EE @1500
    _ZNK4inet5units5valueIdNS0_7composeINS2_INS2_INS0_5units1mENS2_INS3_2kgENS0_3powINS3_1sELin2ELi1EEEEEEES4_EENS6_IS7_Lin1ELi1EEEEEEgeIdSD_EEbRKNS1_IT_T0_EE @1501
    _ZNK4inet5units5valueIdNS0_7composeINS2_INS2_INS0_5units1mENS2_INS3_2kgENS0_3powINS3_1sELin2ELi1EEEEEEES4_EENS6_IS7_Lin1ELi1EEEEEEgtIdNS0_5scaleINSG_INSG_INSG_ISD_Li1000ELi1EEELi1000ELi1EEELi1000ELi1EEELi1000ELi1EEEEEbRKNS1_IT_T0_EE @1502
    _ZNK4inet5units5valueIdNS0_7composeINS2_INS2_INS0_5units1mENS2_INS3_2kgENS0_3powINS3_1sELin2ELi1EEEEEEES4_EENS6_IS7_Lin1ELi1EEEEEEgtIdNS0_5scaleINSG_INSG_ISD_Li1000ELi1EEELi1000ELi1EEELi1000ELi1EEEEEbRKNS1_IT_T0_EE @1503
    _ZNK4inet5units5valueIdNS0_7composeINS2_INS2_INS0_5units1mENS2_INS3_2kgENS0_3powINS3_1sELin2ELi1EEEEEEES4_EENS6_IS7_Lin1ELi1EEEEEEgtIdNS0_5scaleINSG_ISD_Li1000ELi1EEELi1000ELi1EEEEEbRKNS1_IT_T0_EE @1504
    _ZNK4inet5units5valueIdNS0_7composeINS2_INS2_INS0_5units1mENS2_INS3_2kgENS0_3powINS3_1sELin2ELi1EEEEEEES4_EENS6_IS7_Lin1ELi1EEEEEEgtIdNS0_5scaleISD_Li1000ELi1EEEEEbRKNS1_IT_T0_EE @1505
    _ZNK4inet5units5valueIdNS0_7composeINS2_INS2_INS0_5units1mENS2_INS3_2kgENS0_3powINS3_1sELin2ELi1EEEEEEES4_EENS6_IS7_Lin1ELi1EEEEEEgtIdSD_EEbRKNS1_IT_T0_EE @1506
    _ZNK4inet5units5valueIdNS0_7composeINS2_INS2_INS0_5units1mENS2_INS3_2kgENS0_3powINS3_1sELin2ELi1EEEEEEES4_EENS6_IS7_Lin1ELi1EEEEEEltIdNS0_5scaleINSG_INSG_INSG_ISD_Li1000ELi1EEELi1000ELi1EEELi1000ELi1EEELi1000ELi1EEEEEbRKNS1_IT_T0_EE @1507
    _ZNK4inet5units5valueIdNS0_7composeINS2_INS2_INS0_5units1mENS2_INS3_2kgENS0_3powINS3_1sELin2ELi1EEEEEEES4_EENS6_IS7_Lin1ELi1EEEEEEltIdNS0_5scaleINSG_INSG_ISD_Li1000ELi1EEELi1000ELi1EEELi1000ELi1EEEEEbRKNS1_IT_T0_EE @1508
    _ZNK4inet5units5valueIdNS0_7composeINS2_INS2_INS0_5units1mENS2_INS3_2kgENS0_3powINS3_1sELin2ELi1EEEEEEES4_EENS6_IS7_Lin1ELi1EEEEEEltIdNS0_5scaleINSG_ISD_Li1000ELi1EEELi1000ELi1EEEEEbRKNS1_IT_T0_EE @1509
    _ZNK4inet5units5valueIdNS0_7composeINS2_INS2_INS0_5units1mENS2_INS3_2kgENS0_3powINS3_1sELin2ELi1EEEEEEES4_EENS6_IS7_Lin1ELi1EEEEEEltIdNS0_5scaleISD_Li1000ELi1EEEEEbRKNS1_IT_T0_EE @1510
    _ZNK4inet5units5valueIdNS0_7composeINS2_INS2_INS0_5units1mENS2_INS3_2kgENS0_3powINS3_1sELin2ELi1EEEEEEES4_EENS6_IS7_Lin1ELi1EEEEEEltIdSD_EEbRKNS1_IT_T0_EE @1511
    _ZNK4inet5units5valueIdNS0_7composeINS2_INS2_INS0_5units1mENS2_INS3_2kgENS0_3powINS3_1sELin2ELi1EEEEEEES4_EENS6_IS7_Lin1ELi1EEEEEEmlIdEESE_T_ @1512
    _ZNK4inet5units5valueIdNS0_7composeINS2_INS2_INS0_5units1mENS2_INS3_2kgENS0_3powINS3_1sELin2ELi1EEEEEEES4_EENS6_IS7_Lin1ELi1EEEEEEngEv @1513
    _ZNK4inet5units5valueIdNS0_7composeINS2_INS2_INS2_INS0_5units1mENS2_INS3_2kgENS0_3powINS3_1sELin2ELi1EEEEEEES4_EENS6_IS7_Lin1ELi1EEEEENS6_ISD_Lin1ELi1EEEEEE3getEv @1514
    _ZNK4inet5units5valueIxNS0_5units1bEE3getEv @1515
    _ZNK4inet5units5valueIxNS0_5units1bEEeqIxS3_EEbRKNS1_IT_T0_EE @1516
    _ZNK4inet5units5valueIxNS0_5units1bEEgeIxS3_EEbRKNS1_IT_T0_EE @1517
    _ZNK4inet5units5valueIxNS0_5units1bEEleIxS3_EEbRKNS1_IT_T0_EE @1518
    _ZNK4inet5units5valueIxNS0_5units1bEEmiIxS3_xEENS1_IT1_S3_EERKNS1_IT_T0_EE @1519
    _ZNK4inet5units5valueIxNS0_5units1bEEngEv @1520
    _ZNK4inet5units5valueIxNS0_8intscaleINS0_5units1bELi1ELi8EEEE3getEv @1521
    _ZNK4inet6Packet11peekAtFrontIN5flora12LoRaMacFrameEEEKNS_12IntrusivePtrIKT_EENS_5units5valueIxNS9_5units1bEEEi @1522
    _ZNK4inet6Packet11peekAtFrontIN5flora13LoRaAppPacketEEEKNS_12IntrusivePtrIKT_EENS_5units5valueIxNS9_5units1bEEEi @1523
    _ZNK4inet6Packet11peekAtFrontIN5flora15LoRaPhyPreambleEEEKNS_12IntrusivePtrIKT_EENS_5units5valueIxNS9_5units1bEEEi @1524
    _ZNK4inet6Packet11peekAtFrontINS_11FieldsChunkEEEKNS_12IntrusivePtrIKT_EENS_5units5valueIxNS8_5units1bEEEi @1525
    _ZNK4inet6Packet11peekAtFrontINS_5ChunkEEEKNS_12IntrusivePtrIKT_EENS_5units5valueIxNS8_5units1bEEEi @1526
    _ZNK4inet6Packet13getBackOffsetEv @1527
    _ZNK4inet6Packet13getDataLengthEv @1528
    _ZNK4inet6Packet14getFrontOffsetEv @1529
    _ZNK4inet6Packet14getTotalLengthEv @1530
    _ZNK4inet6Packet6getTagIN5flora7LoRaTagEEEKNS_12IntrusivePtrIKT_EEv @1531
    _ZNK4inet6Packet6getTagINS_14SignalPowerIndEEEKNS_12IntrusivePtrIKT_EEv @1532
    _ZNK4inet6Packet6getTagINS_7SnirIndEEEKNS_12IntrusivePtrIKT_EEv @1533
    _ZNK4inet6Packet7findTagINS_12ErrorRateIndEEEKNS_12IntrusivePtrIKT_EEv @1534
    _ZNK4inet6Packet7findTagINS_14SignalPowerIndEEEKNS_12IntrusivePtrIKT_EEv @1535
    _ZNK4inet6Packet7findTagINS_7SnirIndEEEKNS_12IntrusivePtrIKT_EEv @1536
    _ZNK4inet7TagBase10parsimPackEPN7omnetpp11cCommBufferE @1537
    _ZNK4inet7TagBase12changeRegionENS_5units5valueIxNS1_5units1bEEES5_ @1538
    _ZNK4inet7TagBase9dupSharedEv @1539
    _ZNK4inet9InitStagecviEv @1540
    _ZNK5flora10LoRaMedium18getReceptionResultEPKN4inet13physicallayer6IRadioEPKNS2_10IListeningEPKNS2_13ITransmissionE @1541
    _ZNK5flora10LoRaMedium23matchesMacAddressFilterEPKN4inet13physicallayer6IRadioEPKNS1_6PacketE @1542
    _ZNK5flora11LoRaGWRadio16isReceptionTimerEPKN7omnetpp8cMessageE @1543
    _ZNK5flora11LoRaGWRadio19isTransmissionTimerEPKN7omnetpp8cMessageE @1544
    _ZNK5flora11LoRaOptions10parsimPackEPN7omnetpp11cCommBufferE @1545
    _ZNK5flora11LoRaOptions12getADRACKReqEv @1546
    _ZNK5flora11LoRaOptions12getUseHeaderEv @1547
    _ZNK5flora11LoRaOptions9getLoRaBWEv @1548
    _ZNK5flora11LoRaOptions9getLoRaCFEv @1549
    _ZNK5flora11LoRaOptions9getLoRaCREv @1550
    _ZNK5flora11LoRaOptions9getLoRaSFEv @1551
    _ZNK5flora11LoRaOptions9getLoRaTPEv @1552
    _ZNK5flora12LoRaMacFrame10parsimPackEPN7omnetpp11cCommBufferE @1553
    _ZNK5flora12LoRaMacFrame16getLoRaUseHeaderEv @1554
    _ZNK5flora12LoRaMacFrame17getSequenceNumberEv @1555
    _ZNK5flora12LoRaMacFrame18getReceiverAddressEv @1556
    _ZNK5flora12LoRaMacFrame21getTransmitterAddressEv @1557
    _ZNK5flora12LoRaMacFrame3dupEv @1558
    _ZNK5flora12LoRaMacFrame7getRSSIEv @1559
    _ZNK5flora12LoRaMacFrame7getSNIREv @1560
    _ZNK5flora12LoRaMacFrame9getLoRaBWEv @1561
    _ZNK5flora12LoRaMacFrame9getLoRaCFEv @1562
    _ZNK5flora12LoRaMacFrame9getLoRaCREv @1563
    _ZNK5flora12LoRaMacFrame9getLoRaSFEv @1564
    _ZNK5flora12LoRaMacFrame9getLoRaTPEv @1565
    _ZNK5flora12LoRaReceiver14getSensitivityEPKNS_13LoRaReceptionE @1566
    _ZNK5flora12LoRaReceiver15createListeningEPKN4inet13physicallayer6IRadioEN7omnetpp7SimTimeES7_RKNS1_5CoordESA_ @1567
    _ZNK5flora12LoRaReceiver16getSNIRThresholdEv @1568
    _ZNK5flora12LoRaReceiver16isPacketCollidedEPKN4inet13physicallayer10IReceptionENS2_12IRadioSignal10SignalPartEPKNS2_13IInterferenceE @1569
    _ZNK5flora12LoRaReceiver20getMinReceptionPowerEv @1570
    _ZNK5flora12LoRaReceiver21computeReceivedPacketEPKN4inet13physicallayer5ISnirEb @1571
    _ZNK5flora12LoRaReceiver22computeReceptionResultEPKN4inet13physicallayer10IListeningEPKNS2_10IReceptionEPKNS2_13IInterferenceEPKNS2_5ISnirEPKSt6vectorIPKNS2_18IReceptionDecisionESaISI_EE @1572
    _ZNK5flora12LoRaReceiver23getMinInterferencePowerEv @1573
    _ZNK5flora12LoRaReceiver24computeListeningDecisionEPKN4inet13physicallayer10IListeningEPKNS2_13IInterferenceE @1574
    _ZNK5flora12LoRaReceiver24computeReceptionDecisionEPKN4inet13physicallayer10IListeningEPKNS2_10IReceptionENS2_12IRadioSignal10SignalPartEPKNS2_13IInterferenceEPKNS2_5ISnirE @1575
    _ZNK5flora12LoRaReceiver26computeIsReceptionPossibleEPKN4inet13physicallayer10IListeningEPKNS2_10IReceptionENS2_12IRadioSignal10SignalPartE @1576
    _ZNK5flora12LoRaReceiver26computeIsReceptionPossibleEPKN4inet13physicallayer10IListeningEPKNS2_13ITransmissionE @1577
    _ZNK5flora12LoRaReceiver27computeIsReceptionAttemptedEPKN4inet13physicallayer10IListeningEPKNS2_10IReceptionENS2_12IRadioSignal10SignalPartEPKNS2_13IInterferenceE @1578
    _ZNK5flora12LoRaReceiver28computeIsReceptionSuccessfulEPKN4inet13physicallayer10IListeningEPKNS2_10IReceptionENS2_12IRadioSignal10SignalPartEPKNS2_13IInterferenceEPKNS2_5ISnirE @1579
    _ZNK5flora13LoRaAppPacket10getMsgTypeEv @1580
    _ZNK5flora13LoRaAppPacket10getOptionsEv @1581
    _ZNK5flora13LoRaAppPacket10parsimPackEPN7omnetpp11cCommBufferE @1582
    _ZNK5flora13LoRaAppPacket20getSampleMeasurementEv @1583
    _ZNK5flora13LoRaAppPacket3dupEv @1584
    _ZNK5flora13LoRaReception15computeMinPowerEN7omnetpp7SimTimeES2_ @1585
    _ZNK5flora13LoRaReception8getPowerEv @1586
    _ZNK5flora13LoRaReception9getLoRaBWEv @1587
    _ZNK5flora13LoRaReception9getLoRaCFEv @1588
    _ZNK5flora13LoRaReception9getLoRaSFEv @1589
    _ZNK5flora13SimpleLoRaApp13numInitStagesEv @1590
    _ZNK5flora14LoRaModulation10getbitRateEv @1591
    _ZNK5flora14LoRaModulation11getBandwithEv @1592
    _ZNK5flora14LoRaModulation12calculateBEREdN4inet5units5valueIdNS2_3powINS2_5units1sELin1ELi1EEEEENS3_IdNS2_7composeINS5_1bES7_EEEE @1593
    _ZNK5flora14LoRaModulation12calculateSEREdN4inet5units5valueIdNS2_3powINS2_5units1sELin1ELi1EEEEENS3_IdNS2_7composeINS5_1bES7_EEEE @1594
    _ZNK5flora14LoRaModulation15getSpreadFactorEv @1595
    _ZNK5flora15LoRaAnalogModel11computeSNIREPKN4inet13physicallayer10IReceptionEPKNS2_6INoiseE @1596
    _ZNK5flora15LoRaAnalogModel12computeNoiseEPKN4inet13physicallayer10IListeningEPKNS2_13IInterferenceE @1597
    _ZNK5flora15LoRaAnalogModel13printToStreamERSoii @1598
    _ZNK5flora15LoRaAnalogModel16computeReceptionEPKN4inet13physicallayer6IRadioEPKNS2_13ITransmissionEPKNS2_8IArrivalE @1599
    _ZNK5flora15LoRaAnalogModel21computeReceptionPowerEPKN4inet13physicallayer6IRadioEPKNS2_13ITransmissionEPKNS2_8IArrivalE @1600
    _ZNK5flora15LoRaAnalogModel23getBackgroundNoisePowerEPKNS_17LoRaBandListeningE @1601
    _ZNK5flora15LoRaHataOkumura13printToStreamERSoii @1602
    _ZNK5flora15LoRaHataOkumura15computePathLossEN4inet5units5valueIdNS2_7composeINS2_5units1mENS2_3powINS5_1sELin1ELi1EEEEEEENS3_IdS9_EENS3_IdS6_EE @1603
    _ZNK5flora15LoRaMediumCache11getMaxSpeedEv @1604
    _ZNK5flora15LoRaMediumCache13numInitStagesEv @1605
    _ZNK5flora15LoRaMediumCache13printToStreamERSoii @1606
    _ZNK5flora15LoRaMediumCache15computeMaxRangeEN4inet5units5valueIdNS2_7composeINS4_INS4_INS2_5units1mENS4_INS5_2kgENS2_3powINS5_1sELin2ELi1EEEEEEES6_EENS8_IS9_Lin1ELi1EEEEEEESG_ @1607
    _ZNK5flora15LoRaMediumCache15computeMaxSpeedEv @1608
    _ZNK5flora15LoRaMediumCache17getMaxAntennaGainEv @1609
    _ZNK5flora15LoRaMediumCache20getMaxConstraintAreaEv @1610
    _ZNK5flora15LoRaMediumCache20getMinConstraintAreaEv @1611
    _ZNK5flora15LoRaMediumCache20getMinReceptionPowerEv @1612
    _ZNK5flora15LoRaMediumCache21computeMaxAntennaGainEv @1613
    _ZNK5flora15LoRaMediumCache22getMinInterferenceTimeEv @1614
    _ZNK5flora15LoRaMediumCache23getMaxInterferenceRangeEPKN4inet13physicallayer6IRadioE @1615
    _ZNK5flora15LoRaMediumCache23getMaxInterferenceRangeEv @1616
    _ZNK5flora15LoRaMediumCache23getMaxTransmissionPowerEv @1617
    _ZNK5flora15LoRaMediumCache23getMinInterferencePowerEv @1618
    _ZNK5flora15LoRaMediumCache24computeMinConstraintAreaEv @1619
    _ZNK5flora15LoRaMediumCache24computeMinReceptionPowerEv @1620
    _ZNK5flora15LoRaMediumCache24getMaxCommunicationRangeEPKN4inet13physicallayer6IRadioE @1621
    _ZNK5flora15LoRaMediumCache24getMaxCommunicationRangeEv @1622
    _ZNK5flora15LoRaMediumCache25computeMaxConstreaintAreaEv @1623
    _ZNK5flora15LoRaMediumCache26computeMinInterferenceTimeEv @1624
    _ZNK5flora15LoRaMediumCache26getMaxTransmissionDurationEv @1625
    _ZNK5flora15LoRaMediumCache27computeMaxInterferenceRangeEv @1626
    _ZNK5flora15LoRaMediumCache27computeMaxTransmissionPowerEv @1627
    _ZNK5flora15LoRaMediumCache27computeMinInterferencePowerEv @1628
    _ZNK5flora15LoRaMediumCache30computeMaxTransmissionDurationEv @1629
    _ZNK5flora15LoRaPhyPreamble10parsimPackEPN7omnetpp11cCommBufferE @1630
    _ZNK5flora15LoRaPhyPreamble12getBandwidthEv @1631
    _ZNK5flora15LoRaPhyPreamble12getUseHeaderEv @1632
    _ZNK5flora15LoRaPhyPreamble15getSpreadFactorEv @1633
    _ZNK5flora15LoRaPhyPreamble18getCenterFrequencyEv @1634
    _ZNK5flora15LoRaPhyPreamble18getCodeRendundanceEv @1635
    _ZNK5flora15LoRaPhyPreamble18getReceiverAddressEv @1636
    _ZNK5flora15LoRaPhyPreamble3dupEv @1637
    _ZNK5flora15LoRaPhyPreamble8getPowerEv @1638
    _ZNK5flora15LoRaTransmitter13printToStreamERSoii @1639
    _ZNK5flora15LoRaTransmitter18createTransmissionEPKN4inet13physicallayer6IRadioEPKNS1_6PacketEN7omnetpp7SimTimeE @1640
    _ZNK5flora15PacketForwarder13numInitStagesEv @1641
    _ZNK5flora16LoRaPathLossOulu15computePathLossEN4inet5units5valueIdNS2_7composeINS2_5units1mENS2_3powINS5_1sELin1ELi1EEEEEEENS3_IdS9_EENS3_IdS6_EE @1642
    _ZNK5flora16LoRaTransmission12getBandwidthEv @1643
    _ZNK5flora16LoRaTransmission13printToStreamERSoii @1644
    _ZNK5flora16LoRaTransmission15computeMinPowerEN7omnetpp7SimTimeES2_ @1645
    _ZNK5flora16LoRaTransmission18getCenterFrequencyEv @1646
    _ZNK5flora16LoRaTransmission8getPowerEv @1647
    _ZNK5flora16LoRaTransmission9getLoRaBWEv @1648
    _ZNK5flora16LoRaTransmission9getLoRaCFEv @1649
    _ZNK5flora16LoRaTransmission9getLoRaCREv @1650
    _ZNK5flora16LoRaTransmission9getLoRaSFEv @1651
    _ZNK5flora16NetworkServerApp13numInitStagesEv @1652
    _ZNK5flora17LoRaBandListening13printToStreamERSoii @1653
    _ZNK5flora17LoRaBandListening9getLoRaBWEv @1654
    _ZNK5flora17LoRaBandListening9getLoRaCFEv @1655
    _ZNK5flora17LoRaBandListening9getLoRaSFEv @1656
    _ZNK5flora17LoRaNeighborCache13numInitStagesEv @1657
    _ZNK5flora17LoRaNeighborCache13printToStreamERSoii @1658
    _ZNK5flora17LoRaNeighborCache15sendToNeighborsEPN4inet13physicallayer6IRadioEPKNS2_15IWirelessSignalEd @1659
    _ZNK5flora17LoRaTagDescriptor11doesSupportEPN7omnetpp7cObjectE @1660
    _ZNK5flora17LoRaTagDescriptor11getPropertyEPKc @1661
    _ZNK5flora17LoRaTagDescriptor12getFieldNameEi @1662
    _ZNK5flora17LoRaTagDescriptor13getFieldCountEv @1663
    _ZNK5flora17LoRaTagDescriptor13getFieldValueEN7omnetpp7any_ptrEii @1664
    _ZNK5flora17LoRaTagDescriptor13setFieldValueEN7omnetpp7any_ptrEiiRKNS1_6cValueE @1665
    _ZNK5flora17LoRaTagDescriptor16getFieldPropertyEiPKc @1666
    _ZNK5flora17LoRaTagDescriptor16getPropertyNamesEv @1667
    _ZNK5flora17LoRaTagDescriptor17getFieldArraySizeEN7omnetpp7any_ptrEi @1668
    _ZNK5flora17LoRaTagDescriptor17getFieldTypeFlagsEi @1669
    _ZNK5flora17LoRaTagDescriptor17setFieldArraySizeEN7omnetpp7any_ptrEii @1670
    _ZNK5flora17LoRaTagDescriptor18getFieldStructNameEi @1671
    _ZNK5flora17LoRaTagDescriptor18getFieldTypeStringEi @1672
    _ZNK5flora17LoRaTagDescriptor21getFieldPropertyNamesEi @1673
    _ZNK5flora17LoRaTagDescriptor21getFieldValueAsStringB5cxx11EN7omnetpp7any_ptrEii @1674
    _ZNK5flora17LoRaTagDescriptor21setFieldValueAsStringEN7omnetpp7any_ptrEiiPKc @1675
    _ZNK5flora17LoRaTagDescriptor25getFieldDynamicTypeStringEN7omnetpp7any_ptrEii @1676
    _ZNK5flora17LoRaTagDescriptor26getFieldStructValuePointerEN7omnetpp7any_ptrEii @1677
    _ZNK5flora17LoRaTagDescriptor26setFieldStructValuePointerEN7omnetpp7any_ptrEiiS2_ @1678
    _ZNK5flora17LoRaTagDescriptor9findFieldEPKc @1679
    _ZNK5flora18LoRaEnergyConsumer19getPowerConsumptionEv @1680
    _ZNK5flora18LoRaMacControlInfo10parsimPackEPN7omnetpp11cCommBufferE @1681
    _ZNK5flora18LoRaMacControlInfo16getLoRaUseHeaderEv @1682
    _ZNK5flora18LoRaMacControlInfo6getSrcEv @1683
    _ZNK5flora18LoRaMacControlInfo7getDestEv @1684
    _ZNK5flora18LoRaMacControlInfo9getLoRaBWEv @1685
    _ZNK5flora18LoRaMacControlInfo9getLoRaCFEv @1686
    _ZNK5flora18LoRaMacControlInfo9getLoRaCREv @1687
    _ZNK5flora18LoRaMacControlInfo9getLoRaSFEv @1688
    _ZNK5flora18LoRaMacControlInfo9getLoRaTPEv @1689
    _ZNK5flora21LoRaOptionsDescriptor11doesSupportEPN7omnetpp7cObjectE @1690
    _ZNK5flora21LoRaOptionsDescriptor11getPropertyEPKc @1691
    _ZNK5flora21LoRaOptionsDescriptor12getFieldNameEi @1692
    _ZNK5flora21LoRaOptionsDescriptor13getFieldCountEv @1693
    _ZNK5flora21LoRaOptionsDescriptor13getFieldValueEN7omnetpp7any_ptrEii @1694
    _ZNK5flora21LoRaOptionsDescriptor13setFieldValueEN7omnetpp7any_ptrEiiRKNS1_6cValueE @1695
    _ZNK5flora21LoRaOptionsDescriptor16getFieldPropertyEiPKc @1696
    _ZNK5flora21LoRaOptionsDescriptor16getPropertyNamesEv @1697
    _ZNK5flora21LoRaOptionsDescriptor17getFieldArraySizeEN7omnetpp7any_ptrEi @1698
    _ZNK5flora21LoRaOptionsDescriptor17getFieldTypeFlagsEi @1699
    _ZNK5flora21LoRaOptionsDescriptor17setFieldArraySizeEN7omnetpp7any_ptrEii @1700
    _ZNK5flora21LoRaOptionsDescriptor18getFieldStructNameEi @1701
    _ZNK5flora21LoRaOptionsDescriptor18getFieldTypeStringEi @1702
    _ZNK5flora21LoRaOptionsDescriptor21getFieldPropertyNamesEi @1703
    _ZNK5flora21LoRaOptionsDescriptor21getFieldValueAsStringB5cxx11EN7omnetpp7any_ptrEii @1704
    _ZNK5flora21LoRaOptionsDescriptor21setFieldValueAsStringEN7omnetpp7any_ptrEiiPKc @1705
    _ZNK5flora21LoRaOptionsDescriptor25getFieldDynamicTypeStringEN7omnetpp7any_ptrEii @1706
    _ZNK5flora21LoRaOptionsDescriptor26getFieldStructValuePointerEN7omnetpp7any_ptrEii @1707
    _ZNK5flora21LoRaOptionsDescriptor26setFieldStructValuePointerEN7omnetpp7any_ptrEiiS2_ @1708
    _ZNK5flora21LoRaOptionsDescriptor9findFieldEPKc @1709
    _ZNK5flora22LoRaLogNormalShadowing12computeRangeEN4inet5units5valueIdNS2_7composeINS4_INS4_INS2_5units1mENS4_INS5_2kgENS2_3powINS5_1sELin2ELi1EEEEEEES6_EENS8_IS9_Lin1ELi1EEEEEEE @1710
    _ZNK5flora22LoRaLogNormalShadowing13printToStreamERSoii @1711
    _ZNK5flora22LoRaLogNormalShadowing15computePathLossEN4inet5units5valueIdNS2_7composeINS2_5units1mENS2_3powINS5_1sELin1ELi1EEEEEEENS3_IdS9_EENS3_IdS6_EE @1712
    _ZNK5flora22LoRaMacFrameDescriptor11doesSupportEPN7omnetpp7cObjectE @1713
    _ZNK5flora22LoRaMacFrameDescriptor11getPropertyEPKc @1714
    _ZNK5flora22LoRaMacFrameDescriptor12getFieldNameEi @1715
    _ZNK5flora22LoRaMacFrameDescriptor13getFieldCountEv @1716
    _ZNK5flora22LoRaMacFrameDescriptor13getFieldValueEN7omnetpp7any_ptrEii @1717
    _ZNK5flora22LoRaMacFrameDescriptor13setFieldValueEN7omnetpp7any_ptrEiiRKNS1_6cValueE @1718
    _ZNK5flora22LoRaMacFrameDescriptor16getFieldPropertyEiPKc @1719
    _ZNK5flora22LoRaMacFrameDescriptor16getPropertyNamesEv @1720
    _ZNK5flora22LoRaMacFrameDescriptor17getFieldArraySizeEN7omnetpp7any_ptrEi @1721
    _ZNK5flora22LoRaMacFrameDescriptor17getFieldTypeFlagsEi @1722
    _ZNK5flora22LoRaMacFrameDescriptor17setFieldArraySizeEN7omnetpp7any_ptrEii @1723
    _ZNK5flora22LoRaMacFrameDescriptor18getFieldStructNameEi @1724
    _ZNK5flora22LoRaMacFrameDescriptor18getFieldTypeStringEi @1725
    _ZNK5flora22LoRaMacFrameDescriptor21getFieldPropertyNamesEi @1726
    _ZNK5flora22LoRaMacFrameDescriptor21getFieldValueAsStringB5cxx11EN7omnetpp7any_ptrEii @1727
    _ZNK5flora22LoRaMacFrameDescriptor21setFieldValueAsStringEN7omnetpp7any_ptrEiiPKc @1728
    _ZNK5flora22LoRaMacFrameDescriptor25getFieldDynamicTypeStringEN7omnetpp7any_ptrEii @1729
    _ZNK5flora22LoRaMacFrameDescriptor26getFieldStructValuePointerEN7omnetpp7any_ptrEii @1730
    _ZNK5flora22LoRaMacFrameDescriptor26setFieldStructValuePointerEN7omnetpp7any_ptrEiiS2_ @1731
    _ZNK5flora22LoRaMacFrameDescriptor9findFieldEPKc @1732
    _ZNK5flora23LoRaAppPacketDescriptor11doesSupportEPN7omnetpp7cObjectE @1733
    _ZNK5flora23LoRaAppPacketDescriptor11getPropertyEPKc @1734
    _ZNK5flora23LoRaAppPacketDescriptor12getFieldNameEi @1735
    _ZNK5flora23LoRaAppPacketDescriptor13getFieldCountEv @1736
    _ZNK5flora23LoRaAppPacketDescriptor13getFieldValueEN7omnetpp7any_ptrEii @1737
    _ZNK5flora23LoRaAppPacketDescriptor13setFieldValueEN7omnetpp7any_ptrEiiRKNS1_6cValueE @1738
    _ZNK5flora23LoRaAppPacketDescriptor16getFieldPropertyEiPKc @1739
    _ZNK5flora23LoRaAppPacketDescriptor16getPropertyNamesEv @1740
    _ZNK5flora23LoRaAppPacketDescriptor17getFieldArraySizeEN7omnetpp7any_ptrEi @1741
    _ZNK5flora23LoRaAppPacketDescriptor17getFieldTypeFlagsEi @1742
    _ZNK5flora23LoRaAppPacketDescriptor17setFieldArraySizeEN7omnetpp7any_ptrEii @1743
    _ZNK5flora23LoRaAppPacketDescriptor18getFieldStructNameEi @1744
    _ZNK5flora23LoRaAppPacketDescriptor18getFieldTypeStringEi @1745
    _ZNK5flora23LoRaAppPacketDescriptor21getFieldPropertyNamesEi @1746
    _ZNK5flora23LoRaAppPacketDescriptor21getFieldValueAsStringB5cxx11EN7omnetpp7any_ptrEii @1747
    _ZNK5flora23LoRaAppPacketDescriptor21setFieldValueAsStringEN7omnetpp7any_ptrEiiPKc @1748
    _ZNK5flora23LoRaAppPacketDescriptor25getFieldDynamicTypeStringEN7omnetpp7any_ptrEii @1749
    _ZNK5flora23LoRaAppPacketDescriptor26getFieldStructValuePointerEN7omnetpp7any_ptrEii @1750
    _ZNK5flora23LoRaAppPacketDescriptor26setFieldStructValuePointerEN7omnetpp7any_ptrEiiS2_ @1751
    _ZNK5flora23LoRaAppPacketDescriptor9findFieldEPKc @1752
    _ZNK5flora23LoRaReceptionIndication10getMinRSSIEv @1753
    _ZNK5flora23LoRaReceptionIndication10getMinSNIREv @1754
    _ZNK5flora23LoRaReceptionIndication10parsimPackEPN7omnetpp11cCommBufferE @1755
    _ZNK5flora23LoRaReceptionIndication9getLoRaBWEv @1756
    _ZNK5flora23LoRaReceptionIndication9getLoRaCFEv @1757
    _ZNK5flora23LoRaReceptionIndication9getLoRaCREv @1758
    _ZNK5flora23LoRaReceptionIndication9getLoRaSFEv @1759
    _ZNK5flora23LoRaReceptionIndication9getLoRaTPEv @1760
    _ZNK5flora23LoRaTransmissionRequest10getBitrateEv @1761
    _ZNK5flora23LoRaTransmissionRequest10parsimPackEPN7omnetpp11cCommBufferE @1762
    _ZNK5flora23LoRaTransmissionRequest12getBandwidthEv @1763
    _ZNK5flora23LoRaTransmissionRequest19getCarrierFrequencyEv @1764
    _ZNK5flora23LoRaTransmissionRequest8getPowerEv @1765
    _ZNK5flora25LoRaConfigureRadioCommand10getBitrateEv @1766
    _ZNK5flora25LoRaConfigureRadioCommand10parsimPackEPN7omnetpp11cCommBufferE @1767
    _ZNK5flora25LoRaConfigureRadioCommand12getBandwidthEv @1768
    _ZNK5flora25LoRaConfigureRadioCommand12getRadioModeEv @1769
    _ZNK5flora25LoRaConfigureRadioCommand19getCarrierFrequencyEv @1770
    _ZNK5flora25LoRaConfigureRadioCommand8getPowerEv @1771
    _ZNK5flora25LoRaPhyPreambleDescriptor11doesSupportEPN7omnetpp7cObjectE @1772
    _ZNK5flora25LoRaPhyPreambleDescriptor11getPropertyEPKc @1773
    _ZNK5flora25LoRaPhyPreambleDescriptor12getFieldNameEi @1774
    _ZNK5flora25LoRaPhyPreambleDescriptor13getFieldCountEv @1775
    _ZNK5flora25LoRaPhyPreambleDescriptor13getFieldValueEN7omnetpp7any_ptrEii @1776
    _ZNK5flora25LoRaPhyPreambleDescriptor13setFieldValueEN7omnetpp7any_ptrEiiRKNS1_6cValueE @1777
    _ZNK5flora25LoRaPhyPreambleDescriptor16getFieldPropertyEiPKc @1778
    _ZNK5flora25LoRaPhyPreambleDescriptor16getPropertyNamesEv @1779
    _ZNK5flora25LoRaPhyPreambleDescriptor17getFieldArraySizeEN7omnetpp7any_ptrEi @1780
    _ZNK5flora25LoRaPhyPreambleDescriptor17getFieldTypeFlagsEi @1781
    _ZNK5flora25LoRaPhyPreambleDescriptor17setFieldArraySizeEN7omnetpp7any_ptrEii @1782
    _ZNK5flora25LoRaPhyPreambleDescriptor18getFieldStructNameEi @1783
    _ZNK5flora25LoRaPhyPreambleDescriptor18getFieldTypeStringEi @1784
    _ZNK5flora25LoRaPhyPreambleDescriptor21getFieldPropertyNamesEi @1785
    _ZNK5flora25LoRaPhyPreambleDescriptor21getFieldValueAsStringB5cxx11EN7omnetpp7any_ptrEii @1786
    _ZNK5flora25LoRaPhyPreambleDescriptor21setFieldValueAsStringEN7omnetpp7any_ptrEiiPKc @1787
    _ZNK5flora25LoRaPhyPreambleDescriptor25getFieldDynamicTypeStringEN7omnetpp7any_ptrEii @1788
    _ZNK5flora25LoRaPhyPreambleDescriptor26getFieldStructValuePointerEN7omnetpp7any_ptrEii @1789
    _ZNK5flora25LoRaPhyPreambleDescriptor26setFieldStructValuePointerEN7omnetpp7any_ptrEiiS2_ @1790
    _ZNK5flora25LoRaPhyPreambleDescriptor9findFieldEPKc @1791
    _ZNK5flora28LoRaMacControlInfoDescriptor11doesSupportEPN7omnetpp7cObjectE @1792
    _ZNK5flora28LoRaMacControlInfoDescriptor11getPropertyEPKc @1793
    _ZNK5flora28LoRaMacControlInfoDescriptor12getFieldNameEi @1794
    _ZNK5flora28LoRaMacControlInfoDescriptor13getFieldCountEv @1795
    _ZNK5flora28LoRaMacControlInfoDescriptor13getFieldValueEN7omnetpp7any_ptrEii @1796
    _ZNK5flora28LoRaMacControlInfoDescriptor13setFieldValueEN7omnetpp7any_ptrEiiRKNS1_6cValueE @1797
    _ZNK5flora28LoRaMacControlInfoDescriptor16getFieldPropertyEiPKc @1798
    _ZNK5flora28LoRaMacControlInfoDescriptor16getPropertyNamesEv @1799
    _ZNK5flora28LoRaMacControlInfoDescriptor17getFieldArraySizeEN7omnetpp7any_ptrEi @1800
    _ZNK5flora28LoRaMacControlInfoDescriptor17getFieldTypeFlagsEi @1801
    _ZNK5flora28LoRaMacControlInfoDescriptor17setFieldArraySizeEN7omnetpp7any_ptrEii @1802
    _ZNK5flora28LoRaMacControlInfoDescriptor18getFieldStructNameEi @1803
    _ZNK5flora28LoRaMacControlInfoDescriptor18getFieldTypeStringEi @1804
    _ZNK5flora28LoRaMacControlInfoDescriptor21getFieldPropertyNamesEi @1805
    _ZNK5flora28LoRaMacControlInfoDescriptor21getFieldValueAsStringB5cxx11EN7omnetpp7any_ptrEii @1806
    _ZNK5flora28LoRaMacControlInfoDescriptor21setFieldValueAsStringEN7omnetpp7any_ptrEiiPKc @1807
    _ZNK5flora28LoRaMacControlInfoDescriptor25getFieldDynamicTypeStringEN7omnetpp7any_ptrEii @1808
    _ZNK5flora28LoRaMacControlInfoDescriptor26getFieldStructValuePointerEN7omnetpp7any_ptrEii @1809
    _ZNK5flora28LoRaMacControlInfoDescriptor26setFieldStructValuePointerEN7omnetpp7any_ptrEiiS2_ @1810
    _ZNK5flora28LoRaMacControlInfoDescriptor9findFieldEPKc @1811
    _ZNK5flora33LoRaReceptionIndicationDescriptor11doesSupportEPN7omnetpp7cObjectE @1812
    _ZNK5flora33LoRaReceptionIndicationDescriptor11getPropertyEPKc @1813
    _ZNK5flora33LoRaReceptionIndicationDescriptor12getFieldNameEi @1814
    _ZNK5flora33LoRaReceptionIndicationDescriptor13getFieldCountEv @1815
    _ZNK5flora33LoRaReceptionIndicationDescriptor13getFieldValueEN7omnetpp7any_ptrEii @1816
    _ZNK5flora33LoRaReceptionIndicationDescriptor13setFieldValueEN7omnetpp7any_ptrEiiRKNS1_6cValueE @1817
    _ZNK5flora33LoRaReceptionIndicationDescriptor16getFieldPropertyEiPKc @1818
    _ZNK5flora33LoRaReceptionIndicationDescriptor16getPropertyNamesEv @1819
    _ZNK5flora33LoRaReceptionIndicationDescriptor17getFieldArraySizeEN7omnetpp7any_ptrEi @1820
    _ZNK5flora33LoRaReceptionIndicationDescriptor17getFieldTypeFlagsEi @1821
    _ZNK5flora33LoRaReceptionIndicationDescriptor17setFieldArraySizeEN7omnetpp7any_ptrEii @1822
    _ZNK5flora33LoRaReceptionIndicationDescriptor18getFieldStructNameEi @1823
    _ZNK5flora33LoRaReceptionIndicationDescriptor18getFieldTypeStringEi @1824
    _ZNK5flora33LoRaReceptionIndicationDescriptor21getFieldPropertyNamesEi @1825
    _ZNK5flora33LoRaReceptionIndicationDescriptor21getFieldValueAsStringB5cxx11EN7omnetpp7any_ptrEii @1826
    _ZNK5flora33LoRaReceptionIndicationDescriptor21setFieldValueAsStringEN7omnetpp7any_ptrEiiPKc @1827
    _ZNK5flora33LoRaReceptionIndicationDescriptor25getFieldDynamicTypeStringEN7omnetpp7any_ptrEii @1828
    _ZNK5flora33LoRaReceptionIndicationDescriptor26getFieldStructValuePointerEN7omnetpp7any_ptrEii @1829
    _ZNK5flora33LoRaReceptionIndicationDescriptor26setFieldStructValuePointerEN7omnetpp7any_ptrEiiS2_ @1830
    _ZNK5flora33LoRaReceptionIndicationDescriptor9findFieldEPKc @1831
    _ZNK5flora33LoRaTransmissionRequestDescriptor11doesSupportEPN7omnetpp7cObjectE @1832
    _ZNK5flora33LoRaTransmissionRequestDescriptor11getPropertyEPKc @1833
    _ZNK5flora33LoRaTransmissionRequestDescriptor12getFieldNameEi @1834
    _ZNK5flora33LoRaTransmissionRequestDescriptor13getFieldCountEv @1835
    _ZNK5flora33LoRaTransmissionRequestDescriptor13getFieldValueEN7omnetpp7any_ptrEii @1836
    _ZNK5flora33LoRaTransmissionRequestDescriptor13setFieldValueEN7omnetpp7any_ptrEiiRKNS1_6cValueE @1837
    _ZNK5flora33LoRaTransmissionRequestDescriptor16getFieldPropertyEiPKc @1838
    _ZNK5flora33LoRaTransmissionRequestDescriptor16getPropertyNamesEv @1839
    _ZNK5flora33LoRaTransmissionRequestDescriptor17getFieldArraySizeEN7omnetpp7any_ptrEi @1840
    _ZNK5flora33LoRaTransmissionRequestDescriptor17getFieldTypeFlagsEi @1841
    _ZNK5flora33LoRaTransmissionRequestDescriptor17setFieldArraySizeEN7omnetpp7any_ptrEii @1842
    _ZNK5flora33LoRaTransmissionRequestDescriptor18getFieldStructNameEi @1843
    _ZNK5flora33LoRaTransmissionRequestDescriptor18getFieldTypeStringEi @1844
    _ZNK5flora33LoRaTransmissionRequestDescriptor21getFieldPropertyNamesEi @1845
    _ZNK5flora33LoRaTransmissionRequestDescriptor21getFieldValueAsStringB5cxx11EN7omnetpp7any_ptrEii @1846
    _ZNK5flora33LoRaTransmissionRequestDescriptor21setFieldValueAsStringEN7omnetpp7any_ptrEiiPKc @1847
    _ZNK5flora33LoRaTransmissionRequestDescriptor25getFieldDynamicTypeStringEN7omnetpp7any_ptrEii @1848
    _ZNK5flora33LoRaTransmissionRequestDescriptor26getFieldStructValuePointerEN7omnetpp7any_ptrEii @1849
    _ZNK5flora33LoRaTransmissionRequestDescriptor26setFieldStructValuePointerEN7omnetpp7any_ptrEiiS2_ @1850
    _ZNK5flora33LoRaTransmissionRequestDescriptor9findFieldEPKc @1851
    _ZNK5flora35LoRaConfigureRadioCommandDescriptor11doesSupportEPN7omnetpp7cObjectE @1852
    _ZNK5flora35LoRaConfigureRadioCommandDescriptor11getPropertyEPKc @1853
    _ZNK5flora35LoRaConfigureRadioCommandDescriptor12getFieldNameEi @1854
    _ZNK5flora35LoRaConfigureRadioCommandDescriptor13getFieldCountEv @1855
    _ZNK5flora35LoRaConfigureRadioCommandDescriptor13getFieldValueEN7omnetpp7any_ptrEii @1856
    _ZNK5flora35LoRaConfigureRadioCommandDescriptor13setFieldValueEN7omnetpp7any_ptrEiiRKNS1_6cValueE @1857
    _ZNK5flora35LoRaConfigureRadioCommandDescriptor16getFieldPropertyEiPKc @1858
    _ZNK5flora35LoRaConfigureRadioCommandDescriptor16getPropertyNamesEv @1859
    _ZNK5flora35LoRaConfigureRadioCommandDescriptor17getFieldArraySizeEN7omnetpp7any_ptrEi @1860
    _ZNK5flora35LoRaConfigureRadioCommandDescriptor17getFieldTypeFlagsEi @1861
    _ZNK5flora35LoRaConfigureRadioCommandDescriptor17setFieldArraySizeEN7omnetpp7any_ptrEii @1862
    _ZNK5flora35LoRaConfigureRadioCommandDescriptor18getFieldStructNameEi @1863
    _ZNK5flora35LoRaConfigureRadioCommandDescriptor18getFieldTypeStringEi @1864
    _ZNK5flora35LoRaConfigureRadioCommandDescriptor21getFieldPropertyNamesEi @1865
    _ZNK5flora35LoRaConfigureRadioCommandDescriptor21getFieldValueAsStringB5cxx11EN7omnetpp7any_ptrEii @1866
    _ZNK5flora35LoRaConfigureRadioCommandDescriptor21setFieldValueAsStringEN7omnetpp7any_ptrEiiPKc @1867
    _ZNK5flora35LoRaConfigureRadioCommandDescriptor25getFieldDynamicTypeStringEN7omnetpp7any_ptrEii @1868
    _ZNK5flora35LoRaConfigureRadioCommandDescriptor26getFieldStructValuePointerEN7omnetpp7any_ptrEii @1869
    _ZNK5flora35LoRaConfigureRadioCommandDescriptor26setFieldStructValuePointerEN7omnetpp7any_ptrEiiS2_ @1870
    _ZNK5flora35LoRaConfigureRadioCommandDescriptor9findFieldEPKc @1871
    _ZNK5flora7LoRaTag10parsimPackEPN7omnetpp11cCommBufferE @1872
    _ZNK5flora7LoRaTag12getBandwidthEv @1873
    _ZNK5flora7LoRaTag12getUseHeaderEv @1874
    _ZNK5flora7LoRaTag15getSpreadFactorEv @1875
    _ZNK5flora7LoRaTag18getCenterFrequencyEv @1876
    _ZNK5flora7LoRaTag18getCodeRendundanceEv @1877
    _ZNK5flora7LoRaTag3dupEv @1878
    _ZNK5flora7LoRaTag8getPowerEv @1879
    _ZNK5flora9LoRaRadio10getAntennaEv @1880
    _ZNK5flora9LoRaRadio11decapsulateEPN4inet6PacketE @1881
    _ZNK5flora9LoRaRadio11getReceiverEv @1882
    _ZNK5flora9LoRaRadio12createSignalEPN4inet6PacketE @1883
    _ZNK5flora9LoRaRadio12getRadioGateEv @1884
    _ZNK5flora9LoRaRadio12getRadioModeEv @1885
    _ZNK5flora9LoRaRadio13printToStreamERSoii @1886
    _ZNK5flora9LoRaRadio14getTransmitterEv @1887
    _ZNK5flora9LoRaRadio17getReceptionStateEv @1888
    _ZNK5flora9LoRaRadio20getTransmissionStateEv @1889
    _ZNK5flora9LoRaRadio21getReceivedSignalPartEv @1890
    _ZNK5flora9LoRaRadio22getReceptionInProgressEv @1891
    _ZNK5flora9LoRaRadio24getTransmittedSignalPartEv @1892
    _ZNK5flora9LoRaRadio25getTransmissionInProgressEv @1893
    _ZNK5flora9LoRaRadio5getIdEv @1894
    _ZNK5flora9LoRaRadio9getMediumEv @1895
    _ZNK7omnetpp10cComponent10chi_squareEji @1896
    _ZNK7omnetpp10cComponent10getThisPtrEv @1897
    _ZNK7omnetpp10cComponent10intuniformEiii @1898
    _ZNK7omnetpp10cComponent11exponentialENS_7SimTimeEi @1899
    _ZNK7omnetpp10cComponent11exponentialEdi @1900
    _ZNK7omnetpp10cComponent11initializedEv @1901
    _ZNK7omnetpp10cComponent11negbinomialEidi @1902
    _ZNK7omnetpp10cComponent11truncnormalENS_7SimTimeES1_i @1903
    _ZNK7omnetpp10cComponent11truncnormalEddi @1904
    _ZNK7omnetpp10cComponent12getNumParamsEv @1905
    _ZNK7omnetpp10cComponent13getSimulationEv @1906
    _ZNK7omnetpp10cComponent13numInitStagesEv @1907
    _ZNK7omnetpp10cComponent14getDisplayNameEv @1908
    _ZNK7omnetpp10cComponent14intuniformexclEiii @1909
    _ZNK7omnetpp10cComponent14pareto_shiftedEdddi @1910
    _ZNK7omnetpp10cComponent3parEPKc @1911
    _ZNK7omnetpp10cComponent4betaEddi @1912
    _ZNK7omnetpp10cComponent6cauchyEddi @1913
    _ZNK7omnetpp10cComponent6normalENS_7SimTimeES1_i @1914
    _ZNK7omnetpp10cComponent6normalEddi @1915
    _ZNK7omnetpp10cComponent6triangEdddi @1916
    _ZNK7omnetpp10cComponent7dblrandEi @1917
    _ZNK7omnetpp10cComponent7gamma_dEddi @1918
    _ZNK7omnetpp10cComponent7intrandEji @1919
    _ZNK7omnetpp10cComponent7poissonEdi @1920
    _ZNK7omnetpp10cComponent7uniformENS_7SimTimeES1_i @1921
    _ZNK7omnetpp10cComponent7uniformEddi @1922
    _ZNK7omnetpp10cComponent7weibullEddi @1923
    _ZNK7omnetpp10cComponent8binomialEidi @1924
    _ZNK7omnetpp10cComponent8erlang_kEjdi @1925
    _ZNK7omnetpp10cComponent9bernoulliEdi @1926
    _ZNK7omnetpp10cComponent9geometricEdi @1927
    _ZNK7omnetpp10cComponent9lognormalEddi @1928
    _ZNK7omnetpp10cComponent9student_tEji @1929
    _ZNK7omnetpp10cIListener17getSubscribeCountEv @1930
    _ZNK7omnetpp10cSoftOwner11isSoftOwnerEv @1931
    _ZNK7omnetpp11cSimulation10getSimTimeEv @1932
    _ZNK7omnetpp11cSimulation15getSystemModuleEv @1933
    _ZNK7omnetpp11cSimulation15getWarmupPeriodEv @1934
    _ZNK7omnetpp12cNamedObject7getNameEv @1935
    _ZNK7omnetpp12cOwnedObject13isOwnedObjectEv @1936
    _ZNK7omnetpp12cOwnedObject8getOwnerEv @1937
    _ZNK7omnetpp16opp_pooledstring5c_strEv @1938
    _ZNK7omnetpp17opp_component_ptrIN4inet13physicallayer12IRadioMediumEE11getNullableEv @1939
    _ZNK7omnetpp17opp_component_ptrIN4inet13physicallayer12IRadioMediumEE3getEv @1940
    _ZNK7omnetpp17opp_component_ptrIN4inet13physicallayer12IRadioMediumEE9checkNullEv @1941
    _ZNK7omnetpp17opp_component_ptrIN4inet13physicallayer12IRadioMediumEEcvPS3_Ev @1942
    _ZNK7omnetpp17opp_component_ptrIN4inet13physicallayer6IRadioEE9checkNullEv @1943
    _ZNK7omnetpp17opp_component_ptrIN4inet13physicallayer6IRadioEEptEv @1944
    _ZNK7omnetpp17opp_component_ptrIN4inet16NetworkInterfaceEE9checkNullEv @1945
    _ZNK7omnetpp17opp_component_ptrIN4inet16NetworkInterfaceEEptEv @1946
    _ZNK7omnetpp17opp_component_ptrIN4inet5power15IEpEnergySourceEE11getNullableEv @1947
    _ZNK7omnetpp17opp_component_ptrIN4inet5power15IEpEnergySourceEEcvPS3_Ev @1948
    _ZNK7omnetpp17opp_component_ptrIN4inet8queueing12IPacketQueueEE3getEv @1949
    _ZNK7omnetpp17opp_component_ptrIN4inet8queueing12IPacketQueueEE9checkNullEv @1950
    _ZNK7omnetpp17opp_component_ptrIN4inet8queueing12IPacketQueueEEptEv @1951
    _ZNK7omnetpp21cGenericReadonlyWatchIN4inet5CoordEE12getClassNameEv @1952
    _ZNK7omnetpp21cGenericReadonlyWatchIN4inet5CoordEE18supportsAssignmentEv @1953
    _ZNK7omnetpp21cGenericReadonlyWatchIN4inet5CoordEE3strB5cxx11Ev @1954
    _ZNK7omnetpp21cGenericReadonlyWatchIN4inet5units5valueIdNS2_5units1mEEEE12getClassNameEv @1955
    _ZNK7omnetpp21cGenericReadonlyWatchIN4inet5units5valueIdNS2_5units1mEEEE18supportsAssignmentEv @1956
    _ZNK7omnetpp21cGenericReadonlyWatchIN4inet5units5valueIdNS2_5units1mEEEE3strB5cxx11Ev @1957
    _ZNK7omnetpp21cGenericReadonlyWatchIN4inet5units5valueIdNS2_7composeINS2_5units1mENS2_3powINS5_1sELin1ELi1EEEEEEEE12getClassNameEv @1958
    _ZNK7omnetpp21cGenericReadonlyWatchIN4inet5units5valueIdNS2_7composeINS2_5units1mENS2_3powINS5_1sELin1ELi1EEEEEEEE18supportsAssignmentEv @1959
    _ZNK7omnetpp21cGenericReadonlyWatchIN4inet5units5valueIdNS2_7composeINS2_5units1mENS2_3powINS5_1sELin1ELi1EEEEEEEE3strB5cxx11Ev @1960
    _ZNK7omnetpp21cGenericReadonlyWatchIN4inet5units5valueIdNS2_7composeINS4_INS4_INS2_5units1mENS4_INS5_2kgENS2_3powINS5_1sELin2ELi1EEEEEEES6_EENS8_IS9_Lin1ELi1EEEEEEEE12getClassNameEv @1961
    _ZNK7omnetpp21cGenericReadonlyWatchIN4inet5units5valueIdNS2_7composeINS4_INS4_INS2_5units1mENS4_INS5_2kgENS2_3powINS5_1sELin2ELi1EEEEEEES6_EENS8_IS9_Lin1ELi1EEEEEEEE18supportsAssignmentEv @1962
    _ZNK7omnetpp21cGenericReadonlyWatchIN4inet5units5valueIdNS2_7composeINS4_INS4_INS2_5units1mENS4_INS5_2kgENS2_3powINS5_1sELin2ELi1EEEEEEES6_EENS8_IS9_Lin1ELi1EEEEEEEE3strB5cxx11Ev @1963
    _ZNK7omnetpp21cGenericReadonlyWatchINS_4cFSMEE12getClassNameEv @1964
    _ZNK7omnetpp21cGenericReadonlyWatchINS_4cFSMEE18supportsAssignmentEv @1965
    _ZNK7omnetpp21cGenericReadonlyWatchINS_4cFSMEE3strB5cxx11Ev @1966
    _ZNK7omnetpp21cGenericReadonlyWatchINS_7SimTimeEE12getClassNameEv @1967
    _ZNK7omnetpp21cGenericReadonlyWatchINS_7SimTimeEE18supportsAssignmentEv @1968
    _ZNK7omnetpp21cGenericReadonlyWatchINS_7SimTimeEE3strB5cxx11Ev @1969
    _ZNK7omnetpp23cGenericAssignableWatchIdE12getClassNameEv @1970
    _ZNK7omnetpp23cGenericAssignableWatchIdE18supportsAssignmentEv @1971
    _ZNK7omnetpp23cGenericAssignableWatchIdE3strB5cxx11Ev @1972
    _ZNK7omnetpp23cGenericAssignableWatchIiE12getClassNameEv @1973
    _ZNK7omnetpp23cGenericAssignableWatchIiE18supportsAssignmentEv @1974
    _ZNK7omnetpp23cGenericAssignableWatchIiE3strB5cxx11Ev @1975
    _ZNK7omnetpp23cGenericAssignableWatchIlE12getClassNameEv @1976
    _ZNK7omnetpp23cGenericAssignableWatchIlE18supportsAssignmentEv @1977
    _ZNK7omnetpp23cGenericAssignableWatchIlE3strB5cxx11Ev @1978
    _ZNK7omnetpp23cNoncopyableOwnedObject10parsimPackEPNS_11cCommBufferE @1979
    _ZNK7omnetpp4cFSM12getStateNameEv @1980
    _ZNK7omnetpp4cFSM8getStateEv @1981
    _ZNK7omnetpp4cParcvPKcEv @1982
    _ZNK7omnetpp4cParcvbEv @1983
    _ZNK7omnetpp4cParcvdEv @1984
    _ZNK7omnetpp4cParcviEv @1985
    _ZNK7omnetpp4cParcvxEv @1986
    _ZNK7omnetpp6cEvent11isScheduledEv @1987
    _ZNK7omnetpp6cValue10assertTypeENS0_4TypeE @1988
    _ZNK7omnetpp6cValue9boolValueEv @1989
    _ZNK7omnetpp7SimTime3dblEv @1990
    _ZNK7omnetpp7SimTime3rawEv @1991
    _ZNK7omnetpp7SimTimeeqERKS0_ @1992
    _ZNK7omnetpp7SimTimegeERKS0_ @1993
    _ZNK7omnetpp7SimTimegtERKS0_ @1994
    _ZNK7omnetpp7SimTimeleERKS0_ @1995
    _ZNK7omnetpp7SimTimeltERKS0_ @1996
    _ZNK7omnetpp7SimTimengEv @1997
    _ZNK7omnetpp7cModule13isPlaceholderEv @1998
    _ZNK7omnetpp7cModule15getParentModuleEv @1999
    _ZNK7omnetpp7cModule16getComponentKindEv @2000
    _ZNK7omnetpp7cModule27getBuiltinAnimationsAllowedEv @2001
    _ZNK7omnetpp7cObject11getFullNameEv @2002
    _ZNK7omnetpp7cObject11isSoftOwnerEv @2003
    _ZNK7omnetpp7cObject13isOwnedObjectEv @2004
    _ZNK7omnetpp7cObject7getNameEv @2005
    _ZNK7omnetpp7cObject8getOwnerEv @2006
    _ZNK7omnetpp8cMessage13isSelfMessageEv @2007
    _ZNK7omnetpp8cMessage14getControlInfoEv @2008
    _ZNK7omnetpp8cMessage16getArrivalGateIdEv @2009
    _ZNK7omnetpp8cMessage17getContextPointerEv @2010
    _ZNK7omnetpp8cMessage18getArrivalModuleIdEv @2011
    _ZNK7omnetpp8cMessage7getKindEv @2012
    _ZNK9__gnu_cxx16__aligned_bufferIPPvE6_M_ptrEv @2013
    _ZNK9__gnu_cxx16__aligned_bufferIPPvE7_M_addrEv @2014
    _ZNK9__gnu_cxx16__aligned_membufISt4pairIKN7omnetpp7SimTimeEN4inet5units5valueIdNS6_7composeINS8_INS8_INS6_5units1mENS8_INS9_2kgENS6_3powINS9_1sELin2ELi1EEEEEEESA_EENSC_ISD_Lin1ELi1EEEEEEEEE6_M_ptrEv @2015
    _ZNK9__gnu_cxx16__aligned_membufISt4pairIKN7omnetpp7SimTimeEN4inet5units5valueIdNS6_7composeINS8_INS8_INS6_5units1mENS8_INS9_2kgENS6_3powINS9_1sELin2ELi1EEEEEEESA_EENSC_ISD_Lin1ELi1EEEEEEEEE7_M_addrEv @2016
    _ZNK9__gnu_cxx16__aligned_membufISt4pairIKPKN4inet13physicallayer6IRadioEPN5flora17LoRaNeighborCache10RadioEntryEEE6_M_ptrEv @2017
    _ZNK9__gnu_cxx16__aligned_membufISt4pairIKPKN4inet13physicallayer6IRadioEPN5flora17LoRaNeighborCache10RadioEntryEEE7_M_addrEv @2018
    _ZNK9__gnu_cxx16__aligned_membufISt4pairIKddEE6_M_ptrEv @2019
    _ZNK9__gnu_cxx16__aligned_membufISt4pairIKddEE7_M_addrEv @2020
    _ZNK9__gnu_cxx16__aligned_membufISt4pairIKiiEE6_M_ptrEv @2021
    _ZNK9__gnu_cxx16__aligned_membufISt4pairIKiiEE7_M_addrEv @2022
    _ZNK9__gnu_cxx16__aligned_membufIdE6_M_ptrEv @2023
    _ZNK9__gnu_cxx16__aligned_membufIdE7_M_addrEv @2024
    _ZNK9__gnu_cxx17__normal_iteratorIPKN5flora14receivedPacketESt6vectorIS2_SaIS2_EEE4baseEv @2025
    _ZNK9__gnu_cxx17__normal_iteratorIPKPKN4inet13physicallayer10IReceptionESt6vectorIS5_SaIS5_EEE4baseEv @2026
    _ZNK9__gnu_cxx17__normal_iteratorIPKPKN4inet13physicallayer10IReceptionESt6vectorIS5_SaIS5_EEEdeEv @2027
    _ZNK9__gnu_cxx17__normal_iteratorIPKPKN4inet13physicallayer18IReceptionDecisionESt6vectorIS5_SaIS5_EEE4baseEv @2028
    _ZNK9__gnu_cxx17__normal_iteratorIPKPKN4inet13physicallayer18IReceptionDecisionESt6vectorIS5_SaIS5_EEEdeEv @2029
    _ZNK9__gnu_cxx17__normal_iteratorIPKPKN4inet13physicallayer6IRadioESt6vectorIS5_SaIS5_EEE4baseEv @2030
    _ZNK9__gnu_cxx17__normal_iteratorIPKPKN4inet13physicallayer6IRadioESt6vectorIS5_SaIS5_EEEdeEv @2031
    _ZNK9__gnu_cxx17__normal_iteratorIPKPN5flora17LoRaNeighborCache10RadioEntryESt6vectorIS4_SaIS4_EEE4baseEv @2032
    _ZNK9__gnu_cxx17__normal_iteratorIPKPN7omnetpp11cXMLElementESt6vectorIS3_SaIS3_EEE4baseEv @2033
    _ZNK9__gnu_cxx17__normal_iteratorIPKPN7omnetpp11cXMLElementESt6vectorIS3_SaIS3_EEEdeEv @2034
    _ZNK9__gnu_cxx17__normal_iteratorIPKSt5tupleIJN4inet9L3AddressEddEESt6vectorIS4_SaIS4_EEE4baseEv @2035
    _ZNK9__gnu_cxx17__normal_iteratorIPKSt5tupleIJN4inet9L3AddressEddEESt6vectorIS4_SaIS4_EEEdeEv @2036
    _ZNK9__gnu_cxx17__normal_iteratorIPN4inet9L3AddressESt6vectorIS2_SaIS2_EEE4baseEv @2037
    _ZNK9__gnu_cxx17__normal_iteratorIPN5flora14receivedPacketESt6vectorIS2_SaIS2_EEE4baseEv @2038
    _ZNK9__gnu_cxx17__normal_iteratorIPN5flora14receivedPacketESt6vectorIS2_SaIS2_EEEdeEv @2039
    _ZNK9__gnu_cxx17__normal_iteratorIPN5flora14receivedPacketESt6vectorIS2_SaIS2_EEEmiEx @2040
    _ZNK9__gnu_cxx17__normal_iteratorIPN5flora14receivedPacketESt6vectorIS2_SaIS2_EEEplEx @2041
    _ZNK9__gnu_cxx17__normal_iteratorIPN5flora9knownNodeESt6vectorIS2_SaIS2_EEE4baseEv @2042
    _ZNK9__gnu_cxx17__normal_iteratorIPN5flora9knownNodeESt6vectorIS2_SaIS2_EEEdeEv @2043
    _ZNK9__gnu_cxx17__normal_iteratorIPPKN4inet13physicallayer6IRadioESt6vectorIS5_SaIS5_EEE4baseEv @2044
    _ZNK9__gnu_cxx17__normal_iteratorIPPKN4inet13physicallayer6IRadioESt6vectorIS5_SaIS5_EEEdeEv @2045
    _ZNK9__gnu_cxx17__normal_iteratorIPPKN4inet13physicallayer6IRadioESt6vectorIS5_SaIS5_EEEplEx @2046
    _ZNK9__gnu_cxx17__normal_iteratorIPPN5flora17LoRaNeighborCache10RadioEntryESt6vectorIS4_SaIS4_EEE4baseEv @2047
    _ZNK9__gnu_cxx17__normal_iteratorIPPN5flora17LoRaNeighborCache10RadioEntryESt6vectorIS4_SaIS4_EEEdeEv @2048
    _ZNK9__gnu_cxx17__normal_iteratorIPPN5flora17LoRaNeighborCache10RadioEntryESt6vectorIS4_SaIS4_EEEplEx @2049
    _ZNK9__gnu_cxx17__normal_iteratorIPPN7omnetpp11cXMLElementESt6vectorIS3_SaIS3_EEE4baseEv @2050
    _ZNK9__gnu_cxx17__normal_iteratorIPPN7omnetpp11cXMLElementESt6vectorIS3_SaIS3_EEEdeEv @2051
    _ZNK9__gnu_cxx17__normal_iteratorIPSt5tupleIJN4inet9L3AddressEddEESt6vectorIS4_SaIS4_EEE4baseEv @2052
    _ZNK9__gnu_cxx5__ops15_Iter_less_iterclISt14_List_iteratorIdES4_EEbT_T0_ @2053
    _ZNKSt10_HashtableIPPvS1_SaIS1_ENSt8__detail9_IdentityESt8equal_toIS1_ESt4hashIS1_ENS3_18_Mod_range_hashingENS3_20_Default_ranged_hashENS3_20_Prime_rehash_policyENS3_17_Hashtable_traitsILb0ELb1ELb1EEEE12_M_find_nodeEyRKS1_y @2054
    _ZNKSt10_HashtableIPPvS1_SaIS1_ENSt8__detail9_IdentityESt8equal_toIS1_ESt4hashIS1_ENS3_18_Mod_range_hashingENS3_20_Default_ranged_hashENS3_20_Prime_rehash_policyENS3_17_Hashtable_traitsILb0ELb1ELb1EEEE15_M_bucket_indexERKNS3_16_Hash_node_valueIS1_Lb0EEE @2055
    _ZNKSt10_HashtableIPPvS1_SaIS1_ENSt8__detail9_IdentityESt8equal_toIS1_ESt4hashIS1_ENS3_18_Mod_range_hashingENS3_20_Default_ranged_hashENS3_20_Prime_rehash_policyENS3_17_Hashtable_traitsILb0ELb1ELb1EEEE15_M_bucket_indexEy @2056
    _ZNKSt10_HashtableIPPvS1_SaIS1_ENSt8__detail9_IdentityESt8equal_toIS1_ESt4hashIS1_ENS3_18_Mod_range_hashingENS3_20_Default_ranged_hashENS3_20_Prime_rehash_policyENS3_17_Hashtable_traitsILb0ELb1ELb1EEEE15_M_find_node_trIS1_EEPNS3_10_Hash_nodeIS1_Lb0EEEyRKT_y @2057
    _ZNKSt10_HashtableIPPvS1_SaIS1_ENSt8__detail9_IdentityESt8equal_toIS1_ESt4hashIS1_ENS3_18_Mod_range_hashingENS3_20_Default_ranged_hashENS3_20_Prime_rehash_policyENS3_17_Hashtable_traitsILb0ELb1ELb1EEEE19_M_find_before_nodeEyRKS1_y @2058
    _ZNKSt10_HashtableIPPvS1_SaIS1_ENSt8__detail9_IdentityESt8equal_toIS1_ESt4hashIS1_ENS3_18_Mod_range_hashingENS3_20_Default_ranged_hashENS3_20_Prime_rehash_policyENS3_17_Hashtable_traitsILb0ELb1ELb1EEEE21_M_uses_single_bucketEPPNS3_15_Hash_node_baseE @2059
    _ZNKSt10_HashtableIPPvS1_SaIS1_ENSt8__detail9_IdentityESt8equal_toIS1_ESt4hashIS1_ENS3_18_Mod_range_hashingENS3_20_Default_ranged_hashENS3_20_Prime_rehash_policyENS3_17_Hashtable_traitsILb0ELb1ELb1EEEE22_M_find_before_node_trIS1_EEPNS3_15_Hash_node_baseEyRKT_y @2060
    _ZNKSt10_HashtableIPPvS1_SaIS1_ENSt8__detail9_IdentityESt8equal_toIS1_ESt4hashIS1_ENS3_18_Mod_range_hashingENS3_20_Default_ranged_hashENS3_20_Prime_rehash_policyENS3_17_Hashtable_traitsILb0ELb1ELb1EEEE4sizeEv @2061
    _ZNKSt10_HashtableIPPvS1_SaIS1_ENSt8__detail9_IdentityESt8equal_toIS1_ESt4hashIS1_ENS3_18_Mod_range_hashingENS3_20_Default_ranged_hashENS3_20_Prime_rehash_policyENS3_17_Hashtable_traitsILb0ELb1ELb1EEEE8_M_beginEv @2062
    _ZNKSt10_List_nodeIdE9_M_valptrEv @2063
    _ZNKSt10_Select1stISt4pairIKN7omnetpp7SimTimeEN4inet5units5valueIdNS5_7composeINS7_INS7_INS5_5units1mENS7_INS8_2kgENS5_3powINS8_1sELin2ELi1EEEEEEES9_EENSB_ISC_Lin1ELi1EEEEEEEEEclERKSK_ @2064
    _ZNKSt10_Select1stISt4pairIKPKN4inet13physicallayer6IRadioEPN5flora17LoRaNeighborCache10RadioEntryEEEclERKSB_ @2065
    _ZNKSt10_Select1stISt4pairIKddEEclERKS2_ @2066
    _ZNKSt10_Select1stISt4pairIKiiEEclERKS2_ @2067
    _ZNKSt12_Vector_baseIN4inet9L3AddressESaIS1_EE19_M_get_Tp_allocatorEv @2068
    _ZNKSt12_Vector_baseIN5flora14receivedPacketESaIS1_EE19_M_get_Tp_allocatorEv @2069
    _ZNKSt12_Vector_baseIN5flora9knownNodeESaIS1_EE19_M_get_Tp_allocatorEv @2070
    _ZNKSt12_Vector_baseIPKN4inet13physicallayer6IRadioESaIS4_EE19_M_get_Tp_allocatorEv @2071
    _ZNKSt12_Vector_baseIPN5flora17LoRaNeighborCache10RadioEntryESaIS3_EE19_M_get_Tp_allocatorEv @2072
    _ZNKSt12_Vector_baseIPN7omnetpp11cXMLElementESaIS2_EE13get_allocatorEv @2073
    _ZNKSt12_Vector_baseIPN7omnetpp11cXMLElementESaIS2_EE19_M_get_Tp_allocatorEv @2074
    _ZNKSt12_Vector_baseISt5tupleIJN4inet9L3AddressEddEESaIS3_EE13get_allocatorEv @2075
    _ZNKSt12_Vector_baseISt5tupleIJN4inet9L3AddressEddEESaIS3_EE19_M_get_Tp_allocatorEv @2076
    _ZNKSt13_Rb_tree_nodeISt4pairIKN7omnetpp7SimTimeEN4inet5units5valueIdNS5_7composeINS7_INS7_INS5_5units1mENS7_INS8_2kgENS5_3powINS8_1sELin2ELi1EEEEEEES9_EENSB_ISC_Lin1ELi1EEEEEEEEE9_M_valptrEv @2077
    _ZNKSt13_Rb_tree_nodeISt4pairIKPKN4inet13physicallayer6IRadioEPN5flora17LoRaNeighborCache10RadioEntryEEE9_M_valptrEv @2078
    _ZNKSt13_Rb_tree_nodeISt4pairIKddEE9_M_valptrEv @2079
    _ZNKSt13_Rb_tree_nodeISt4pairIKiiEE9_M_valptrEv @2080
    _ZNKSt14_List_iteratorIPN7omnetpp8cMessageEEdeEv @2081
    _ZNKSt14_List_iteratorIdEdeEv @2082
    _ZNKSt15__new_allocatorIN4inet9L3AddressEE11_M_max_sizeEv @2083
    _ZNKSt15__new_allocatorIN4inet9L3AddressEE8max_sizeEv @2084
    _ZNKSt15__new_allocatorIN5flora14receivedPacketEE11_M_max_sizeEv @2085
    _ZNKSt15__new_allocatorIN5flora14receivedPacketEE8max_sizeEv @2086
    _ZNKSt15__new_allocatorIN5flora9knownNodeEE11_M_max_sizeEv @2087
    _ZNKSt15__new_allocatorIN5flora9knownNodeEE8max_sizeEv @2088
    _ZNKSt15__new_allocatorINSt8__detail10_Hash_nodeIPPvLb0EEEE11_M_max_sizeEv @2089
    _ZNKSt15__new_allocatorIPKN4inet13physicallayer6IRadioEE11_M_max_sizeEv @2090
    _ZNKSt15__new_allocatorIPKN4inet13physicallayer6IRadioEE8max_sizeEv @2091
    _ZNKSt15__new_allocatorIPN5flora17LoRaNeighborCache10RadioEntryEE11_M_max_sizeEv @2092
    _ZNKSt15__new_allocatorIPN5flora17LoRaNeighborCache10RadioEntryEE8max_sizeEv @2093
    _ZNKSt15__new_allocatorIPNSt8__detail15_Hash_node_baseEE11_M_max_sizeEv @2094
    _ZNKSt15__new_allocatorISt10_List_nodeIPN7omnetpp8cMessageEEE11_M_max_sizeEv @2095
    _ZNKSt15__new_allocatorISt10_List_nodeIdEE11_M_max_sizeEv @2096
    _ZNKSt15__new_allocatorISt13_Rb_tree_nodeISt4pairIKN7omnetpp7SimTimeEN4inet5units5valueIdNS6_7composeINS8_INS8_INS6_5units1mENS8_INS9_2kgENS6_3powINS9_1sELin2ELi1EEEEEEESA_EENSC_ISD_Lin1ELi1EEEEEEEEEE11_M_max_sizeEv @2097
    _ZNKSt15__new_allocatorISt13_Rb_tree_nodeISt4pairIKPKN4inet13physicallayer6IRadioEPN5flora17LoRaNeighborCache10RadioEntryEEEE11_M_max_sizeEv @2098
    _ZNKSt15__new_allocatorISt13_Rb_tree_nodeISt4pairIKddEEE11_M_max_sizeEv @2099
    _ZNKSt15__new_allocatorISt13_Rb_tree_nodeISt4pairIKiiEEE11_M_max_sizeEv @2100
    _ZNKSt15__new_allocatorISt5tupleIJN4inet9L3AddressEddEEE11_M_max_sizeEv @2101
    _ZNKSt15__new_allocatorISt5tupleIJN4inet9L3AddressEddEEE8max_sizeEv @2102
    _ZNKSt17_Rb_tree_iteratorISt4pairIKN7omnetpp7SimTimeEN4inet5units5valueIdNS5_7composeINS7_INS7_INS5_5units1mENS7_INS8_2kgENS5_3powINS8_1sELin2ELi1EEEEEEES9_EENSB_ISC_Lin1ELi1EEEEEEEEEdeEv @2103
    _ZNKSt17_Rb_tree_iteratorISt4pairIKN7omnetpp7SimTimeEN4inet5units5valueIdNS5_7composeINS7_INS7_INS5_5units1mENS7_INS8_2kgENS5_3powINS8_1sELin2ELi1EEEEEEES9_EENSB_ISC_Lin1ELi1EEEEEEEEEptEv @2104
    _ZNKSt17_Rb_tree_iteratorISt4pairIKPKN4inet13physicallayer6IRadioEPN5flora17LoRaNeighborCache10RadioEntryEEEdeEv @2105
    _ZNKSt17_Rb_tree_iteratorISt4pairIKddEEdeEv @2106
    _ZNKSt17_Rb_tree_iteratorISt4pairIKiiEEdeEv @2107
    _ZNKSt17_Rb_tree_iteratorISt4pairIKiiEEptEv @2108
    _ZNKSt20_List_const_iteratorIPN7omnetpp8cMessageEE13_M_const_castEv @2109
    _ZNKSt20_List_const_iteratorIdEdeEv @2110
    _ZNKSt23_Rb_tree_const_iteratorISt4pairIKN7omnetpp7SimTimeEN4inet5units5valueIdNS5_7composeINS7_INS7_INS5_5units1mENS7_INS8_2kgENS5_3powINS8_1sELin2ELi1EEEEEEES9_EENSB_ISC_Lin1ELi1EEEEEEEEEptEv @2111
    _ZNKSt23_Rb_tree_const_iteratorISt4pairIKPKN4inet13physicallayer6IRadioEPN5flora17LoRaNeighborCache10RadioEntryEEE13_M_const_castEv @2112
    _ZNKSt23_Rb_tree_const_iteratorISt4pairIKPKN4inet13physicallayer6IRadioEPN5flora17LoRaNeighborCache10RadioEntryEEEptEv @2113
    _ZNKSt23_Rb_tree_const_iteratorISt4pairIKddEE13_M_const_castEv @2114
    _ZNKSt23_Rb_tree_const_iteratorISt4pairIKddEEptEv @2115
    _ZNKSt23_Rb_tree_const_iteratorISt4pairIKiiEE13_M_const_castEv @2116
    _ZNKSt3mapIPKN4inet13physicallayer6IRadioEPN5flora17LoRaNeighborCache10RadioEntryESt4lessIS4_ESaISt4pairIKS4_S8_EEE3endEv @2117
    _ZNKSt3mapIPKN4inet13physicallayer6IRadioEPN5flora17LoRaNeighborCache10RadioEntryESt4lessIS4_ESaISt4pairIKS4_S8_EEE4findERSC_ @2118
    _ZNKSt3mapIPKN4inet13physicallayer6IRadioEPN5flora17LoRaNeighborCache10RadioEntryESt4lessIS4_ESaISt4pairIKS4_S8_EEE8key_compEv @2119
    _ZNKSt3mapIddSt4lessIdESaISt4pairIKddEEE4findERS3_ @2120
    _ZNKSt3mapIddSt4lessIdESaISt4pairIKddEEE8key_compEv @2121
    _ZNKSt3mapIiiSt4lessIiESaISt4pairIKiiEEE5countERS3_ @2122
    _ZNKSt3mapIiiSt4lessIiESaISt4pairIKiiEEE8key_compEv @2123
    _ZNKSt4hashIPPvEclES1_ @2124
    _ZNKSt4lessIN7omnetpp7SimTimeEEclERKS1_S4_ @2125
    _ZNKSt4lessIPKN4inet13physicallayer6IRadioEEclES4_S4_ @2126
    _ZNKSt4lessIdEclERKdS2_ @2127
    _ZNKSt4lessIiEclERKiS2_ @2128
    _ZNKSt6vectorIN4inet9L3AddressESaIS1_EE12_M_check_lenEyPKc @2129
    _ZNKSt6vectorIN4inet9L3AddressESaIS1_EE4sizeEv @2130
    _ZNKSt6vectorIN4inet9L3AddressESaIS1_EE8max_sizeEv @2131
    _ZNKSt6vectorIN5flora14receivedPacketESaIS1_EE12_M_check_lenEyPKc @2132
    _ZNKSt6vectorIN5flora14receivedPacketESaIS1_EE3endEv @2133
    _ZNKSt6vectorIN5flora14receivedPacketESaIS1_EE4sizeEv @2134
    _ZNKSt6vectorIN5flora14receivedPacketESaIS1_EE5beginEv @2135
    _ZNKSt6vectorIN5flora14receivedPacketESaIS1_EE5emptyEv @2136
    _ZNKSt6vectorIN5flora14receivedPacketESaIS1_EE6cbeginEv @2137
    _ZNKSt6vectorIN5flora14receivedPacketESaIS1_EE8max_sizeEv @2138
    _ZNKSt6vectorIN5flora9knownNodeESaIS1_EE12_M_check_lenEyPKc @2139
    _ZNKSt6vectorIN5flora9knownNodeESaIS1_EE4sizeEv @2140
    _ZNKSt6vectorIN5flora9knownNodeESaIS1_EE8max_sizeEv @2141
    _ZNKSt6vectorIPKN4inet13physicallayer10IReceptionESaIS4_EE3endEv @2142
    _ZNKSt6vectorIPKN4inet13physicallayer10IReceptionESaIS4_EE5beginEv @2143
    _ZNKSt6vectorIPKN4inet13physicallayer18IReceptionDecisionESaIS4_EE3endEv @2144
    _ZNKSt6vectorIPKN4inet13physicallayer18IReceptionDecisionESaIS4_EE5beginEv @2145
    _ZNKSt6vectorIPKN4inet13physicallayer6IRadioESaIS4_EE12_M_check_lenEyPKc @2146
    _ZNKSt6vectorIPKN4inet13physicallayer6IRadioESaIS4_EE3endEv @2147
    _ZNKSt6vectorIPKN4inet13physicallayer6IRadioESaIS4_EE4sizeEv @2148
    _ZNKSt6vectorIPKN4inet13physicallayer6IRadioESaIS4_EE5beginEv @2149
    _ZNKSt6vectorIPKN4inet13physicallayer6IRadioESaIS4_EE6cbeginEv @2150
    _ZNKSt6vectorIPKN4inet13physicallayer6IRadioESaIS4_EE8max_sizeEv @2151
    _ZNKSt6vectorIPN5flora17LoRaNeighborCache10RadioEntryESaIS3_EE12_M_check_lenEyPKc @2152
    _ZNKSt6vectorIPN5flora17LoRaNeighborCache10RadioEntryESaIS3_EE4sizeEv @2153
    _ZNKSt6vectorIPN5flora17LoRaNeighborCache10RadioEntryESaIS3_EE6cbeginEv @2154
    _ZNKSt6vectorIPN5flora17LoRaNeighborCache10RadioEntryESaIS3_EE8max_sizeEv @2155
    _ZNKSt6vectorIPN7omnetpp11cXMLElementESaIS2_EE3endEv @2156
    _ZNKSt6vectorIPN7omnetpp11cXMLElementESaIS2_EE5beginEv @2157
    _ZNKSt6vectorIPN7omnetpp11cXMLElementESaIS2_EE5emptyEv @2158
    _ZNKSt6vectorISt4pairIPN7omnetpp10cComponentEiESaIS4_EE4sizeEv @2159
    _ZNKSt6vectorISt5tupleIJN4inet10MacAddressEiEESaIS3_EE4sizeEv @2160
    _ZNKSt6vectorISt5tupleIJN4inet9L3AddressEddEESaIS3_EE12_M_check_lenEyPKc @2161
    _ZNKSt6vectorISt5tupleIJN4inet9L3AddressEddEESaIS3_EE3endEv @2162
    _ZNKSt6vectorISt5tupleIJN4inet9L3AddressEddEESaIS3_EE4sizeEv @2163
    _ZNKSt6vectorISt5tupleIJN4inet9L3AddressEddEESaIS3_EE5beginEv @2164
    _ZNKSt6vectorISt5tupleIJN4inet9L3AddressEddEESaIS3_EE8max_sizeEv @2165
    _ZNKSt7__cxx1110_List_baseIPN7omnetpp8cMessageESaIS3_EE11_M_get_sizeEv @2166
    _ZNKSt7__cxx1110_List_baseIPN7omnetpp8cMessageESaIS3_EE21_M_get_Node_allocatorEv @2167
    _ZNKSt7__cxx1110_List_baseIdSaIdEE11_M_get_sizeEv @2168
    _ZNKSt7__cxx1110_List_baseIdSaIdEE21_M_get_Node_allocatorEv @2169
    _ZNKSt7__cxx114listIPN7omnetpp8cMessageESaIS3_EE13_M_node_countEv @2170
    _ZNKSt7__cxx114listIPN7omnetpp8cMessageESaIS3_EE13get_allocatorEv @2171
    _ZNKSt7__cxx114listIPN7omnetpp8cMessageESaIS3_EE4sizeEv @2172
    _ZNKSt7__cxx114listIdSaIdEE13_M_node_countEv @2173
    _ZNKSt7__cxx114listIdSaIdEE3endEv @2174
    _ZNKSt7__cxx114listIdSaIdEE4sizeEv @2175
    _ZNKSt7__cxx114listIdSaIdEE5beginEv @2176
    _ZNKSt8_Rb_treeIN7omnetpp7SimTimeESt4pairIKS1_N4inet5units5valueIdNS5_7composeINS7_INS7_INS5_5units1mENS7_INS8_2kgENS5_3powINS8_1sELin2ELi1EEEEEEES9_EENSB_ISC_Lin1ELi1EEEEEEEESt10_Select1stISK_ESt4lessIS1_ESaISK_EE10_Auto_node6_M_keyEv @2177
    _ZNKSt8_Rb_treeIN7omnetpp7SimTimeESt4pairIKS1_N4inet5units5valueIdNS5_7composeINS7_INS7_INS5_5units1mENS7_INS8_2kgENS5_3powINS8_1sELin2ELi1EEEEEEES9_EENSB_ISC_Lin1ELi1EEEEEEEESt10_Select1stISK_ESt4lessIS1_ESaISK_EE9_M_mbeginEv @2178
    _ZNKSt8_Rb_treeIPKN4inet13physicallayer6IRadioESt4pairIKS4_PN5flora17LoRaNeighborCache10RadioEntryEESt10_Select1stISB_ESt4lessIS4_ESaISB_EE10_Auto_node6_M_keyEv @2179
    _ZNKSt8_Rb_treeIPKN4inet13physicallayer6IRadioESt4pairIKS4_PN5flora17LoRaNeighborCache10RadioEntryEESt10_Select1stISB_ESt4lessIS4_ESaISB_EE14_M_lower_boundEPKSt13_Rb_tree_nodeISB_EPKSt18_Rb_tree_node_baseRS6_ @2180
    _ZNKSt8_Rb_treeIPKN4inet13physicallayer6IRadioESt4pairIKS4_PN5flora17LoRaNeighborCache10RadioEntryEESt10_Select1stISB_ESt4lessIS4_ESaISB_EE3endEv @2181
    _ZNKSt8_Rb_treeIPKN4inet13physicallayer6IRadioESt4pairIKS4_PN5flora17LoRaNeighborCache10RadioEntryEESt10_Select1stISB_ESt4lessIS4_ESaISB_EE4findERS6_ @2182
    _ZNKSt8_Rb_treeIPKN4inet13physicallayer6IRadioESt4pairIKS4_PN5flora17LoRaNeighborCache10RadioEntryEESt10_Select1stISB_ESt4lessIS4_ESaISB_EE4sizeEv @2183
    _ZNKSt8_Rb_treeIPKN4inet13physicallayer6IRadioESt4pairIKS4_PN5flora17LoRaNeighborCache10RadioEntryEESt10_Select1stISB_ESt4lessIS4_ESaISB_EE6_M_endEv @2184
    _ZNKSt8_Rb_treeIPKN4inet13physicallayer6IRadioESt4pairIKS4_PN5flora17LoRaNeighborCache10RadioEntryEESt10_Select1stISB_ESt4lessIS4_ESaISB_EE8_M_beginEv @2185
    _ZNKSt8_Rb_treeIPKN4inet13physicallayer6IRadioESt4pairIKS4_PN5flora17LoRaNeighborCache10RadioEntryEESt10_Select1stISB_ESt4lessIS4_ESaISB_EE8key_compEv @2186
    _ZNKSt8_Rb_treeIPKN4inet13physicallayer6IRadioESt4pairIKS4_PN5flora17LoRaNeighborCache10RadioEntryEESt10_Select1stISB_ESt4lessIS4_ESaISB_EE9_M_mbeginEv @2187
    _ZNKSt8_Rb_treeIdSt4pairIKddESt10_Select1stIS2_ESt4lessIdESaIS2_EE10_Auto_node6_M_keyEv @2188
    _ZNKSt8_Rb_treeIdSt4pairIKddESt10_Select1stIS2_ESt4lessIdESaIS2_EE14_M_lower_boundEPKSt13_Rb_tree_nodeIS2_EPKSt18_Rb_tree_node_baseRS1_ @2189
    _ZNKSt8_Rb_treeIdSt4pairIKddESt10_Select1stIS2_ESt4lessIdESaIS2_EE3endEv @2190
    _ZNKSt8_Rb_treeIdSt4pairIKddESt10_Select1stIS2_ESt4lessIdESaIS2_EE4findERS1_ @2191
    _ZNKSt8_Rb_treeIdSt4pairIKddESt10_Select1stIS2_ESt4lessIdESaIS2_EE4sizeEv @2192
    _ZNKSt8_Rb_treeIdSt4pairIKddESt10_Select1stIS2_ESt4lessIdESaIS2_EE6_M_endEv @2193
    _ZNKSt8_Rb_treeIdSt4pairIKddESt10_Select1stIS2_ESt4lessIdESaIS2_EE8_M_beginEv @2194
    _ZNKSt8_Rb_treeIdSt4pairIKddESt10_Select1stIS2_ESt4lessIdESaIS2_EE8key_compEv @2195
    _ZNKSt8_Rb_treeIdSt4pairIKddESt10_Select1stIS2_ESt4lessIdESaIS2_EE9_M_mbeginEv @2196
    _ZNKSt8_Rb_treeIiSt4pairIKiiESt10_Select1stIS2_ESt4lessIiESaIS2_EE10_Auto_node6_M_keyEv @2197
    _ZNKSt8_Rb_treeIiSt4pairIKiiESt10_Select1stIS2_ESt4lessIiESaIS2_EE14_M_lower_boundEPKSt13_Rb_tree_nodeIS2_EPKSt18_Rb_tree_node_baseRS1_ @2198
    _ZNKSt8_Rb_treeIiSt4pairIKiiESt10_Select1stIS2_ESt4lessIiESaIS2_EE3endEv @2199
    _ZNKSt8_Rb_treeIiSt4pairIKiiESt10_Select1stIS2_ESt4lessIiESaIS2_EE4findERS1_ @2200
    _ZNKSt8_Rb_treeIiSt4pairIKiiESt10_Select1stIS2_ESt4lessIiESaIS2_EE4sizeEv @2201
    _ZNKSt8_Rb_treeIiSt4pairIKiiESt10_Select1stIS2_ESt4lessIiESaIS2_EE6_M_endEv @2202
    _ZNKSt8_Rb_treeIiSt4pairIKiiESt10_Select1stIS2_ESt4lessIiESaIS2_EE8_M_beginEv @2203
    _ZNKSt8_Rb_treeIiSt4pairIKiiESt10_Select1stIS2_ESt4lessIiESaIS2_EE8key_compEv @2204
    _ZNKSt8_Rb_treeIiSt4pairIKiiESt10_Select1stIS2_ESt4lessIiESaIS2_EE9_M_mbeginEv @2205
    _ZNKSt8__detail10_AllocNodeISaINS_10_Hash_nodeIPPvLb0EEEEEclIJS3_EEEPS4_DpOT_ @2206
    _ZNKSt8__detail10_Hash_nodeIPPvLb0EE7_M_nextEv @2207
    _ZNKSt8__detail15_Hash_code_baseIPPvS2_NS_9_IdentityESt4hashIS2_ENS_18_Mod_range_hashingENS_20_Default_ranged_hashELb0EE12_M_hash_codeERKS2_ @2208
    _ZNKSt8__detail15_Hash_code_baseIPPvS2_NS_9_IdentityESt4hashIS2_ENS_18_Mod_range_hashingENS_20_Default_ranged_hashELb0EE13_M_store_codeERNS_21_Hash_node_code_cacheILb0EEEy @2209
    _ZNKSt8__detail15_Hash_code_baseIPPvS2_NS_9_IdentityESt4hashIS2_ENS_18_Mod_range_hashingENS_20_Default_ranged_hashELb0EE15_M_bucket_indexERKNS_16_Hash_node_valueIS2_Lb0EEEy @2210
    _ZNKSt8__detail15_Hash_code_baseIPPvS2_NS_9_IdentityESt4hashIS2_ENS_18_Mod_range_hashingENS_20_Default_ranged_hashELb0EE15_M_bucket_indexEyy @2211
    _ZNKSt8__detail15_Hash_code_baseIPPvS2_NS_9_IdentityESt4hashIS2_ENS_18_Mod_range_hashingENS_20_Default_ranged_hashELb0EE15_M_hash_code_trIS2_EEyRKT_ @2212
    _ZNKSt8__detail15_Hash_code_baseIPPvS2_NS_9_IdentityESt4hashIS2_ENS_18_Mod_range_hashingENS_20_Default_ranged_hashELb0EE7_M_hashEv @2213
    _ZNKSt8__detail15_Hashtable_baseIPPvS2_NS_9_IdentityESt8equal_toIS2_ESt4hashIS2_ENS_18_Mod_range_hashingENS_20_Default_ranged_hashENS_17_Hashtable_traitsILb0ELb1ELb1EEEE12_M_equals_trIS2_EEbRKT_yRKNS_16_Hash_node_valueIS2_Lb0EEE @2214
    _ZNKSt8__detail15_Hashtable_baseIPPvS2_NS_9_IdentityESt8equal_toIS2_ESt4hashIS2_ENS_18_Mod_range_hashingENS_20_Default_ranged_hashENS_17_Hashtable_traitsILb0ELb1ELb1EEEE13_M_key_equalsERKS2_RKNS_16_Hash_node_valueIS2_Lb0EEE @2215
    _ZNKSt8__detail15_Hashtable_baseIPPvS2_NS_9_IdentityESt8equal_toIS2_ESt4hashIS2_ENS_18_Mod_range_hashingENS_20_Default_ranged_hashENS_17_Hashtable_traitsILb0ELb1ELb1EEEE16_M_key_equals_trIS2_EEbRKT_RKNS_16_Hash_node_valueIS2_Lb0EEE @2216
    _ZNKSt8__detail15_Hashtable_baseIPPvS2_NS_9_IdentityESt8equal_toIS2_ESt4hashIS2_ENS_18_Mod_range_hashingENS_20_Default_ranged_hashENS_17_Hashtable_traitsILb0ELb1ELb1EEEE5_M_eqEv @2217
    _ZNKSt8__detail15_Hashtable_baseIPPvS2_NS_9_IdentityESt8equal_toIS2_ESt4hashIS2_ENS_18_Mod_range_hashingENS_20_Default_ranged_hashENS_17_Hashtable_traitsILb0ELb1ELb1EEEE9_M_equalsERKS2_yRKNS_16_Hash_node_valueIS2_Lb0EEE @2218
    _ZNKSt8__detail18_Mod_range_hashingclEyy @2219
    _ZNKSt8__detail20_Prime_rehash_policy8_M_stateEv @2220
    _ZNKSt8__detail21_Hash_node_value_baseIPPvE4_M_vEv @2221
    _ZNKSt8__detail21_Hash_node_value_baseIPPvE9_M_valptrEv @2222
    _ZNKSt8__detail21_Hashtable_ebo_helperILi0ESt8equal_toIPPvELb1EE7_M_cgetEv @2223
    _ZNKSt8__detail21_Hashtable_ebo_helperILi1ESt4hashIPPvELb1EE7_M_cgetEv @2224
    _ZNKSt8__detail9_IdentityclIPPvEEOT_S5_ @2225
    _ZNKSt8__detail9_IdentityclIRKPPvEEOT_S7_ @2226
    _ZNKSt8equal_toIPPvEclERKS1_S4_ @2227
    _ZNKSt9_Any_data9_M_accessEv @2228
    _ZNSaIN4inet12IntrusivePtrIKNS_7TagBaseEEEED2Ev @2229
    _ZNSaIN4inet13physicallayer10ApskSymbolEEC2Ev @2230
    _ZNSaIN4inet13physicallayer10ApskSymbolEED2Ev @2231
    _ZNSaIN4inet19SharingRegionTagSet9RegionTagINS_7TagBaseEEEED2Ev @2232
    _ZNSaIN4inet9L3AddressEEC2Ev @2233
    _ZNSaIN4inet9L3AddressEED2Ev @2234
    _ZNSaIN5flora14receivedPacketEEC2Ev @2235
    _ZNSaIN5flora14receivedPacketEED2Ev @2236
    _ZNSaIN5flora7knownGWEEC2Ev @2237
    _ZNSaIN5flora7knownGWEED2Ev @2238
    _ZNSaIN5flora9knownNodeEEC2Ev @2239
    _ZNSaIN5flora9knownNodeEED2Ev @2240
    _ZNSaINSt8__detail10_Hash_nodeIPPvLb0EEEEC2Ev @2241
    _ZNSaIPKN4inet13physicallayer6IRadioEEC2ERKS4_ @2242
    _ZNSaIPKN4inet13physicallayer6IRadioEEC2Ev @2243
    _ZNSaIPKN4inet13physicallayer6IRadioEED2Ev @2244
    _ZNSaIPN5flora17LoRaNeighborCache10RadioEntryEEC2Ev @2245
    _ZNSaIPN5flora17LoRaNeighborCache10RadioEntryEED2Ev @2246
    _ZNSaIPN7omnetpp11cXMLElementEEC2ERKS2_ @2247
    _ZNSaIPN7omnetpp11cXMLElementEEC2Ev @2248
    _ZNSaIPN7omnetpp11cXMLElementEED2Ev @2249
    _ZNSaIPN7omnetpp8cMessageEEC2ISt10_List_nodeIS1_EEERKSaIT_E @2250
    _ZNSaIPN7omnetpp8cMessageEED2Ev @2251
    _ZNSaIPNSt8__detail15_Hash_node_baseEEC2INS_10_Hash_nodeIPPvLb0EEEEERKSaIT_E @2252
    _ZNSaIPNSt8__detail15_Hash_node_baseEED2Ev @2253
    _ZNSaISt10_List_nodeIPN7omnetpp8cMessageEEEC2ERKS4_ @2254
    _ZNSaISt10_List_nodeIPN7omnetpp8cMessageEEEC2Ev @2255
    _ZNSaISt10_List_nodeIPN7omnetpp8cMessageEEEC2IS2_EERKSaIT_E @2256
    _ZNSaISt10_List_nodeIPN7omnetpp8cMessageEEED2Ev @2257
    _ZNSaISt10_List_nodeIdEEC2ERKS1_ @2258
    _ZNSaISt10_List_nodeIdEEC2Ev @2259
    _ZNSaISt10_List_nodeIdEED2Ev @2260
    _ZNSaISt13_Rb_tree_nodeISt4pairIKN7omnetpp7SimTimeEN4inet5units5valueIdNS5_7composeINS7_INS7_INS5_5units1mENS7_INS8_2kgENS5_3powINS8_1sELin2ELi1EEEEEEES9_EENSB_ISC_Lin1ELi1EEEEEEEEEEC2Ev @2261
    _ZNSaISt13_Rb_tree_nodeISt4pairIKPKN4inet13physicallayer6IRadioEPN5flora17LoRaNeighborCache10RadioEntryEEEEC2Ev @2262
    _ZNSaISt13_Rb_tree_nodeISt4pairIKPKN4inet13physicallayer6IRadioEPN5flora17LoRaNeighborCache10RadioEntryEEEED2Ev @2263
    _ZNSaISt13_Rb_tree_nodeISt4pairIKddEEEC2Ev @2264
    _ZNSaISt13_Rb_tree_nodeISt4pairIKddEEED2Ev @2265
    _ZNSaISt13_Rb_tree_nodeISt4pairIKiiEEEC2Ev @2266
    _ZNSaISt13_Rb_tree_nodeISt4pairIKiiEEED2Ev @2267
    _ZNSaISt4pairIPN7omnetpp10cComponentEiEEC2Ev @2268
    _ZNSaISt5tupleIJN4inet10MacAddressEiEEEC2Ev @2269
    _ZNSaISt5tupleIJN4inet10MacAddressEiEEED2Ev @2270
    _ZNSaISt5tupleIJN4inet9L3AddressEddEEEC2ERKS3_ @2271
    _ZNSaISt5tupleIJN4inet9L3AddressEddEEEC2Ev @2272
    _ZNSaISt5tupleIJN4inet9L3AddressEddEEED2Ev @2273
    _ZNSt10_HashtableIPPvS1_SaIS1_ENSt8__detail9_IdentityESt8equal_toIS1_ESt4hashIS1_ENS3_18_Mod_range_hashingENS3_20_Default_ranged_hashENS3_20_Prime_rehash_policyENS3_17_Hashtable_traitsILb0ELb1ELb1EEEE12_Scoped_nodeC2EPNS3_10_Hash_nodeIS1_Lb0EEEPNS3_16_Hashtable_allocISaISH_EEE @2274
    _ZNSt10_HashtableIPPvS1_SaIS1_ENSt8__detail9_IdentityESt8equal_toIS1_ESt4hashIS1_ENS3_18_Mod_range_hashingENS3_20_Default_ranged_hashENS3_20_Prime_rehash_policyENS3_17_Hashtable_traitsILb0ELb1ELb1EEEE12_Scoped_nodeD2Ev @2275
    _ZNSt10_HashtableIPPvS1_SaIS1_ENSt8__detail9_IdentityESt8equal_toIS1_ESt4hashIS1_ENS3_18_Mod_range_hashingENS3_20_Default_ranged_hashENS3_20_Prime_rehash_policyENS3_17_Hashtable_traitsILb0ELb1ELb1EEEE13_M_rehash_auxEySt17integral_constantIbLb1EE @2276
    _ZNSt10_HashtableIPPvS1_SaIS1_ENSt8__detail9_IdentityESt8equal_toIS1_ESt4hashIS1_ENS3_18_Mod_range_hashingENS3_20_Default_ranged_hashENS3_20_Prime_rehash_policyENS3_17_Hashtable_traitsILb0ELb1ELb1EEEE14_S_forward_keyEOS1_ @2277
    _ZNSt10_HashtableIPPvS1_SaIS1_ENSt8__detail9_IdentityESt8equal_toIS1_ESt4hashIS1_ENS3_18_Mod_range_hashingENS3_20_Default_ranged_hashENS3_20_Prime_rehash_policyENS3_17_Hashtable_traitsILb0ELb1ELb1EEEE16_M_insert_uniqueIS1_S1_NS3_10_AllocNodeISaINS3_10_Hash_nodeIS1_Lb0EEEEEEEESt4pairINS3_14_Node_iteratorIS1_Lb1ELb0EEEbEOT_OT0_RKT1_ @2278
    _ZNSt10_HashtableIPPvS1_SaIS1_ENSt8__detail9_IdentityESt8equal_toIS1_ESt4hashIS1_ENS3_18_Mod_range_hashingENS3_20_Default_ranged_hashENS3_20_Prime_rehash_policyENS3_17_Hashtable_traitsILb0ELb1ELb1EEEE19_M_allocate_bucketsEy @2279
    _ZNSt10_HashtableIPPvS1_SaIS1_ENSt8__detail9_IdentityESt8equal_toIS1_ESt4hashIS1_ENS3_18_Mod_range_hashingENS3_20_Default_ranged_hashENS3_20_Prime_rehash_policyENS3_17_Hashtable_traitsILb0ELb1ELb1EEEE19_M_find_before_nodeERKS1_ @2280
    _ZNSt10_HashtableIPPvS1_SaIS1_ENSt8__detail9_IdentityESt8equal_toIS1_ESt4hashIS1_ENS3_18_Mod_range_hashingENS3_20_Default_ranged_hashENS3_20_Prime_rehash_policyENS3_17_Hashtable_traitsILb0ELb1ELb1EEEE21_M_deallocate_bucketsEPPNS3_15_Hash_node_baseEy @2281
    _ZNSt10_HashtableIPPvS1_SaIS1_ENSt8__detail9_IdentityESt8equal_toIS1_ESt4hashIS1_ENS3_18_Mod_range_hashingENS3_20_Default_ranged_hashENS3_20_Prime_rehash_policyENS3_17_Hashtable_traitsILb0ELb1ELb1EEEE21_M_deallocate_bucketsEv @2282
    _ZNSt10_HashtableIPPvS1_SaIS1_ENSt8__detail9_IdentityESt8equal_toIS1_ESt4hashIS1_ENS3_18_Mod_range_hashingENS3_20_Default_ranged_hashENS3_20_Prime_rehash_policyENS3_17_Hashtable_traitsILb0ELb1ELb1EEEE21_M_insert_unique_nodeEyyPNS3_10_Hash_nodeIS1_Lb0EEEy @2283
    _ZNSt10_HashtableIPPvS1_SaIS1_ENSt8__detail9_IdentityESt8equal_toIS1_ESt4hashIS1_ENS3_18_Mod_range_hashingENS3_20_Default_ranged_hashENS3_20_Prime_rehash_policyENS3_17_Hashtable_traitsILb0ELb1ELb1EEEE22_M_insert_bucket_beginEyPNS3_10_Hash_nodeIS1_Lb0EEE @2284
    _ZNSt10_HashtableIPPvS1_SaIS1_ENSt8__detail9_IdentityESt8equal_toIS1_ESt4hashIS1_ENS3_18_Mod_range_hashingENS3_20_Default_ranged_hashENS3_20_Prime_rehash_policyENS3_17_Hashtable_traitsILb0ELb1ELb1EEEE22_M_remove_bucket_beginEyPNS3_10_Hash_nodeIS1_Lb0EEEy @2285
    _ZNSt10_HashtableIPPvS1_SaIS1_ENSt8__detail9_IdentityESt8equal_toIS1_ESt4hashIS1_ENS3_18_Mod_range_hashingENS3_20_Default_ranged_hashENS3_20_Prime_rehash_policyENS3_17_Hashtable_traitsILb0ELb1ELb1EEEE22__small_size_thresholdEv @2286
    _ZNSt10_HashtableIPPvS1_SaIS1_ENSt8__detail9_IdentityESt8equal_toIS1_ESt4hashIS1_ENS3_18_Mod_range_hashingENS3_20_Default_ranged_hashENS3_20_Prime_rehash_policyENS3_17_Hashtable_traitsILb0ELb1ELb1EEEE3endEv @2287
    _ZNSt10_HashtableIPPvS1_SaIS1_ENSt8__detail9_IdentityESt8equal_toIS1_ESt4hashIS1_ENS3_18_Mod_range_hashingENS3_20_Default_ranged_hashENS3_20_Prime_rehash_policyENS3_17_Hashtable_traitsILb0ELb1ELb1EEEE4findERKS1_ @2288
    _ZNSt10_HashtableIPPvS1_SaIS1_ENSt8__detail9_IdentityESt8equal_toIS1_ESt4hashIS1_ENS3_18_Mod_range_hashingENS3_20_Default_ranged_hashENS3_20_Prime_rehash_policyENS3_17_Hashtable_traitsILb0ELb1ELb1EEEE5beginEv @2289
    _ZNSt10_HashtableIPPvS1_SaIS1_ENSt8__detail9_IdentityESt8equal_toIS1_ESt4hashIS1_ENS3_18_Mod_range_hashingENS3_20_Default_ranged_hashENS3_20_Prime_rehash_policyENS3_17_Hashtable_traitsILb0ELb1ELb1EEEE5eraseERKS1_ @2290
    _ZNSt10_HashtableIPPvS1_SaIS1_ENSt8__detail9_IdentityESt8equal_toIS1_ESt4hashIS1_ENS3_18_Mod_range_hashingENS3_20_Default_ranged_hashENS3_20_Prime_rehash_policyENS3_17_Hashtable_traitsILb0ELb1ELb1EEEE8_M_eraseESt17integral_constantIbLb1EERKS1_ @2291
    _ZNSt10_HashtableIPPvS1_SaIS1_ENSt8__detail9_IdentityESt8equal_toIS1_ESt4hashIS1_ENS3_18_Mod_range_hashingENS3_20_Default_ranged_hashENS3_20_Prime_rehash_policyENS3_17_Hashtable_traitsILb0ELb1ELb1EEEE8_M_eraseEyPNS3_15_Hash_node_baseEPNS3_10_Hash_nodeIS1_Lb0EEE @2292
    _ZNSt10_HashtableIPPvS1_SaIS1_ENSt8__detail9_IdentityESt8equal_toIS1_ESt4hashIS1_ENS3_18_Mod_range_hashingENS3_20_Default_ranged_hashENS3_20_Prime_rehash_policyENS3_17_Hashtable_traitsILb0ELb1ELb1EEEE9_M_insertIS1_NS3_10_AllocNodeISaINS3_10_Hash_nodeIS1_Lb0EEEEEEEESt4pairINS3_14_Node_iteratorIS1_Lb1ELb0EEEbEOT_RKT0_St17integral_constantIbLb1EE @2293
    _ZNSt10_HashtableIPPvS1_SaIS1_ENSt8__detail9_IdentityESt8equal_toIS1_ESt4hashIS1_ENS3_18_Mod_range_hashingENS3_20_Default_ranged_hashENS3_20_Prime_rehash_policyENS3_17_Hashtable_traitsILb0ELb1ELb1EEEE9_M_rehashEyRKy @2294
    _ZNSt10_HashtableIPPvS1_SaIS1_ENSt8__detail9_IdentityESt8equal_toIS1_ESt4hashIS1_ENS3_18_Mod_range_hashingENS3_20_Default_ranged_hashENS3_20_Prime_rehash_policyENS3_17_Hashtable_traitsILb0ELb1ELb1EEEEC2Ev @2295
    _ZNSt10_Head_baseILy0EN4inet9L3AddressELb0EE7_M_headERS2_ @2296
    _ZNSt10_Head_baseILy0EN4inet9L3AddressELb0EEC2ERKS1_ @2297
    _ZNSt10_Head_baseILy0EN4inet9L3AddressELb0EEC2ERKS2_ @2298
    _ZNSt10_Head_baseILy0EOdLb0EE7_M_headERS1_ @2299
    _ZNSt10_Head_baseILy0EOdLb0EEC2IdEEOT_ @2300
    _ZNSt10_Head_baseILy0EOiLb0EE7_M_headERS1_ @2301
    _ZNSt10_Head_baseILy0EOiLb0EEC2IiEEOT_ @2302
    _ZNSt10_Head_baseILy0ERKPKN4inet13physicallayer6IRadioELb0EE7_M_headERS7_ @2303
    _ZNSt10_Head_baseILy0ERKPKN4inet13physicallayer6IRadioELb0EEC2ES6_ @2304
    _ZNSt10_Head_baseILy1EdLb0EE7_M_headERS0_ @2305
    _ZNSt10_Head_baseILy1EdLb0EEC2IdEEOT_ @2306
    _ZNSt10_Head_baseILy2EdLb0EE7_M_headERS0_ @2307
    _ZNSt10_Head_baseILy2EdLb0EEC2IdEEOT_ @2308
    _ZNSt10_List_nodeIPN7omnetpp8cMessageEE9_M_valptrEv @2309
    _ZNSt10_List_nodeIdE9_M_valptrEv @2310
    _ZNSt11_Tuple_implILy0EJN4inet9L3AddressEddEE7_M_headERS2_ @2311
    _ZNSt11_Tuple_implILy0EJN4inet9L3AddressEddEEC2ERKS2_ @2312
    _ZNSt11_Tuple_implILy0EJN4inet9L3AddressEddEEC2IRKS1_JddEvEEOT_DpOT0_ @2313
    _ZNSt11_Tuple_implILy0EJOdEE7_M_headERS1_ @2314
    _ZNSt11_Tuple_implILy0EJOdEEC2EOS1_ @2315
    _ZNSt11_Tuple_implILy0EJOdEEC2IdEEOT_ @2316
    _ZNSt11_Tuple_implILy0EJOiEE7_M_headERS1_ @2317
    _ZNSt11_Tuple_implILy0EJOiEEC2EOS1_ @2318
    _ZNSt11_Tuple_implILy0EJOiEEC2IiEEOT_ @2319
    _ZNSt11_Tuple_implILy0EJRKPKN4inet13physicallayer6IRadioEEE7_M_headERS7_ @2320
    _ZNSt11_Tuple_implILy0EJRKPKN4inet13physicallayer6IRadioEEEC2EOS7_ @2321
    _ZNSt11_Tuple_implILy0EJRKPKN4inet13physicallayer6IRadioEEEC2ES6_ @2322
    _ZNSt11_Tuple_implILy1EJddEE7_M_headERS0_ @2323
    _ZNSt11_Tuple_implILy1EJddEEC2IdJdEvEEOT_DpOT0_ @2324
    _ZNSt11_Tuple_implILy2EJdEE7_M_headERS0_ @2325
    _ZNSt11_Tuple_implILy2EJdEEC2IdEEOT_ @2326
    _ZNSt11__alloc_neqISaISt10_List_nodeIPN7omnetpp8cMessageEEELb1EE8_S_do_itERKS5_S8_ @2327
    _ZNSt11__copy_moveILb0ELb1ESt26random_access_iterator_tagE8__copy_mIPKN4inet13physicallayer6IRadioEEEPT_PKS8_SB_S9_ @2328
    _ZNSt11__copy_moveILb1ELb0ESt26random_access_iterator_tagE8__copy_mIPN5flora14receivedPacketES5_EET0_T_S7_S6_ @2329
    _ZNSt11__copy_moveILb1ELb1ESt26random_access_iterator_tagE8__copy_mIPKN4inet13physicallayer6IRadioEEEPT_PKS8_SB_S9_ @2330
    _ZNSt11__copy_moveILb1ELb1ESt26random_access_iterator_tagE8__copy_mIPN5flora17LoRaNeighborCache10RadioEntryEEEPT_PKS7_SA_S8_ @2331
    _ZNSt12_Destroy_auxILb0EE9__destroyIPN4inet12IntrusivePtrIKNS2_7TagBaseEEEEEvT_S8_ @2332
    _ZNSt12_Destroy_auxILb0EE9__destroyIPN4inet13physicallayer10ApskSymbolEEEvT_S6_ @2333
    _ZNSt12_Destroy_auxILb0EE9__destroyIPN4inet19SharingRegionTagSet9RegionTagINS2_7TagBaseEEEEEvT_S8_ @2334
    _ZNSt12_Destroy_auxILb0EE9__destroyIPN5flora14receivedPacketEEEvT_S5_ @2335
    _ZNSt12_Destroy_auxILb0EE9__destroyIPN5flora9knownNodeEEEvT_S5_ @2336
    _ZNSt12_Destroy_auxILb1EE9__destroyIPN4inet9L3AddressEEEvT_S5_ @2337
    _ZNSt12_Destroy_auxILb1EE9__destroyIPN5flora7knownGWEEEvT_S5_ @2338
    _ZNSt12_Destroy_auxILb1EE9__destroyIPPKN4inet13physicallayer6IRadioEEEvT_S8_ @2339
    _ZNSt12_Destroy_auxILb1EE9__destroyIPPN5flora17LoRaNeighborCache10RadioEntryEEEvT_S7_ @2340
    _ZNSt12_Destroy_auxILb1EE9__destroyIPPN7omnetpp11cXMLElementEEEvT_S6_ @2341
    _ZNSt12_Destroy_auxILb1EE9__destroyIPSt5tupleIJN4inet10MacAddressEiEEEEvT_S7_ @2342
    _ZNSt12_Destroy_auxILb1EE9__destroyIPSt5tupleIJN4inet9L3AddressEddEEEEvT_S7_ @2343
    _ZNSt12_Vector_baseIN4inet12IntrusivePtrIKNS0_7TagBaseEEESaIS4_EE12_Vector_implD2Ev @2344
    _ZNSt12_Vector_baseIN4inet12IntrusivePtrIKNS0_7TagBaseEEESaIS4_EE13_M_deallocateEPS4_y @2345
    _ZNSt12_Vector_baseIN4inet12IntrusivePtrIKNS0_7TagBaseEEESaIS4_EE19_M_get_Tp_allocatorEv @2346
    _ZNSt12_Vector_baseIN4inet12IntrusivePtrIKNS0_7TagBaseEEESaIS4_EED2Ev @2347
    _ZNSt12_Vector_baseIN4inet13physicallayer10ApskSymbolESaIS2_EE12_Vector_implC2Ev @2348
    _ZNSt12_Vector_baseIN4inet13physicallayer10ApskSymbolESaIS2_EE12_Vector_implD2Ev @2349
    _ZNSt12_Vector_baseIN4inet13physicallayer10ApskSymbolESaIS2_EE13_M_deallocateEPS2_y @2350
    _ZNSt12_Vector_baseIN4inet13physicallayer10ApskSymbolESaIS2_EE17_Vector_impl_dataC2Ev @2351
    _ZNSt12_Vector_baseIN4inet13physicallayer10ApskSymbolESaIS2_EE19_M_get_Tp_allocatorEv @2352
    _ZNSt12_Vector_baseIN4inet13physicallayer10ApskSymbolESaIS2_EEC2Ev @2353
    _ZNSt12_Vector_baseIN4inet13physicallayer10ApskSymbolESaIS2_EED2Ev @2354
    _ZNSt12_Vector_baseIN4inet19SharingRegionTagSet9RegionTagINS0_7TagBaseEEESaIS4_EE12_Vector_implD2Ev @2355
    _ZNSt12_Vector_baseIN4inet19SharingRegionTagSet9RegionTagINS0_7TagBaseEEESaIS4_EE13_M_deallocateEPS4_y @2356
    _ZNSt12_Vector_baseIN4inet19SharingRegionTagSet9RegionTagINS0_7TagBaseEEESaIS4_EE19_M_get_Tp_allocatorEv @2357
    _ZNSt12_Vector_baseIN4inet19SharingRegionTagSet9RegionTagINS0_7TagBaseEEESaIS4_EED2Ev @2358
    _ZNSt12_Vector_baseIN4inet9L3AddressESaIS1_EE11_M_allocateEy @2359
    _ZNSt12_Vector_baseIN4inet9L3AddressESaIS1_EE12_Vector_implC2Ev @2360
    _ZNSt12_Vector_baseIN4inet9L3AddressESaIS1_EE12_Vector_implD2Ev @2361
    _ZNSt12_Vector_baseIN4inet9L3AddressESaIS1_EE13_M_deallocateEPS1_y @2362
    _ZNSt12_Vector_baseIN4inet9L3AddressESaIS1_EE17_Vector_impl_dataC2Ev @2363
    _ZNSt12_Vector_baseIN4inet9L3AddressESaIS1_EE19_M_get_Tp_allocatorEv @2364
    _ZNSt12_Vector_baseIN4inet9L3AddressESaIS1_EEC2Ev @2365
    _ZNSt12_Vector_baseIN4inet9L3AddressESaIS1_EED2Ev @2366
    _ZNSt12_Vector_baseIN5flora14receivedPacketESaIS1_EE11_M_allocateEy @2367
    _ZNSt12_Vector_baseIN5flora14receivedPacketESaIS1_EE12_Vector_implC2Ev @2368
    _ZNSt12_Vector_baseIN5flora14receivedPacketESaIS1_EE12_Vector_implD2Ev @2369
    _ZNSt12_Vector_baseIN5flora14receivedPacketESaIS1_EE13_M_deallocateEPS1_y @2370
    _ZNSt12_Vector_baseIN5flora14receivedPacketESaIS1_EE17_Vector_impl_dataC2Ev @2371
    _ZNSt12_Vector_baseIN5flora14receivedPacketESaIS1_EE19_M_get_Tp_allocatorEv @2372
    _ZNSt12_Vector_baseIN5flora14receivedPacketESaIS1_EEC2Ev @2373
    _ZNSt12_Vector_baseIN5flora14receivedPacketESaIS1_EED2Ev @2374
    _ZNSt12_Vector_baseIN5flora7knownGWESaIS1_EE12_Vector_implC2Ev @2375
    _ZNSt12_Vector_baseIN5flora7knownGWESaIS1_EE12_Vector_implD2Ev @2376
    _ZNSt12_Vector_baseIN5flora7knownGWESaIS1_EE13_M_deallocateEPS1_y @2377
    _ZNSt12_Vector_baseIN5flora7knownGWESaIS1_EE17_Vector_impl_dataC2Ev @2378
    _ZNSt12_Vector_baseIN5flora7knownGWESaIS1_EE19_M_get_Tp_allocatorEv @2379
    _ZNSt12_Vector_baseIN5flora7knownGWESaIS1_EEC2Ev @2380
    _ZNSt12_Vector_baseIN5flora7knownGWESaIS1_EED2Ev @2381
    _ZNSt12_Vector_baseIN5flora9knownNodeESaIS1_EE11_M_allocateEy @2382
    _ZNSt12_Vector_baseIN5flora9knownNodeESaIS1_EE12_Vector_implC2Ev @2383
    _ZNSt12_Vector_baseIN5flora9knownNodeESaIS1_EE12_Vector_implD2Ev @2384
    _ZNSt12_Vector_baseIN5flora9knownNodeESaIS1_EE13_M_deallocateEPS1_y @2385
    _ZNSt12_Vector_baseIN5flora9knownNodeESaIS1_EE17_Vector_impl_dataC2Ev @2386
    _ZNSt12_Vector_baseIN5flora9knownNodeESaIS1_EE19_M_get_Tp_allocatorEv @2387
    _ZNSt12_Vector_baseIN5flora9knownNodeESaIS1_EEC2Ev @2388
    _ZNSt12_Vector_baseIN5flora9knownNodeESaIS1_EED2Ev @2389
    _ZNSt12_Vector_baseIPKN4inet13physicallayer6IRadioESaIS4_EE11_M_allocateEy @2390
    _ZNSt12_Vector_baseIPKN4inet13physicallayer6IRadioESaIS4_EE12_Vector_implC2ERKS5_ @2391
    _ZNSt12_Vector_baseIPKN4inet13physicallayer6IRadioESaIS4_EE12_Vector_implC2Ev @2392
    _ZNSt12_Vector_baseIPKN4inet13physicallayer6IRadioESaIS4_EE12_Vector_implD2Ev @2393
    _ZNSt12_Vector_baseIPKN4inet13physicallayer6IRadioESaIS4_EE13_M_deallocateEPS4_y @2394
    _ZNSt12_Vector_baseIPKN4inet13physicallayer6IRadioESaIS4_EE17_M_create_storageEy @2395
    _ZNSt12_Vector_baseIPKN4inet13physicallayer6IRadioESaIS4_EE17_Vector_impl_dataC2Ev @2396
    _ZNSt12_Vector_baseIPKN4inet13physicallayer6IRadioESaIS4_EE19_M_get_Tp_allocatorEv @2397
    _ZNSt12_Vector_baseIPKN4inet13physicallayer6IRadioESaIS4_EEC2Ev @2398
    _ZNSt12_Vector_baseIPKN4inet13physicallayer6IRadioESaIS4_EEC2EyRKS5_ @2399
    _ZNSt12_Vector_baseIPKN4inet13physicallayer6IRadioESaIS4_EED2Ev @2400
    _ZNSt12_Vector_baseIPN5flora17LoRaNeighborCache10RadioEntryESaIS3_EE11_M_allocateEy @2401
    _ZNSt12_Vector_baseIPN5flora17LoRaNeighborCache10RadioEntryESaIS3_EE12_Vector_implC2Ev @2402
    _ZNSt12_Vector_baseIPN5flora17LoRaNeighborCache10RadioEntryESaIS3_EE12_Vector_implD2Ev @2403
    _ZNSt12_Vector_baseIPN5flora17LoRaNeighborCache10RadioEntryESaIS3_EE13_M_deallocateEPS3_y @2404
    _ZNSt12_Vector_baseIPN5flora17LoRaNeighborCache10RadioEntryESaIS3_EE17_Vector_impl_dataC2Ev @2405
    _ZNSt12_Vector_baseIPN5flora17LoRaNeighborCache10RadioEntryESaIS3_EE19_M_get_Tp_allocatorEv @2406
    _ZNSt12_Vector_baseIPN5flora17LoRaNeighborCache10RadioEntryESaIS3_EEC2Ev @2407
    _ZNSt12_Vector_baseIPN5flora17LoRaNeighborCache10RadioEntryESaIS3_EED2Ev @2408
    _ZNSt12_Vector_baseIPN7omnetpp11cXMLElementESaIS2_EE12_Vector_implC2ERKS3_ @2409
    _ZNSt12_Vector_baseIPN7omnetpp11cXMLElementESaIS2_EE12_Vector_implC2Ev @2410
    _ZNSt12_Vector_baseIPN7omnetpp11cXMLElementESaIS2_EE12_Vector_implD2Ev @2411
    _ZNSt12_Vector_baseIPN7omnetpp11cXMLElementESaIS2_EE13_M_deallocateEPS2_y @2412
    _ZNSt12_Vector_baseIPN7omnetpp11cXMLElementESaIS2_EE17_Vector_impl_data12_M_copy_dataERKS5_ @2413
    _ZNSt12_Vector_baseIPN7omnetpp11cXMLElementESaIS2_EE17_Vector_impl_data12_M_swap_dataERS5_ @2414
    _ZNSt12_Vector_baseIPN7omnetpp11cXMLElementESaIS2_EE17_Vector_impl_dataC2Ev @2415
    _ZNSt12_Vector_baseIPN7omnetpp11cXMLElementESaIS2_EE19_M_get_Tp_allocatorEv @2416
    _ZNSt12_Vector_baseIPN7omnetpp11cXMLElementESaIS2_EEC2ERKS3_ @2417
    _ZNSt12_Vector_baseIPN7omnetpp11cXMLElementESaIS2_EEC2Ev @2418
    _ZNSt12_Vector_baseIPN7omnetpp11cXMLElementESaIS2_EED2Ev @2419
    _ZNSt12_Vector_baseISt4pairIPN7omnetpp10cComponentEiESaIS4_EE12_Vector_implC2Ev @2420
    _ZNSt12_Vector_baseISt4pairIPN7omnetpp10cComponentEiESaIS4_EE17_Vector_impl_dataC2Ev @2421
    _ZNSt12_Vector_baseISt4pairIPN7omnetpp10cComponentEiESaIS4_EEC2Ev @2422
    _ZNSt12_Vector_baseISt5tupleIJN4inet10MacAddressEiEESaIS3_EE12_Vector_implC2Ev @2423
    _ZNSt12_Vector_baseISt5tupleIJN4inet10MacAddressEiEESaIS3_EE12_Vector_implD2Ev @2424
    _ZNSt12_Vector_baseISt5tupleIJN4inet10MacAddressEiEESaIS3_EE13_M_deallocateEPS3_y @2425
    _ZNSt12_Vector_baseISt5tupleIJN4inet10MacAddressEiEESaIS3_EE17_Vector_impl_dataC2Ev @2426
    _ZNSt12_Vector_baseISt5tupleIJN4inet10MacAddressEiEESaIS3_EE19_M_get_Tp_allocatorEv @2427
    _ZNSt12_Vector_baseISt5tupleIJN4inet10MacAddressEiEESaIS3_EEC2Ev @2428
    _ZNSt12_Vector_baseISt5tupleIJN4inet10MacAddressEiEESaIS3_EED2Ev @2429
    _ZNSt12_Vector_baseISt5tupleIJN4inet9L3AddressEddEESaIS3_EE11_M_allocateEy @2430
    _ZNSt12_Vector_baseISt5tupleIJN4inet9L3AddressEddEESaIS3_EE12_Vector_implC2EOS6_ @2431
    _ZNSt12_Vector_baseISt5tupleIJN4inet9L3AddressEddEESaIS3_EE12_Vector_implC2ERKS4_ @2432
    _ZNSt12_Vector_baseISt5tupleIJN4inet9L3AddressEddEESaIS3_EE12_Vector_implC2Ev @2433
    _ZNSt12_Vector_baseISt5tupleIJN4inet9L3AddressEddEESaIS3_EE12_Vector_implD2Ev @2434
    _ZNSt12_Vector_baseISt5tupleIJN4inet9L3AddressEddEESaIS3_EE13_M_deallocateEPS3_y @2435
    _ZNSt12_Vector_baseISt5tupleIJN4inet9L3AddressEddEESaIS3_EE17_M_create_storageEy @2436
    _ZNSt12_Vector_baseISt5tupleIJN4inet9L3AddressEddEESaIS3_EE17_Vector_impl_data12_M_copy_dataERKS6_ @2437
    _ZNSt12_Vector_baseISt5tupleIJN4inet9L3AddressEddEESaIS3_EE17_Vector_impl_data12_M_swap_dataERS6_ @2438
    _ZNSt12_Vector_baseISt5tupleIJN4inet9L3AddressEddEESaIS3_EE17_Vector_impl_dataC2EOS6_ @2439
    _ZNSt12_Vector_baseISt5tupleIJN4inet9L3AddressEddEESaIS3_EE17_Vector_impl_dataC2Ev @2440
    _ZNSt12_Vector_baseISt5tupleIJN4inet9L3AddressEddEESaIS3_EE19_M_get_Tp_allocatorEv @2441
    _ZNSt12_Vector_baseISt5tupleIJN4inet9L3AddressEddEESaIS3_EEC2EOS5_ @2442
    _ZNSt12_Vector_baseISt5tupleIJN4inet9L3AddressEddEESaIS3_EEC2ERKS4_ @2443
    _ZNSt12_Vector_baseISt5tupleIJN4inet9L3AddressEddEESaIS3_EEC2Ev @2444
    _ZNSt12_Vector_baseISt5tupleIJN4inet9L3AddressEddEESaIS3_EEC2EyRKS4_ @2445
    _ZNSt12_Vector_baseISt5tupleIJN4inet9L3AddressEddEESaIS3_EED2Ev @2446
    _ZNSt13_Rb_tree_nodeISt4pairIKN7omnetpp7SimTimeEN4inet5units5valueIdNS5_7composeINS7_INS7_INS5_5units1mENS7_INS8_2kgENS5_3powINS8_1sELin2ELi1EEEEEEES9_EENSB_ISC_Lin1ELi1EEEEEEEEE9_M_valptrEv @2447
    _ZNSt13_Rb_tree_nodeISt4pairIKPKN4inet13physicallayer6IRadioEPN5flora17LoRaNeighborCache10RadioEntryEEE9_M_valptrEv @2448
    _ZNSt13_Rb_tree_nodeISt4pairIKddEE9_M_valptrEv @2449
    _ZNSt13_Rb_tree_nodeISt4pairIKiiEE9_M_valptrEv @2450
    _ZNSt13unordered_setIPPvSt4hashIS1_ESt8equal_toIS1_ESaIS1_EE3endEv @2451
    _ZNSt13unordered_setIPPvSt4hashIS1_ESt8equal_toIS1_ESaIS1_EE4findERKS1_ @2452
    _ZNSt13unordered_setIPPvSt4hashIS1_ESt8equal_toIS1_ESaIS1_EE5eraseERKS1_ @2453
    _ZNSt13unordered_setIPPvSt4hashIS1_ESt8equal_toIS1_ESaIS1_EE6insertEOS1_ @2454
    _ZNSt13unordered_setIPPvSt4hashIS1_ESt8equal_toIS1_ESaIS1_EEC2Ev @2455
    _ZNSt14_Function_baseC2Ev @2456
    _ZNSt14_Function_baseD2Ev @2457
    _ZNSt14_List_iteratorIPN7omnetpp8cMessageEEC2EPNSt8__detail15_List_node_baseE @2458
    _ZNSt14_List_iteratorIPN7omnetpp8cMessageEEC2Ev @2459
    _ZNSt14_List_iteratorIPN7omnetpp8cMessageEEppEi @2460
    _ZNSt14_List_iteratorIPN7omnetpp8cMessageEEppEv @2461
    _ZNSt14_List_iteratorIdEC2EPNSt8__detail15_List_node_baseE @2462
    _ZNSt14_List_iteratorIdEppEv @2463
    _ZNSt14numeric_limitsIdE9quiet_NaNEv @2464
    _ZNSt14numeric_limitsIiE9quiet_NaNEv @2465
    _ZNSt15_Rb_tree_header8_M_resetEv @2466
    _ZNSt15_Rb_tree_headerC2Ev @2467
    _ZNSt15__allocated_ptrISaISt10_List_nodeIPN7omnetpp8cMessageEEEEC2ERS5_PS4_ @2468
    _ZNSt15__allocated_ptrISaISt10_List_nodeIPN7omnetpp8cMessageEEEED2Ev @2469
    _ZNSt15__allocated_ptrISaISt10_List_nodeIPN7omnetpp8cMessageEEEEaSEDn @2470
    _ZNSt15__allocated_ptrISaISt10_List_nodeIdEEEC2ERS2_PS1_ @2471
    _ZNSt15__allocated_ptrISaISt10_List_nodeIdEEED2Ev @2472
    _ZNSt15__allocated_ptrISaISt10_List_nodeIdEEEaSEDn @2473
    _ZNSt15__new_allocatorIN4inet12IntrusivePtrIKNS0_7TagBaseEEEE10deallocateEPS4_y @2474
    _ZNSt15__new_allocatorIN4inet12IntrusivePtrIKNS0_7TagBaseEEEED2Ev @2475
    _ZNSt15__new_allocatorIN4inet13physicallayer10ApskSymbolEE10deallocateEPS2_y @2476
    _ZNSt15__new_allocatorIN4inet13physicallayer10ApskSymbolEEC2Ev @2477
    _ZNSt15__new_allocatorIN4inet13physicallayer10ApskSymbolEED2Ev @2478
    _ZNSt15__new_allocatorIN4inet19SharingRegionTagSet9RegionTagINS0_7TagBaseEEEE10deallocateEPS4_y @2479
    _ZNSt15__new_allocatorIN4inet19SharingRegionTagSet9RegionTagINS0_7TagBaseEEEED2Ev @2480
    _ZNSt15__new_allocatorIN4inet9L3AddressEE10deallocateEPS1_y @2481
    _ZNSt15__new_allocatorIN4inet9L3AddressEE7destroyIS1_EEvPT_ @2482
    _ZNSt15__new_allocatorIN4inet9L3AddressEE8allocateEyPKv @2483
    _ZNSt15__new_allocatorIN4inet9L3AddressEE9constructIS1_JRKS1_EEEvPT_DpOT0_ @2484
    _ZNSt15__new_allocatorIN4inet9L3AddressEEC2Ev @2485
    _ZNSt15__new_allocatorIN4inet9L3AddressEED2Ev @2486
    _ZNSt15__new_allocatorIN5flora14receivedPacketEE10deallocateEPS1_y @2487
    _ZNSt15__new_allocatorIN5flora14receivedPacketEE7destroyIS1_EEvPT_ @2488
    _ZNSt15__new_allocatorIN5flora14receivedPacketEE8allocateEyPKv @2489
    _ZNSt15__new_allocatorIN5flora14receivedPacketEE9constructIS1_JRKS1_EEEvPT_DpOT0_ @2490
    _ZNSt15__new_allocatorIN5flora14receivedPacketEE9constructIS1_JS1_EEEvPT_DpOT0_ @2491
    _ZNSt15__new_allocatorIN5flora14receivedPacketEEC2Ev @2492
    _ZNSt15__new_allocatorIN5flora14receivedPacketEED2Ev @2493
    _ZNSt15__new_allocatorIN5flora7knownGWEE10deallocateEPS1_y @2494
    _ZNSt15__new_allocatorIN5flora7knownGWEEC2Ev @2495
    _ZNSt15__new_allocatorIN5flora7knownGWEED2Ev @2496
    _ZNSt15__new_allocatorIN5flora9knownNodeEE10deallocateEPS1_y @2497
    _ZNSt15__new_allocatorIN5flora9knownNodeEE7destroyIS1_EEvPT_ @2498
    _ZNSt15__new_allocatorIN5flora9knownNodeEE8allocateEyPKv @2499
    _ZNSt15__new_allocatorIN5flora9knownNodeEE9constructIS1_JRKS1_EEEvPT_DpOT0_ @2500
    _ZNSt15__new_allocatorIN5flora9knownNodeEEC2Ev @2501
    _ZNSt15__new_allocatorIN5flora9knownNodeEED2Ev @2502
    _ZNSt15__new_allocatorINSt8__detail10_Hash_nodeIPPvLb0EEEE10deallocateEPS4_y @2503
    _ZNSt15__new_allocatorINSt8__detail10_Hash_nodeIPPvLb0EEEE7destroyIS3_EEvPT_ @2504
    _ZNSt15__new_allocatorINSt8__detail10_Hash_nodeIPPvLb0EEEE8allocateEyPKv @2505
    _ZNSt15__new_allocatorINSt8__detail10_Hash_nodeIPPvLb0EEEE9constructIS3_JS3_EEEvPT_DpOT0_ @2506
    _ZNSt15__new_allocatorINSt8__detail10_Hash_nodeIPPvLb0EEEEC2Ev @2507
    _ZNSt15__new_allocatorIPKN4inet13physicallayer6IRadioEE10deallocateEPS4_y @2508
    _ZNSt15__new_allocatorIPKN4inet13physicallayer6IRadioEE7destroyIS4_EEvPT_ @2509
    _ZNSt15__new_allocatorIPKN4inet13physicallayer6IRadioEE8allocateEyPKv @2510
    _ZNSt15__new_allocatorIPKN4inet13physicallayer6IRadioEE9constructIS4_JRKS4_EEEvPT_DpOT0_ @2511
    _ZNSt15__new_allocatorIPKN4inet13physicallayer6IRadioEEC2ERKS5_ @2512
    _ZNSt15__new_allocatorIPKN4inet13physicallayer6IRadioEEC2Ev @2513
    _ZNSt15__new_allocatorIPKN4inet13physicallayer6IRadioEED2Ev @2514
    _ZNSt15__new_allocatorIPN5flora17LoRaNeighborCache10RadioEntryEE10deallocateEPS3_y @2515
    _ZNSt15__new_allocatorIPN5flora17LoRaNeighborCache10RadioEntryEE7destroyIS3_EEvPT_ @2516
    _ZNSt15__new_allocatorIPN5flora17LoRaNeighborCache10RadioEntryEE8allocateEyPKv @2517
    _ZNSt15__new_allocatorIPN5flora17LoRaNeighborCache10RadioEntryEE9constructIS3_JRKS3_EEEvPT_DpOT0_ @2518
    _ZNSt15__new_allocatorIPN5flora17LoRaNeighborCache10RadioEntryEEC2Ev @2519
    _ZNSt15__new_allocatorIPN5flora17LoRaNeighborCache10RadioEntryEED2Ev @2520
    _ZNSt15__new_allocatorIPN7omnetpp11cXMLElementEE10deallocateEPS2_y @2521
    _ZNSt15__new_allocatorIPN7omnetpp11cXMLElementEEC2ERKS3_ @2522
    _ZNSt15__new_allocatorIPN7omnetpp11cXMLElementEEC2Ev @2523
    _ZNSt15__new_allocatorIPN7omnetpp11cXMLElementEED2Ev @2524
    _ZNSt15__new_allocatorIPN7omnetpp8cMessageEEC2Ev @2525
    _ZNSt15__new_allocatorIPN7omnetpp8cMessageEED2Ev @2526
    _ZNSt15__new_allocatorIPNSt8__detail15_Hash_node_baseEE10deallocateEPS2_y @2527
    _ZNSt15__new_allocatorIPNSt8__detail15_Hash_node_baseEE8allocateEyPKv @2528
    _ZNSt15__new_allocatorIPNSt8__detail15_Hash_node_baseEEC2Ev @2529
    _ZNSt15__new_allocatorIPNSt8__detail15_Hash_node_baseEED2Ev @2530
    _ZNSt15__new_allocatorISt10_List_nodeIPN7omnetpp8cMessageEEE10deallocateEPS4_y @2531
    _ZNSt15__new_allocatorISt10_List_nodeIPN7omnetpp8cMessageEEE7destroyIS3_EEvPT_ @2532
    _ZNSt15__new_allocatorISt10_List_nodeIPN7omnetpp8cMessageEEE8allocateEyPKv @2533
    _ZNSt15__new_allocatorISt10_List_nodeIPN7omnetpp8cMessageEEE9constructIS3_JRKS3_EEEvPT_DpOT0_ @2534
    _ZNSt15__new_allocatorISt10_List_nodeIPN7omnetpp8cMessageEEEC2ERKS5_ @2535
    _ZNSt15__new_allocatorISt10_List_nodeIPN7omnetpp8cMessageEEEC2Ev @2536
    _ZNSt15__new_allocatorISt10_List_nodeIPN7omnetpp8cMessageEEED2Ev @2537
    _ZNSt15__new_allocatorISt10_List_nodeIdEE10deallocateEPS1_y @2538
    _ZNSt15__new_allocatorISt10_List_nodeIdEE7destroyIdEEvPT_ @2539
    _ZNSt15__new_allocatorISt10_List_nodeIdEE8allocateEyPKv @2540
    _ZNSt15__new_allocatorISt10_List_nodeIdEE9constructIdJRKdEEEvPT_DpOT0_ @2541
    _ZNSt15__new_allocatorISt10_List_nodeIdEEC2ERKS2_ @2542
    _ZNSt15__new_allocatorISt10_List_nodeIdEEC2Ev @2543
    _ZNSt15__new_allocatorISt10_List_nodeIdEED2Ev @2544
    _ZNSt15__new_allocatorISt13_Rb_tree_nodeISt4pairIKN7omnetpp7SimTimeEN4inet5units5valueIdNS6_7composeINS8_INS8_INS6_5units1mENS8_INS9_2kgENS6_3powINS9_1sELin2ELi1EEEEEEESA_EENSC_ISD_Lin1ELi1EEEEEEEEEE10deallocateEPSM_y @2545
    _ZNSt15__new_allocatorISt13_Rb_tree_nodeISt4pairIKN7omnetpp7SimTimeEN4inet5units5valueIdNS6_7composeINS8_INS8_INS6_5units1mENS8_INS9_2kgENS6_3powINS9_1sELin2ELi1EEEEEEESA_EENSC_ISD_Lin1ELi1EEEEEEEEEE7destroyISL_EEvPT_ @2546
    _ZNSt15__new_allocatorISt13_Rb_tree_nodeISt4pairIKN7omnetpp7SimTimeEN4inet5units5valueIdNS6_7composeINS8_INS8_INS6_5units1mENS8_INS9_2kgENS6_3powINS9_1sELin2ELi1EEEEEEESA_EENSC_ISD_Lin1ELi1EEEEEEEEEE8allocateEyPKv @2547
    _ZNSt15__new_allocatorISt13_Rb_tree_nodeISt4pairIKN7omnetpp7SimTimeEN4inet5units5valueIdNS6_7composeINS8_INS8_INS6_5units1mENS8_INS9_2kgENS6_3powINS9_1sELin2ELi1EEEEEEESA_EENSC_ISD_Lin1ELi1EEEEEEEEEE9constructISL_JS1_IS3_SK_EEEEvPT_DpOT0_ @2548
    _ZNSt15__new_allocatorISt13_Rb_tree_nodeISt4pairIKN7omnetpp7SimTimeEN4inet5units5valueIdNS6_7composeINS8_INS8_INS6_5units1mENS8_INS9_2kgENS6_3powINS9_1sELin2ELi1EEEEEEESA_EENSC_ISD_Lin1ELi1EEEEEEEEEEC2Ev @2549
    _ZNSt15__new_allocatorISt13_Rb_tree_nodeISt4pairIKPKN4inet13physicallayer6IRadioEPN5flora17LoRaNeighborCache10RadioEntryEEEE10deallocateEPSD_y @2550
    _ZNSt15__new_allocatorISt13_Rb_tree_nodeISt4pairIKPKN4inet13physicallayer6IRadioEPN5flora17LoRaNeighborCache10RadioEntryEEEE7destroyISC_EEvPT_ @2551
    _ZNSt15__new_allocatorISt13_Rb_tree_nodeISt4pairIKPKN4inet13physicallayer6IRadioEPN5flora17LoRaNeighborCache10RadioEntryEEEE8allocateEyPKv @2552
    _ZNSt15__new_allocatorISt13_Rb_tree_nodeISt4pairIKPKN4inet13physicallayer6IRadioEPN5flora17LoRaNeighborCache10RadioEntryEEEE9constructISC_JRKSt21piecewise_construct_tSt5tupleIJRS7_EESJ_IJEEEEEvPT_DpOT0_ @2553
    _ZNSt15__new_allocatorISt13_Rb_tree_nodeISt4pairIKPKN4inet13physicallayer6IRadioEPN5flora17LoRaNeighborCache10RadioEntryEEEEC2Ev @2554
    _ZNSt15__new_allocatorISt13_Rb_tree_nodeISt4pairIKPKN4inet13physicallayer6IRadioEPN5flora17LoRaNeighborCache10RadioEntryEEEED2Ev @2555
    _ZNSt15__new_allocatorISt13_Rb_tree_nodeISt4pairIKddEEE10deallocateEPS4_y @2556
    _ZNSt15__new_allocatorISt13_Rb_tree_nodeISt4pairIKddEEE7destroyIS3_EEvPT_ @2557
    _ZNSt15__new_allocatorISt13_Rb_tree_nodeISt4pairIKddEEE8allocateEyPKv @2558
    _ZNSt15__new_allocatorISt13_Rb_tree_nodeISt4pairIKddEEE9constructIS3_JRKSt21piecewise_construct_tSt5tupleIJOdEESA_IJEEEEEvPT_DpOT0_ @2559
    _ZNSt15__new_allocatorISt13_Rb_tree_nodeISt4pairIKddEEEC2Ev @2560
    _ZNSt15__new_allocatorISt13_Rb_tree_nodeISt4pairIKddEEED2Ev @2561
    _ZNSt15__new_allocatorISt13_Rb_tree_nodeISt4pairIKiiEEE10deallocateEPS4_y @2562
    _ZNSt15__new_allocatorISt13_Rb_tree_nodeISt4pairIKiiEEE7destroyIS3_EEvPT_ @2563
    _ZNSt15__new_allocatorISt13_Rb_tree_nodeISt4pairIKiiEEE8allocateEyPKv @2564
    _ZNSt15__new_allocatorISt13_Rb_tree_nodeISt4pairIKiiEEE9constructIS3_JRKSt21piecewise_construct_tSt5tupleIJOiEESA_IJEEEEEvPT_DpOT0_ @2565
    _ZNSt15__new_allocatorISt13_Rb_tree_nodeISt4pairIKiiEEEC2Ev @2566
    _ZNSt15__new_allocatorISt13_Rb_tree_nodeISt4pairIKiiEEED2Ev @2567
    _ZNSt15__new_allocatorISt4pairIPN7omnetpp10cComponentEiEEC2Ev @2568
    _ZNSt15__new_allocatorISt5tupleIJN4inet10MacAddressEiEEE10deallocateEPS3_y @2569
    _ZNSt15__new_allocatorISt5tupleIJN4inet10MacAddressEiEEEC2Ev @2570
    _ZNSt15__new_allocatorISt5tupleIJN4inet10MacAddressEiEEED2Ev @2571
    _ZNSt15__new_allocatorISt5tupleIJN4inet9L3AddressEddEEE10deallocateEPS3_y @2572
    _ZNSt15__new_allocatorISt5tupleIJN4inet9L3AddressEddEEE7destroyIS3_EEvPT_ @2573
    _ZNSt15__new_allocatorISt5tupleIJN4inet9L3AddressEddEEE8allocateEyPKv @2574
    _ZNSt15__new_allocatorISt5tupleIJN4inet9L3AddressEddEEE9constructIS3_JRKS2_ddEEEvPT_DpOT0_ @2575
    _ZNSt15__new_allocatorISt5tupleIJN4inet9L3AddressEddEEEC2ERKS4_ @2576
    _ZNSt15__new_allocatorISt5tupleIJN4inet9L3AddressEddEEEC2Ev @2577
    _ZNSt15__new_allocatorISt5tupleIJN4inet9L3AddressEddEEED2Ev @2578
    _ZNSt16allocator_traitsISaIN4inet12IntrusivePtrIKNS0_7TagBaseEEEEE10deallocateERS5_PS4_y @2579
    _ZNSt16allocator_traitsISaIN4inet13physicallayer10ApskSymbolEEE10deallocateERS3_PS2_y @2580
    _ZNSt16allocator_traitsISaIN4inet19SharingRegionTagSet9RegionTagINS0_7TagBaseEEEEE10deallocateERS5_PS4_y @2581
    _ZNSt16allocator_traitsISaIN4inet9L3AddressEEE10deallocateERS2_PS1_y @2582
    _ZNSt16allocator_traitsISaIN4inet9L3AddressEEE7destroyIS1_EEvRS2_PT_ @2583
    _ZNSt16allocator_traitsISaIN4inet9L3AddressEEE8allocateERS2_y @2584
    _ZNSt16allocator_traitsISaIN4inet9L3AddressEEE8max_sizeERKS2_ @2585
    _ZNSt16allocator_traitsISaIN4inet9L3AddressEEE9constructIS1_JRKS1_EEEvRS2_PT_DpOT0_ @2586
    _ZNSt16allocator_traitsISaIN5flora14receivedPacketEEE10deallocateERS2_PS1_y @2587
    _ZNSt16allocator_traitsISaIN5flora14receivedPacketEEE7destroyIS1_EEvRS2_PT_ @2588
    _ZNSt16allocator_traitsISaIN5flora14receivedPacketEEE8allocateERS2_y @2589
    _ZNSt16allocator_traitsISaIN5flora14receivedPacketEEE8max_sizeERKS2_ @2590
    _ZNSt16allocator_traitsISaIN5flora14receivedPacketEEE9constructIS1_JRKS1_EEEvRS2_PT_DpOT0_ @2591
    _ZNSt16allocator_traitsISaIN5flora14receivedPacketEEE9constructIS1_JS1_EEEvRS2_PT_DpOT0_ @2592
    _ZNSt16allocator_traitsISaIN5flora7knownGWEEE10deallocateERS2_PS1_y @2593
    _ZNSt16allocator_traitsISaIN5flora9knownNodeEEE10deallocateERS2_PS1_y @2594
    _ZNSt16allocator_traitsISaIN5flora9knownNodeEEE7destroyIS1_EEvRS2_PT_ @2595
    _ZNSt16allocator_traitsISaIN5flora9knownNodeEEE8allocateERS2_y @2596
    _ZNSt16allocator_traitsISaIN5flora9knownNodeEEE8max_sizeERKS2_ @2597
    _ZNSt16allocator_traitsISaIN5flora9knownNodeEEE9constructIS1_JRKS1_EEEvRS2_PT_DpOT0_ @2598
    _ZNSt16allocator_traitsISaINSt8__detail10_Hash_nodeIPPvLb0EEEEE10deallocateERS5_PS4_y @2599
    _ZNSt16allocator_traitsISaINSt8__detail10_Hash_nodeIPPvLb0EEEEE7destroyIS3_EEvRS5_PT_ @2600
    _ZNSt16allocator_traitsISaINSt8__detail10_Hash_nodeIPPvLb0EEEEE8allocateERS5_y @2601
    _ZNSt16allocator_traitsISaINSt8__detail10_Hash_nodeIPPvLb0EEEEE9constructIS3_JS3_EEEvRS5_PT_DpOT0_ @2602
    _ZNSt16allocator_traitsISaIPKN4inet13physicallayer6IRadioEEE10deallocateERS5_PS4_y @2603
    _ZNSt16allocator_traitsISaIPKN4inet13physicallayer6IRadioEEE37select_on_container_copy_constructionERKS5_ @2604
    _ZNSt16allocator_traitsISaIPKN4inet13physicallayer6IRadioEEE7destroyIS4_EEvRS5_PT_ @2605
    _ZNSt16allocator_traitsISaIPKN4inet13physicallayer6IRadioEEE8allocateERS5_y @2606
    _ZNSt16allocator_traitsISaIPKN4inet13physicallayer6IRadioEEE8max_sizeERKS5_ @2607
    _ZNSt16allocator_traitsISaIPKN4inet13physicallayer6IRadioEEE9constructIS4_JRKS4_EEEvRS5_PT_DpOT0_ @2608
    _ZNSt16allocator_traitsISaIPN5flora17LoRaNeighborCache10RadioEntryEEE10deallocateERS4_PS3_y @2609
    _ZNSt16allocator_traitsISaIPN5flora17LoRaNeighborCache10RadioEntryEEE7destroyIS3_EEvRS4_PT_ @2610
    _ZNSt16allocator_traitsISaIPN5flora17LoRaNeighborCache10RadioEntryEEE8allocateERS4_y @2611
    _ZNSt16allocator_traitsISaIPN5flora17LoRaNeighborCache10RadioEntryEEE8max_sizeERKS4_ @2612
    _ZNSt16allocator_traitsISaIPN5flora17LoRaNeighborCache10RadioEntryEEE9constructIS3_JRKS3_EEEvRS4_PT_DpOT0_ @2613
    _ZNSt16allocator_traitsISaIPN7omnetpp11cXMLElementEEE10deallocateERS3_PS2_y @2614
    _ZNSt16allocator_traitsISaIPNSt8__detail15_Hash_node_baseEEE10deallocateERS3_PS2_y @2615
    _ZNSt16allocator_traitsISaIPNSt8__detail15_Hash_node_baseEEE8allocateERS3_y @2616
    _ZNSt16allocator_traitsISaISt10_List_nodeIPN7omnetpp8cMessageEEEE10deallocateERS5_PS4_y @2617
    _ZNSt16allocator_traitsISaISt10_List_nodeIPN7omnetpp8cMessageEEEE7destroyIS3_EEvRS5_PT_ @2618
    _ZNSt16allocator_traitsISaISt10_List_nodeIPN7omnetpp8cMessageEEEE8allocateERS5_y @2619
    _ZNSt16allocator_traitsISaISt10_List_nodeIPN7omnetpp8cMessageEEEE9constructIS3_JRKS3_EEEvRS5_PT_DpOT0_ @2620
    _ZNSt16allocator_traitsISaISt10_List_nodeIdEEE10deallocateERS2_PS1_y @2621
    _ZNSt16allocator_traitsISaISt10_List_nodeIdEEE37select_on_container_copy_constructionERKS2_ @2622
    _ZNSt16allocator_traitsISaISt10_List_nodeIdEEE7destroyIdEEvRS2_PT_ @2623
    _ZNSt16allocator_traitsISaISt10_List_nodeIdEEE8allocateERS2_y @2624
    _ZNSt16allocator_traitsISaISt10_List_nodeIdEEE9constructIdJRKdEEEvRS2_PT_DpOT0_ @2625
    _ZNSt16allocator_traitsISaISt13_Rb_tree_nodeISt4pairIKN7omnetpp7SimTimeEN4inet5units5valueIdNS6_7composeINS8_INS8_INS6_5units1mENS8_INS9_2kgENS6_3powINS9_1sELin2ELi1EEEEEEESA_EENSC_ISD_Lin1ELi1EEEEEEEEEEE10deallocateERSN_PSM_y @2626
    _ZNSt16allocator_traitsISaISt13_Rb_tree_nodeISt4pairIKN7omnetpp7SimTimeEN4inet5units5valueIdNS6_7composeINS8_INS8_INS6_5units1mENS8_INS9_2kgENS6_3powINS9_1sELin2ELi1EEEEEEESA_EENSC_ISD_Lin1ELi1EEEEEEEEEEE7destroyISL_EEvRSN_PT_ @2627
    _ZNSt16allocator_traitsISaISt13_Rb_tree_nodeISt4pairIKN7omnetpp7SimTimeEN4inet5units5valueIdNS6_7composeINS8_INS8_INS6_5units1mENS8_INS9_2kgENS6_3powINS9_1sELin2ELi1EEEEEEESA_EENSC_ISD_Lin1ELi1EEEEEEEEEEE8allocateERSN_y @2628
    _ZNSt16allocator_traitsISaISt13_Rb_tree_nodeISt4pairIKN7omnetpp7SimTimeEN4inet5units5valueIdNS6_7composeINS8_INS8_INS6_5units1mENS8_INS9_2kgENS6_3powINS9_1sELin2ELi1EEEEEEESA_EENSC_ISD_Lin1ELi1EEEEEEEEEEE9constructISL_JS1_IS3_SK_EEEEvRSN_PT_DpOT0_ @2629
    _ZNSt16allocator_traitsISaISt13_Rb_tree_nodeISt4pairIKPKN4inet13physicallayer6IRadioEPN5flora17LoRaNeighborCache10RadioEntryEEEEE10deallocateERSE_PSD_y @2630
    _ZNSt16allocator_traitsISaISt13_Rb_tree_nodeISt4pairIKPKN4inet13physicallayer6IRadioEPN5flora17LoRaNeighborCache10RadioEntryEEEEE7destroyISC_EEvRSE_PT_ @2631
    _ZNSt16allocator_traitsISaISt13_Rb_tree_nodeISt4pairIKPKN4inet13physicallayer6IRadioEPN5flora17LoRaNeighborCache10RadioEntryEEEEE8allocateERSE_y @2632
    _ZNSt16allocator_traitsISaISt13_Rb_tree_nodeISt4pairIKPKN4inet13physicallayer6IRadioEPN5flora17LoRaNeighborCache10RadioEntryEEEEE9constructISC_JRKSt21piecewise_construct_tSt5tupleIJRS7_EESK_IJEEEEEvRSE_PT_DpOT0_ @2633
    _ZNSt16allocator_traitsISaISt13_Rb_tree_nodeISt4pairIKddEEEE10deallocateERS5_PS4_y @2634
    _ZNSt16allocator_traitsISaISt13_Rb_tree_nodeISt4pairIKddEEEE7destroyIS3_EEvRS5_PT_ @2635
    _ZNSt16allocator_traitsISaISt13_Rb_tree_nodeISt4pairIKddEEEE8allocateERS5_y @2636
    _ZNSt16allocator_traitsISaISt13_Rb_tree_nodeISt4pairIKddEEEE9constructIS3_JRKSt21piecewise_construct_tSt5tupleIJOdEESB_IJEEEEEvRS5_PT_DpOT0_ @2637
    _ZNSt16allocator_traitsISaISt13_Rb_tree_nodeISt4pairIKiiEEEE10deallocateERS5_PS4_y @2638
    _ZNSt16allocator_traitsISaISt13_Rb_tree_nodeISt4pairIKiiEEEE7destroyIS3_EEvRS5_PT_ @2639
    _ZNSt16allocator_traitsISaISt13_Rb_tree_nodeISt4pairIKiiEEEE8allocateERS5_y @2640
    _ZNSt16allocator_traitsISaISt13_Rb_tree_nodeISt4pairIKiiEEEE9constructIS3_JRKSt21piecewise_construct_tSt5tupleIJOiEESB_IJEEEEEvRS5_PT_DpOT0_ @2641
    _ZNSt16allocator_traitsISaISt5tupleIJN4inet10MacAddressEiEEEE10deallocateERS4_PS3_y @2642
    _ZNSt16allocator_traitsISaISt5tupleIJN4inet9L3AddressEddEEEE10deallocateERS4_PS3_y @2643
    _ZNSt16allocator_traitsISaISt5tupleIJN4inet9L3AddressEddEEEE37select_on_container_copy_constructionERKS4_ @2644
    _ZNSt16allocator_traitsISaISt5tupleIJN4inet9L3AddressEddEEEE7destroyIS3_EEvRS4_PT_ @2645
    _ZNSt16allocator_traitsISaISt5tupleIJN4inet9L3AddressEddEEEE8allocateERS4_y @2646
    _ZNSt16allocator_traitsISaISt5tupleIJN4inet9L3AddressEddEEEE8max_sizeERKS4_ @2647
    _ZNSt16allocator_traitsISaISt5tupleIJN4inet9L3AddressEddEEEE9constructIS3_JRKS2_ddEEEvRS4_PT_DpOT0_ @2648
    _ZNSt17_Rb_tree_iteratorISt4pairIKN7omnetpp7SimTimeEN4inet5units5valueIdNS5_7composeINS7_INS7_INS5_5units1mENS7_INS8_2kgENS5_3powINS8_1sELin2ELi1EEEEEEES9_EENSB_ISC_Lin1ELi1EEEEEEEEEC2EPSt18_Rb_tree_node_base @2649
    _ZNSt17_Rb_tree_iteratorISt4pairIKN7omnetpp7SimTimeEN4inet5units5valueIdNS5_7composeINS7_INS7_INS5_5units1mENS7_INS8_2kgENS5_3powINS8_1sELin2ELi1EEEEEEES9_EENSB_ISC_Lin1ELi1EEEEEEEEEmmEv @2650
    _ZNSt17_Rb_tree_iteratorISt4pairIKN7omnetpp7SimTimeEN4inet5units5valueIdNS5_7composeINS7_INS7_INS5_5units1mENS7_INS8_2kgENS5_3powINS8_1sELin2ELi1EEEEEEES9_EENSB_ISC_Lin1ELi1EEEEEEEEEppEv @2651
    _ZNSt17_Rb_tree_iteratorISt4pairIKPKN4inet13physicallayer6IRadioEPN5flora17LoRaNeighborCache10RadioEntryEEEC2EPSt18_Rb_tree_node_base @2652
    _ZNSt17_Rb_tree_iteratorISt4pairIKPKN4inet13physicallayer6IRadioEPN5flora17LoRaNeighborCache10RadioEntryEEEmmEv @2653
    _ZNSt17_Rb_tree_iteratorISt4pairIKPKN4inet13physicallayer6IRadioEPN5flora17LoRaNeighborCache10RadioEntryEEEppEv @2654
    _ZNSt17_Rb_tree_iteratorISt4pairIKddEEC2EPSt18_Rb_tree_node_base @2655
    _ZNSt17_Rb_tree_iteratorISt4pairIKddEEmmEv @2656
    _ZNSt17_Rb_tree_iteratorISt4pairIKddEEppEv @2657
    _ZNSt17_Rb_tree_iteratorISt4pairIKiiEEC2EPSt18_Rb_tree_node_base @2658
    _ZNSt17_Rb_tree_iteratorISt4pairIKiiEEmmEv @2659
    _ZNSt17_Rb_tree_iteratorISt4pairIKiiEEppEv @2660
    _ZNSt19__ptr_traits_ptr_toIPNSt8__detail10_Hash_nodeIPPvLb0EEES4_Lb0EE10pointer_toERS4_ @2661
    _ZNSt19__ptr_traits_ptr_toIPPNSt8__detail15_Hash_node_baseES2_Lb0EE10pointer_toERS2_ @2662
    _ZNSt20_List_const_iteratorIPN7omnetpp8cMessageEEC2ERKSt14_List_iteratorIS2_E @2663
    _ZNSt20_List_const_iteratorIdEC2EPKNSt8__detail15_List_node_baseE @2664
    _ZNSt20_List_const_iteratorIdEppEv @2665
    _ZNSt20_Rb_tree_key_compareISt4lessIN7omnetpp7SimTimeEEEC2Ev @2666
    _ZNSt20_Rb_tree_key_compareISt4lessIPKN4inet13physicallayer6IRadioEEEC2Ev @2667
    _ZNSt20_Rb_tree_key_compareISt4lessIdEEC2Ev @2668
    _ZNSt20_Rb_tree_key_compareISt4lessIiEEC2Ev @2669
    _ZNSt20__uninitialized_copyILb0EE13__uninit_copyIN9__gnu_cxx17__normal_iteratorIPKSt5tupleIJN4inet9L3AddressEddEESt6vectorIS7_SaIS7_EEEEPS7_EET0_T_SG_SF_ @2670
    _ZNSt20__uninitialized_copyILb0EE13__uninit_copyIPKN4inet9L3AddressEPS3_EET0_T_S8_S7_ @2671
    _ZNSt20__uninitialized_copyILb0EE13__uninit_copyIPKN5flora9knownNodeEPS3_EET0_T_S8_S7_ @2672
    _ZNSt20__uninitialized_copyILb0EE13__uninit_copyIPKSt5tupleIJN4inet9L3AddressEddEEPS5_EET0_T_SA_S9_ @2673
    _ZNSt20__uninitialized_copyILb1EE13__uninit_copyIN9__gnu_cxx17__normal_iteratorIPKPKN4inet13physicallayer6IRadioESt6vectorIS8_SaIS8_EEEEPS8_EET0_T_SH_SG_ @2674
    _ZNSt23_Rb_tree_const_iteratorISt4pairIKN7omnetpp7SimTimeEN4inet5units5valueIdNS5_7composeINS7_INS7_INS5_5units1mENS7_INS8_2kgENS5_3powINS8_1sELin2ELi1EEEEEEES9_EENSB_ISC_Lin1ELi1EEEEEEEEEC2ERKSt17_Rb_tree_iteratorISK_E @2675
    _ZNSt23_Rb_tree_const_iteratorISt4pairIKN7omnetpp7SimTimeEN4inet5units5valueIdNS5_7composeINS7_INS7_INS5_5units1mENS7_INS8_2kgENS5_3powINS8_1sELin2ELi1EEEEEEES9_EENSB_ISC_Lin1ELi1EEEEEEEEEppEi @2676
    _ZNSt23_Rb_tree_const_iteratorISt4pairIKPKN4inet13physicallayer6IRadioEPN5flora17LoRaNeighborCache10RadioEntryEEEC2EPKSt18_Rb_tree_node_base @2677
    _ZNSt23_Rb_tree_const_iteratorISt4pairIKPKN4inet13physicallayer6IRadioEPN5flora17LoRaNeighborCache10RadioEntryEEEC2ERKSt17_Rb_tree_iteratorISB_E @2678
    _ZNSt23_Rb_tree_const_iteratorISt4pairIKddEEC2EPKSt18_Rb_tree_node_base @2679
    _ZNSt23_Rb_tree_const_iteratorISt4pairIKddEEC2ERKSt17_Rb_tree_iteratorIS2_E @2680
    _ZNSt23_Rb_tree_const_iteratorISt4pairIKiiEEC2EPKSt18_Rb_tree_node_base @2681
    _ZNSt23_Rb_tree_const_iteratorISt4pairIKiiEEC2ERKSt17_Rb_tree_iteratorIS2_E @2682
    _ZNSt3mapIN7omnetpp7SimTimeEN4inet5units5valueIdNS3_7composeINS5_INS5_INS3_5units1mENS5_INS6_2kgENS3_3powINS6_1sELin2ELi1EEEEEEES7_EENS9_ISA_Lin1ELi1EEEEEEESt4lessIS1_ESaISt4pairIKS1_SH_EEE3endEv @2683
    _ZNSt3mapIN7omnetpp7SimTimeEN4inet5units5valueIdNS3_7composeINS5_INS5_INS3_5units1mENS5_INS6_2kgENS3_3powINS6_1sELin2ELi1EEEEEEES7_EENS9_ISA_Lin1ELi1EEEEEEESt4lessIS1_ESaISt4pairIKS1_SH_EEE4findERSL_ @2684
    _ZNSt3mapIN7omnetpp7SimTimeEN4inet5units5valueIdNS3_7composeINS5_INS5_INS3_5units1mENS5_INS6_2kgENS3_3powINS6_1sELin2ELi1EEEEEEES7_EENS9_ISA_Lin1ELi1EEEEEEESt4lessIS1_ESaISt4pairIKS1_SH_EEE5beginEv @2685
    _ZNSt3mapIN7omnetpp7SimTimeEN4inet5units5valueIdNS3_7composeINS5_INS5_INS3_5units1mENS5_INS6_2kgENS3_3powINS6_1sELin2ELi1EEEEEEES7_EENS9_ISA_Lin1ELi1EEEEEEESt4lessIS1_ESaISt4pairIKS1_SH_EEE6insertISK_IS1_SH_EEENSt9enable_ifIXsr16is_constructibleISM_T_EE5valueESK_ISt17_Rb_tree_iteratorISM_EbEE4typeEOSS_ @2686
    _ZNSt3mapIN7omnetpp7SimTimeEN4inet5units5valueIdNS3_7composeINS5_INS5_INS3_5units1mENS5_INS6_2kgENS3_3powINS6_1sELin2ELi1EEEEEEES7_EENS9_ISA_Lin1ELi1EEEEEEESt4lessIS1_ESaISt4pairIKS1_SH_EEEC2Ev @2687
    _ZNSt3mapIPKN4inet13physicallayer6IRadioEPN5flora17LoRaNeighborCache10RadioEntryESt4lessIS4_ESaISt4pairIKS4_S8_EEE11lower_boundERSC_ @2688
    _ZNSt3mapIPKN4inet13physicallayer6IRadioEPN5flora17LoRaNeighborCache10RadioEntryESt4lessIS4_ESaISt4pairIKS4_S8_EEE3endEv @2689
    _ZNSt3mapIPKN4inet13physicallayer6IRadioEPN5flora17LoRaNeighborCache10RadioEntryESt4lessIS4_ESaISt4pairIKS4_S8_EEEC2Ev @2690
    _ZNSt3mapIPKN4inet13physicallayer6IRadioEPN5flora17LoRaNeighborCache10RadioEntryESt4lessIS4_ESaISt4pairIKS4_S8_EEED2Ev @2691
    _ZNSt3mapIPKN4inet13physicallayer6IRadioEPN5flora17LoRaNeighborCache10RadioEntryESt4lessIS4_ESaISt4pairIKS4_S8_EEEixERSC_ @2692
    _ZNSt3mapIddSt4lessIdESaISt4pairIKddEEE11lower_boundERS3_ @2693
    _ZNSt3mapIddSt4lessIdESaISt4pairIKddEEE3endEv @2694
    _ZNSt3mapIddSt4lessIdESaISt4pairIKddEEEC2Ev @2695
    _ZNSt3mapIddSt4lessIdESaISt4pairIKddEEED2Ev @2696
    _ZNSt3mapIddSt4lessIdESaISt4pairIKddEEEixEOd @2697
    _ZNSt3mapIiiSt4lessIiESaISt4pairIKiiEEE11lower_boundERS3_ @2698
    _ZNSt3mapIiiSt4lessIiESaISt4pairIKiiEEE3endEv @2699
    _ZNSt3mapIiiSt4lessIiESaISt4pairIKiiEEE5beginEv @2700
    _ZNSt3mapIiiSt4lessIiESaISt4pairIKiiEEEC2Ev @2701
    _ZNSt3mapIiiSt4lessIiESaISt4pairIKiiEEED2Ev @2702
    _ZNSt3mapIiiSt4lessIiESaISt4pairIKiiEEEixEOi @2703
    _ZNSt4pairIKN7omnetpp7SimTimeEN4inet5units5valueIdNS4_7composeINS6_INS6_INS4_5units1mENS6_INS7_2kgENS4_3powINS7_1sELin2ELi1EEEEEEES8_EENSA_ISB_Lin1ELi1EEEEEEEEC2IS1_SI_Lb1EEEOS_IT_T0_E @2704
    _ZNSt4pairIKPKN4inet13physicallayer6IRadioEPN5flora17LoRaNeighborCache10RadioEntryEEC2IJRS5_EJEEESt21piecewise_construct_tSt5tupleIJDpT_EESE_IJDpT0_EE @2705
    _ZNSt4pairIKPKN4inet13physicallayer6IRadioEPN5flora17LoRaNeighborCache10RadioEntryEEC2IJRS5_EJLy0EEJEJEEERSt5tupleIJDpT_EERSD_IJDpT1_EESt12_Index_tupleIJXspT0_EEESM_IJXspT2_EEE @2706
    _ZNSt4pairIKddEC2IJOdEJEEESt21piecewise_construct_tSt5tupleIJDpT_EES5_IJDpT0_EE @2707
    _ZNSt4pairIKddEC2IJOdEJLy0EEJEJEEERSt5tupleIJDpT_EERS4_IJDpT1_EESt12_Index_tupleIJXspT0_EEESD_IJXspT2_EEE @2708
    _ZNSt4pairIKiiEC2IJOiEJEEESt21piecewise_construct_tSt5tupleIJDpT_EES5_IJDpT0_EE @2709
    _ZNSt4pairIKiiEC2IJOiEJLy0EEJEJEEERSt5tupleIJDpT_EERS4_IJDpT1_EESt12_Index_tupleIJXspT0_EEESD_IJXspT2_EEE @2710
    _ZNSt4pairIN7omnetpp7SimTimeEN4inet5units5valueIdNS3_7composeINS5_INS5_INS3_5units1mENS5_INS6_2kgENS3_3powINS6_1sELin2ELi1EEEEEEES7_EENS9_ISA_Lin1ELi1EEEEEEEEC2IRS1_RKSH_Lb1EEEOT_OT0_ @2711
    _ZNSt4pairIN7omnetpp7SimTimeEN4inet5units5valueIdNS3_7composeINS5_INS5_INS3_5units1mENS5_INS6_2kgENS3_3powINS6_1sELin2ELi1EEEEEEES7_EENS9_ISA_Lin1ELi1EEEEEEEEC2IRS1_RSH_Lb1EEEOT_OT0_ @2712
    _ZNSt4pairIN7omnetpp7SimTimeEN4inet5units5valueIdNS3_7composeINS5_INS5_INS3_5units1mENS5_INS6_2kgENS3_3powINS6_1sELin2ELi1EEEEEEES7_EENS9_ISA_Lin1ELi1EEEEEEEEC2IRS1_SH_Lb1EEEOT_OT0_ @2713
    _ZNSt4pairIN7omnetpp7SimTimeEN4inet5units5valueIdNS3_7composeINS5_INS5_INS3_5units1mENS5_INS6_2kgENS3_3powINS6_1sELin2ELi1EEEEEEES7_EENS9_ISA_Lin1ELi1EEEEEEEEC2IS1_SH_Lb1EEERKS1_RKSH_ @2714
    _ZNSt4pairINSt8__detail14_Node_iteratorIPPvLb1ELb0EEEbEC2IRS4_bLb1EEEOT_OT0_ @2715
    _ZNSt4pairINSt8__detail14_Node_iteratorIPPvLb1ELb0EEEbEC2IS4_bLb1EEEOT_OT0_ @2716
    _ZNSt4pairIPSt18_Rb_tree_node_baseS1_EC2IRPSt13_Rb_tree_nodeIS_IKN7omnetpp7SimTimeEN4inet5units5valueIdNS9_7composeINSB_INSB_INS9_5units1mENSB_INSC_2kgENS9_3powINSC_1sELin2ELi1EEEEEEESD_EENSF_ISG_Lin1ELi1EEEEEEEEERS1_Lb1EEEOT_OT0_ @2717
    _ZNSt4pairIPSt18_Rb_tree_node_baseS1_EC2IRPSt13_Rb_tree_nodeIS_IKPKN4inet13physicallayer6IRadioEPN5flora17LoRaNeighborCache10RadioEntryEEERS1_Lb1EEEOT_OT0_ @2718
    _ZNSt4pairIPSt18_Rb_tree_node_baseS1_EC2IRPSt13_Rb_tree_nodeIS_IKddEERS1_Lb1EEEOT_OT0_ @2719
    _ZNSt4pairIPSt18_Rb_tree_node_baseS1_EC2IRPSt13_Rb_tree_nodeIS_IKiiEERS1_Lb1EEEOT_OT0_ @2720
    _ZNSt4pairIPSt18_Rb_tree_node_baseS1_EC2IRS1_S4_Lb1EEEOT_OT0_ @2721
    _ZNSt4pairIPSt18_Rb_tree_node_baseS1_EC2IS1_S1_Lb1EEERKS1_S5_ @2722
    _ZNSt4pairISt17_Rb_tree_iteratorIS_IKN7omnetpp7SimTimeEN4inet5units5valueIdNS5_7composeINS7_INS7_INS5_5units1mENS7_INS8_2kgENS5_3powINS8_1sELin2ELi1EEEEEEES9_EENSB_ISC_Lin1ELi1EEEEEEEEEbEC2ISL_bLb1EEEOT_OT0_ @2723
    _ZNSt4pairIddEC2IRdS2_Lb1EEEOT_OT0_ @2724
    _ZNSt4pairIddEC2IiiLb1EEEOS_IT_T0_E @2725
    _ZNSt4pairIddEaSEOS0_ @2726
    _ZNSt4pairIiiEC2IiiLb1EEEOT_OT0_ @2727
    _ZNSt5tupleIJN4inet9L3AddressEddEEC2ERKS2_ @2728
    _ZNSt5tupleIJN4inet9L3AddressEddEEC2IJRKS1_ddELb1ELb1EEEDpOT_ @2729
    _ZNSt5tupleIJOdEEC2EOS1_ @2730
    _ZNSt5tupleIJOdEEC2IJdELb1ELb1EEEDpOT_ @2731
    _ZNSt5tupleIJOiEEC2EOS1_ @2732
    _ZNSt5tupleIJOiEEC2IJiELb1ELb1EEEDpOT_ @2733
    _ZNSt5tupleIJRKPKN4inet13physicallayer6IRadioEEEC2EOS7_ @2734
    _ZNSt5tupleIJRKPKN4inet13physicallayer6IRadioEEEC2ILb1ELb1EEES6_ @2735
    _ZNSt6vectorIN4inet12IntrusivePtrIKNS0_7TagBaseEEESaIS4_EED2Ev @2736
    _ZNSt6vectorIN4inet12IntrusivePtrIKNS0_7TagBaseEEESaIS4_EEixEy @2737
    _ZNSt6vectorIN4inet13physicallayer10ApskSymbolESaIS2_EEC2Ev @2738
    _ZNSt6vectorIN4inet13physicallayer10ApskSymbolESaIS2_EED2Ev @2739
    _ZNSt6vectorIN4inet19SharingRegionTagSet9RegionTagINS0_7TagBaseEEESaIS4_EED2Ev @2740
    _ZNSt6vectorIN4inet9L3AddressESaIS1_EE11_S_max_sizeERKS2_ @2741
    _ZNSt6vectorIN4inet9L3AddressESaIS1_EE17_M_realloc_insertIJRKS1_EEEvN9__gnu_cxx17__normal_iteratorIPS1_S3_EEDpOT_ @2742
    _ZNSt6vectorIN4inet9L3AddressESaIS1_EE3endEv @2743
    _ZNSt6vectorIN4inet9L3AddressESaIS1_EE5beginEv @2744
    _ZNSt6vectorIN4inet9L3AddressESaIS1_EE9push_backERKS1_ @2745
    _ZNSt6vectorIN4inet9L3AddressESaIS1_EEC2Ev @2746
    _ZNSt6vectorIN4inet9L3AddressESaIS1_EED2Ev @2747
    _ZNSt6vectorIN4inet9L3AddressESaIS1_EEixEy @2748
    _ZNSt6vectorIN5flora14receivedPacketESaIS1_EE11_S_max_sizeERKS2_ @2749
    _ZNSt6vectorIN5flora14receivedPacketESaIS1_EE11_S_relocateEPS1_S4_S4_RS2_ @2750
    _ZNSt6vectorIN5flora14receivedPacketESaIS1_EE14_S_do_relocateEPS1_S4_S4_RS2_St17integral_constantIbLb1EE @2751
    _ZNSt6vectorIN5flora14receivedPacketESaIS1_EE15_M_erase_at_endEPS1_ @2752
    _ZNSt6vectorIN5flora14receivedPacketESaIS1_EE17_M_realloc_insertIJRKS1_EEEvN9__gnu_cxx17__normal_iteratorIPS1_S3_EEDpOT_ @2753
    _ZNSt6vectorIN5flora14receivedPacketESaIS1_EE3endEv @2754
    _ZNSt6vectorIN5flora14receivedPacketESaIS1_EE4backEv @2755
    _ZNSt6vectorIN5flora14receivedPacketESaIS1_EE5beginEv @2756
    _ZNSt6vectorIN5flora14receivedPacketESaIS1_EE5clearEv @2757
    _ZNSt6vectorIN5flora14receivedPacketESaIS1_EE5eraseEN9__gnu_cxx17__normal_iteratorIPKS1_S3_EE @2758
    _ZNSt6vectorIN5flora14receivedPacketESaIS1_EE8_M_eraseEN9__gnu_cxx17__normal_iteratorIPS1_S3_EE @2759
    _ZNSt6vectorIN5flora14receivedPacketESaIS1_EE8pop_backEv @2760
    _ZNSt6vectorIN5flora14receivedPacketESaIS1_EE9push_backERKS1_ @2761
    _ZNSt6vectorIN5flora14receivedPacketESaIS1_EEC2Ev @2762
    _ZNSt6vectorIN5flora14receivedPacketESaIS1_EED2Ev @2763
    _ZNSt6vectorIN5flora14receivedPacketESaIS1_EEixEy @2764
    _ZNSt6vectorIN5flora7knownGWESaIS1_EEC2Ev @2765
    _ZNSt6vectorIN5flora7knownGWESaIS1_EED2Ev @2766
    _ZNSt6vectorIN5flora9knownNodeESaIS1_EE11_S_max_sizeERKS2_ @2767
    _ZNSt6vectorIN5flora9knownNodeESaIS1_EE15_M_erase_at_endEPS1_ @2768
    _ZNSt6vectorIN5flora9knownNodeESaIS1_EE17_M_realloc_insertIJRKS1_EEEvN9__gnu_cxx17__normal_iteratorIPS1_S3_EEDpOT_ @2769
    _ZNSt6vectorIN5flora9knownNodeESaIS1_EE3endEv @2770
    _ZNSt6vectorIN5flora9knownNodeESaIS1_EE5beginEv @2771
    _ZNSt6vectorIN5flora9knownNodeESaIS1_EE5clearEv @2772
    _ZNSt6vectorIN5flora9knownNodeESaIS1_EE9push_backERKS1_ @2773
    _ZNSt6vectorIN5flora9knownNodeESaIS1_EEC2Ev @2774
    _ZNSt6vectorIN5flora9knownNodeESaIS1_EED2Ev @2775
    _ZNSt6vectorIN5flora9knownNodeESaIS1_EEixEy @2776
    _ZNSt6vectorIPKN4inet13physicallayer6IRadioESaIS4_EE11_S_max_sizeERKS5_ @2777
    _ZNSt6vectorIPKN4inet13physicallayer6IRadioESaIS4_EE11_S_relocateEPS4_S7_S7_RS5_ @2778
    _ZNSt6vectorIPKN4inet13physicallayer6IRadioESaIS4_EE14_S_do_relocateEPS4_S7_S7_RS5_St17integral_constantIbLb1EE @2779
    _ZNSt6vectorIPKN4inet13physicallayer6IRadioESaIS4_EE15_M_erase_at_endEPS4_ @2780
    _ZNSt6vectorIPKN4inet13physicallayer6IRadioESaIS4_EE17_M_realloc_insertIJRKS4_EEEvN9__gnu_cxx17__normal_iteratorIPS4_S6_EEDpOT_ @2781
    _ZNSt6vectorIPKN4inet13physicallayer6IRadioESaIS4_EE3endEv @2782
    _ZNSt6vectorIPKN4inet13physicallayer6IRadioESaIS4_EE5beginEv @2783
    _ZNSt6vectorIPKN4inet13physicallayer6IRadioESaIS4_EE5clearEv @2784
    _ZNSt6vectorIPKN4inet13physicallayer6IRadioESaIS4_EE5eraseEN9__gnu_cxx17__normal_iteratorIPKS4_S6_EE @2785
    _ZNSt6vectorIPKN4inet13physicallayer6IRadioESaIS4_EE5eraseEN9__gnu_cxx17__normal_iteratorIPKS4_S6_EESB_ @2786
    _ZNSt6vectorIPKN4inet13physicallayer6IRadioESaIS4_EE8_M_eraseEN9__gnu_cxx17__normal_iteratorIPS4_S6_EE @2787
    _ZNSt6vectorIPKN4inet13physicallayer6IRadioESaIS4_EE8_M_eraseEN9__gnu_cxx17__normal_iteratorIPS4_S6_EESA_ @2788
    _ZNSt6vectorIPKN4inet13physicallayer6IRadioESaIS4_EE9push_backERKS4_ @2789
    _ZNSt6vectorIPKN4inet13physicallayer6IRadioESaIS4_EEC2ERKS6_ @2790
    _ZNSt6vectorIPKN4inet13physicallayer6IRadioESaIS4_EEC2Ev @2791
    _ZNSt6vectorIPKN4inet13physicallayer6IRadioESaIS4_EED2Ev @2792
    _ZNSt6vectorIPN5flora17LoRaNeighborCache10RadioEntryESaIS3_EE11_S_max_sizeERKS4_ @2793
    _ZNSt6vectorIPN5flora17LoRaNeighborCache10RadioEntryESaIS3_EE11_S_relocateEPS3_S6_S6_RS4_ @2794
    _ZNSt6vectorIPN5flora17LoRaNeighborCache10RadioEntryESaIS3_EE14_S_do_relocateEPS3_S6_S6_RS4_St17integral_constantIbLb1EE @2795
    _ZNSt6vectorIPN5flora17LoRaNeighborCache10RadioEntryESaIS3_EE17_M_realloc_insertIJRKS3_EEEvN9__gnu_cxx17__normal_iteratorIPS3_S5_EEDpOT_ @2796
    _ZNSt6vectorIPN5flora17LoRaNeighborCache10RadioEntryESaIS3_EE3endEv @2797
    _ZNSt6vectorIPN5flora17LoRaNeighborCache10RadioEntryESaIS3_EE5beginEv @2798
    _ZNSt6vectorIPN5flora17LoRaNeighborCache10RadioEntryESaIS3_EE5eraseEN9__gnu_cxx17__normal_iteratorIPKS3_S5_EE @2799
    _ZNSt6vectorIPN5flora17LoRaNeighborCache10RadioEntryESaIS3_EE8_M_eraseEN9__gnu_cxx17__normal_iteratorIPS3_S5_EE @2800
    _ZNSt6vectorIPN5flora17LoRaNeighborCache10RadioEntryESaIS3_EE9push_backERKS3_ @2801
    _ZNSt6vectorIPN5flora17LoRaNeighborCache10RadioEntryESaIS3_EEC2Ev @2802
    _ZNSt6vectorIPN5flora17LoRaNeighborCache10RadioEntryESaIS3_EED2Ev @2803
    _ZNSt6vectorIPN7omnetpp11cXMLElementESaIS2_EE14_M_move_assignEOS4_St17integral_constantIbLb1EE @2804
    _ZNSt6vectorIPN7omnetpp11cXMLElementESaIS2_EE3endEv @2805
    _ZNSt6vectorIPN7omnetpp11cXMLElementESaIS2_EE5beginEv @2806
    _ZNSt6vectorIPN7omnetpp11cXMLElementESaIS2_EE5frontEv @2807
    _ZNSt6vectorIPN7omnetpp11cXMLElementESaIS2_EEC2ERKS3_ @2808
    _ZNSt6vectorIPN7omnetpp11cXMLElementESaIS2_EEC2Ev @2809
    _ZNSt6vectorIPN7omnetpp11cXMLElementESaIS2_EED2Ev @2810
    _ZNSt6vectorIPN7omnetpp11cXMLElementESaIS2_EEaSEOS4_ @2811
    _ZNSt6vectorISt4pairIPN7omnetpp10cComponentEiESaIS4_EEC2Ev @2812
    _ZNSt6vectorISt5tupleIJN4inet10MacAddressEiEESaIS3_EEC2Ev @2813
    _ZNSt6vectorISt5tupleIJN4inet10MacAddressEiEESaIS3_EED2Ev @2814
    _ZNSt6vectorISt5tupleIJN4inet9L3AddressEddEESaIS3_EE11_S_max_sizeERKS4_ @2815
    _ZNSt6vectorISt5tupleIJN4inet9L3AddressEddEESaIS3_EE12emplace_backIJRKS2_ddEEEvDpOT_ @2816
    _ZNSt6vectorISt5tupleIJN4inet9L3AddressEddEESaIS3_EE14_M_move_assignEOS5_St17integral_constantIbLb1EE @2817
    _ZNSt6vectorISt5tupleIJN4inet9L3AddressEddEESaIS3_EE17_M_realloc_insertIJRKS2_ddEEEvN9__gnu_cxx17__normal_iteratorIPS3_S5_EEDpOT_ @2818
    _ZNSt6vectorISt5tupleIJN4inet9L3AddressEddEESaIS3_EE3endEv @2819
    _ZNSt6vectorISt5tupleIJN4inet9L3AddressEddEESaIS3_EE5beginEv @2820
    _ZNSt6vectorISt5tupleIJN4inet9L3AddressEddEESaIS3_EEC2EOS5_ @2821
    _ZNSt6vectorISt5tupleIJN4inet9L3AddressEddEESaIS3_EEC2ERKS4_ @2822
    _ZNSt6vectorISt5tupleIJN4inet9L3AddressEddEESaIS3_EEC2ERKS5_ @2823
    _ZNSt6vectorISt5tupleIJN4inet9L3AddressEddEESaIS3_EEC2Ev @2824
    _ZNSt6vectorISt5tupleIJN4inet9L3AddressEddEESaIS3_EED2Ev @2825
    _ZNSt6vectorISt5tupleIJN4inet9L3AddressEddEESaIS3_EEaSEOS5_ @2826
    _ZNSt6vectorISt5tupleIJN4inet9L3AddressEddEESaIS3_EEixEy @2827
    _ZNSt7__cxx1110_List_baseIPN7omnetpp8cMessageESaIS3_EE10_List_implC2EOSaISt10_List_nodeIS3_EE @2828
    _ZNSt7__cxx1110_List_baseIPN7omnetpp8cMessageESaIS3_EE10_List_implC2Ev @2829
    _ZNSt7__cxx1110_List_baseIPN7omnetpp8cMessageESaIS3_EE10_List_implD2Ev @2830
    _ZNSt7__cxx1110_List_baseIPN7omnetpp8cMessageESaIS3_EE11_M_dec_sizeEy @2831
    _ZNSt7__cxx1110_List_baseIPN7omnetpp8cMessageESaIS3_EE11_M_get_nodeEv @2832
    _ZNSt7__cxx1110_List_baseIPN7omnetpp8cMessageESaIS3_EE11_M_inc_sizeEy @2833
    _ZNSt7__cxx1110_List_baseIPN7omnetpp8cMessageESaIS3_EE11_M_put_nodeEPSt10_List_nodeIS3_E @2834
    _ZNSt7__cxx1110_List_baseIPN7omnetpp8cMessageESaIS3_EE21_M_get_Node_allocatorEv @2835
    _ZNSt7__cxx1110_List_baseIPN7omnetpp8cMessageESaIS3_EE8_M_clearEv @2836
    _ZNSt7__cxx1110_List_baseIPN7omnetpp8cMessageESaIS3_EEC2EOSaISt10_List_nodeIS3_EE @2837
    _ZNSt7__cxx1110_List_baseIPN7omnetpp8cMessageESaIS3_EEC2Ev @2838
    _ZNSt7__cxx1110_List_baseIPN7omnetpp8cMessageESaIS3_EED2Ev @2839
    _ZNSt7__cxx1110_List_baseIdSaIdEE10_List_implC2EOSaISt10_List_nodeIdEE @2840
    _ZNSt7__cxx1110_List_baseIdSaIdEE10_List_implC2Ev @2841
    _ZNSt7__cxx1110_List_baseIdSaIdEE10_List_implD2Ev @2842
    _ZNSt7__cxx1110_List_baseIdSaIdEE11_M_dec_sizeEy @2843
    _ZNSt7__cxx1110_List_baseIdSaIdEE11_M_get_nodeEv @2844
    _ZNSt7__cxx1110_List_baseIdSaIdEE11_M_inc_sizeEy @2845
    _ZNSt7__cxx1110_List_baseIdSaIdEE11_M_put_nodeEPSt10_List_nodeIdE @2846
    _ZNSt7__cxx1110_List_baseIdSaIdEE21_M_get_Node_allocatorEv @2847
    _ZNSt7__cxx1110_List_baseIdSaIdEE8_M_clearEv @2848
    _ZNSt7__cxx1110_List_baseIdSaIdEEC2EOSaISt10_List_nodeIdEE @2849
    _ZNSt7__cxx1110_List_baseIdSaIdEEC2Ev @2850
    _ZNSt7__cxx1110_List_baseIdSaIdEED2Ev @2851
    _ZNSt7__cxx114listIPN7omnetpp8cMessageESaIS3_EE11_M_transferESt14_List_iteratorIS3_ES7_S7_ @2852
    _ZNSt7__cxx114listIPN7omnetpp8cMessageESaIS3_EE14_M_create_nodeIJRKS3_EEEPSt10_List_nodeIS3_EDpOT_ @2853
    _ZNSt7__cxx114listIPN7omnetpp8cMessageESaIS3_EE25_M_check_equal_allocatorsERS5_ @2854
    _ZNSt7__cxx114listIPN7omnetpp8cMessageESaIS3_EE3endEv @2855
    _ZNSt7__cxx114listIPN7omnetpp8cMessageESaIS3_EE5beginEv @2856
    _ZNSt7__cxx114listIPN7omnetpp8cMessageESaIS3_EE6removeERKS3_ @2857
    _ZNSt7__cxx114listIPN7omnetpp8cMessageESaIS3_EE6spliceESt20_List_const_iteratorIS3_EOS5_S7_ @2858
    _ZNSt7__cxx114listIPN7omnetpp8cMessageESaIS3_EE6spliceESt20_List_const_iteratorIS3_ERS5_S7_ @2859
    _ZNSt7__cxx114listIPN7omnetpp8cMessageESaIS3_EE9_M_insertIJRKS3_EEEvSt14_List_iteratorIS3_EDpOT_ @2860
    _ZNSt7__cxx114listIPN7omnetpp8cMessageESaIS3_EE9push_backERKS3_ @2861
    _ZNSt7__cxx114listIPN7omnetpp8cMessageESaIS3_EEC2ERKS4_ @2862
    _ZNSt7__cxx114listIPN7omnetpp8cMessageESaIS3_EEC2Ev @2863
    _ZNSt7__cxx114listIPN7omnetpp8cMessageESaIS3_EED2Ev @2864
    _ZNSt7__cxx114listIdSaIdEE12emplace_backIJRKdEEEvDpOT_ @2865
    _ZNSt7__cxx114listIdSaIdEE14_M_create_nodeIJRKdEEEPSt10_List_nodeIdEDpOT_ @2866
    _ZNSt7__cxx114listIdSaIdEE22_M_initialize_dispatchISt20_List_const_iteratorIdEEEvT_S6_St12__false_type @2867
    _ZNSt7__cxx114listIdSaIdEE3endEv @2868
    _ZNSt7__cxx114listIdSaIdEE5beginEv @2869
    _ZNSt7__cxx114listIdSaIdEE8_M_eraseESt14_List_iteratorIdE @2870
    _ZNSt7__cxx114listIdSaIdEE9_M_insertIJRKdEEEvSt14_List_iteratorIdEDpOT_ @2871
    _ZNSt7__cxx114listIdSaIdEE9pop_frontEv @2872
    _ZNSt7__cxx114listIdSaIdEE9push_backERKd @2873
    _ZNSt7__cxx114listIdSaIdEEC2ERKS2_ @2874
    _ZNSt7__cxx114listIdSaIdEEC2Ev @2875
    _ZNSt7__cxx114listIdSaIdEED2Ev @2876
    _ZNSt7__cxx119to_stringEi @2877
    _ZNSt7__cxx119to_stringEx @2878
    _ZNSt8_Rb_treeIN7omnetpp7SimTimeESt4pairIKS1_N4inet5units5valueIdNS5_7composeINS7_INS7_INS5_5units1mENS7_INS8_2kgENS5_3powINS8_1sELin2ELi1EEEEEEES9_EENSB_ISC_Lin1ELi1EEEEEEEESt10_Select1stISK_ESt4lessIS1_ESaISK_EE10_Auto_node9_M_insertES2_IPSt18_Rb_tree_node_baseST_E @2879
    _ZNSt8_Rb_treeIN7omnetpp7SimTimeESt4pairIKS1_N4inet5units5valueIdNS5_7composeINS7_INS7_INS5_5units1mENS7_INS8_2kgENS5_3powINS8_1sELin2ELi1EEEEEEES9_EENSB_ISC_Lin1ELi1EEEEEEEESt10_Select1stISK_ESt4lessIS1_ESaISK_EE10_Auto_nodeC2IJS2_IS1_SJ_EEEERSQ_DpOT_ @2880
    _ZNSt8_Rb_treeIN7omnetpp7SimTimeESt4pairIKS1_N4inet5units5valueIdNS5_7composeINS7_INS7_INS5_5units1mENS7_INS8_2kgENS5_3powINS8_1sELin2ELi1EEEEEEES9_EENSB_ISC_Lin1ELi1EEEEEEEESt10_Select1stISK_ESt4lessIS1_ESaISK_EE10_Auto_nodeD2Ev @2881
    _ZNSt8_Rb_treeIN7omnetpp7SimTimeESt4pairIKS1_N4inet5units5valueIdNS5_7composeINS7_INS7_INS5_5units1mENS7_INS8_2kgENS5_3powINS8_1sELin2ELi1EEEEEEES9_EENSB_ISC_Lin1ELi1EEEEEEEESt10_Select1stISK_ESt4lessIS1_ESaISK_EE11_M_get_nodeEv @2882
    _ZNSt8_Rb_treeIN7omnetpp7SimTimeESt4pairIKS1_N4inet5units5valueIdNS5_7composeINS7_INS7_INS5_5units1mENS7_INS8_2kgENS5_3powINS8_1sELin2ELi1EEEEEEES9_EENSB_ISC_Lin1ELi1EEEEEEEESt10_Select1stISK_ESt4lessIS1_ESaISK_EE11_M_put_nodeEPSt13_Rb_tree_nodeISK_E @2883
    _ZNSt8_Rb_treeIN7omnetpp7SimTimeESt4pairIKS1_N4inet5units5valueIdNS5_7composeINS7_INS7_INS5_5units1mENS7_INS8_2kgENS5_3powINS8_1sELin2ELi1EEEEEEES9_EENSB_ISC_Lin1ELi1EEEEEEEESt10_Select1stISK_ESt4lessIS1_ESaISK_EE12_M_drop_nodeEPSt13_Rb_tree_nodeISK_E @2884
    _ZNSt8_Rb_treeIN7omnetpp7SimTimeESt4pairIKS1_N4inet5units5valueIdNS5_7composeINS7_INS7_INS5_5units1mENS7_INS8_2kgENS5_3powINS8_1sELin2ELi1EEEEEEES9_EENSB_ISC_Lin1ELi1EEEEEEEESt10_Select1stISK_ESt4lessIS1_ESaISK_EE13_Rb_tree_implISO_Lb1EEC2Ev @2885
    _ZNSt8_Rb_treeIN7omnetpp7SimTimeESt4pairIKS1_N4inet5units5valueIdNS5_7composeINS7_INS7_INS5_5units1mENS7_INS8_2kgENS5_3powINS8_1sELin2ELi1EEEEEEES9_EENSB_ISC_Lin1ELi1EEEEEEEESt10_Select1stISK_ESt4lessIS1_ESaISK_EE14_M_create_nodeIJS2_IS1_SJ_EEEEPSt13_Rb_tree_nodeISK_EDpOT_ @2886
    _ZNSt8_Rb_treeIN7omnetpp7SimTimeESt4pairIKS1_N4inet5units5valueIdNS5_7composeINS7_INS7_INS5_5units1mENS7_INS8_2kgENS5_3powINS8_1sELin2ELi1EEEEEEES9_EENSB_ISC_Lin1ELi1EEEEEEEESt10_Select1stISK_ESt4lessIS1_ESaISK_EE14_M_insert_nodeEPSt18_Rb_tree_node_baseSS_PSt13_Rb_tree_nodeISK_E @2887
    _ZNSt8_Rb_treeIN7omnetpp7SimTimeESt4pairIKS1_N4inet5units5valueIdNS5_7composeINS7_INS7_INS5_5units1mENS7_INS8_2kgENS5_3powINS8_1sELin2ELi1EEEEEEES9_EENSB_ISC_Lin1ELi1EEEEEEEESt10_Select1stISK_ESt4lessIS1_ESaISK_EE14_M_lower_boundEPSt13_Rb_tree_nodeISK_EPSt18_Rb_tree_node_baseRS3_ @2888
    _ZNSt8_Rb_treeIN7omnetpp7SimTimeESt4pairIKS1_N4inet5units5valueIdNS5_7composeINS7_INS7_INS5_5units1mENS7_INS8_2kgENS5_3powINS8_1sELin2ELi1EEEEEEES9_EENSB_ISC_Lin1ELi1EEEEEEEESt10_Select1stISK_ESt4lessIS1_ESaISK_EE15_M_destroy_nodeEPSt13_Rb_tree_nodeISK_E @2889
    _ZNSt8_Rb_treeIN7omnetpp7SimTimeESt4pairIKS1_N4inet5units5valueIdNS5_7composeINS7_INS7_INS5_5units1mENS7_INS8_2kgENS5_3powINS8_1sELin2ELi1EEEEEEES9_EENSB_ISC_Lin1ELi1EEEEEEEESt10_Select1stISK_ESt4lessIS1_ESaISK_EE17_M_construct_nodeIJS2_IS1_SJ_EEEEvPSt13_Rb_tree_nodeISK_EDpOT_ @2890
    _ZNSt8_Rb_treeIN7omnetpp7SimTimeESt4pairIKS1_N4inet5units5valueIdNS5_7composeINS7_INS7_INS5_5units1mENS7_INS8_2kgENS5_3powINS8_1sELin2ELi1EEEEEEES9_EENSB_ISC_Lin1ELi1EEEEEEEESt10_Select1stISK_ESt4lessIS1_ESaISK_EE17_M_emplace_uniqueIJS2_IS1_SJ_EEEES2_ISt17_Rb_tree_iteratorISK_EbEDpOT_ @2891
    _ZNSt8_Rb_treeIN7omnetpp7SimTimeESt4pairIKS1_N4inet5units5valueIdNS5_7composeINS7_INS7_INS5_5units1mENS7_INS8_2kgENS5_3powINS8_1sELin2ELi1EEEEEEES9_EENSB_ISC_Lin1ELi1EEEEEEEESt10_Select1stISK_ESt4lessIS1_ESaISK_EE21_M_get_Node_allocatorEv @2892
    _ZNSt8_Rb_treeIN7omnetpp7SimTimeESt4pairIKS1_N4inet5units5valueIdNS5_7composeINS7_INS7_INS5_5units1mENS7_INS8_2kgENS5_3powINS8_1sELin2ELi1EEEEEEES9_EENSB_ISC_Lin1ELi1EEEEEEEESt10_Select1stISK_ESt4lessIS1_ESaISK_EE24_M_get_insert_unique_posERS3_ @2893
    _ZNSt8_Rb_treeIN7omnetpp7SimTimeESt4pairIKS1_N4inet5units5valueIdNS5_7composeINS7_INS7_INS5_5units1mENS7_INS8_2kgENS5_3powINS8_1sELin2ELi1EEEEEEES9_EENSB_ISC_Lin1ELi1EEEEEEEESt10_Select1stISK_ESt4lessIS1_ESaISK_EE3endEv @2894
    _ZNSt8_Rb_treeIN7omnetpp7SimTimeESt4pairIKS1_N4inet5units5valueIdNS5_7composeINS7_INS7_INS5_5units1mENS7_INS8_2kgENS5_3powINS8_1sELin2ELi1EEEEEEES9_EENSB_ISC_Lin1ELi1EEEEEEEESt10_Select1stISK_ESt4lessIS1_ESaISK_EE4findERS3_ @2895
    _ZNSt8_Rb_treeIN7omnetpp7SimTimeESt4pairIKS1_N4inet5units5valueIdNS5_7composeINS7_INS7_INS5_5units1mENS7_INS8_2kgENS5_3powINS8_1sELin2ELi1EEEEEEES9_EENSB_ISC_Lin1ELi1EEEEEEEESt10_Select1stISK_ESt4lessIS1_ESaISK_EE5beginEv @2896
    _ZNSt8_Rb_treeIN7omnetpp7SimTimeESt4pairIKS1_N4inet5units5valueIdNS5_7composeINS7_INS7_INS5_5units1mENS7_INS8_2kgENS5_3powINS8_1sELin2ELi1EEEEEEES9_EENSB_ISC_Lin1ELi1EEEEEEEESt10_Select1stISK_ESt4lessIS1_ESaISK_EE6_M_endEv @2897
    _ZNSt8_Rb_treeIN7omnetpp7SimTimeESt4pairIKS1_N4inet5units5valueIdNS5_7composeINS7_INS7_INS5_5units1mENS7_INS8_2kgENS5_3powINS8_1sELin2ELi1EEEEEEES9_EENSB_ISC_Lin1ELi1EEEEEEEESt10_Select1stISK_ESt4lessIS1_ESaISK_EE6_S_keyEPKSt13_Rb_tree_nodeISK_E @2898
    _ZNSt8_Rb_treeIN7omnetpp7SimTimeESt4pairIKS1_N4inet5units5valueIdNS5_7composeINS7_INS7_INS5_5units1mENS7_INS8_2kgENS5_3powINS8_1sELin2ELi1EEEEEEES9_EENSB_ISC_Lin1ELi1EEEEEEEESt10_Select1stISK_ESt4lessIS1_ESaISK_EE6_S_keyEPKSt18_Rb_tree_node_base @2899
    _ZNSt8_Rb_treeIN7omnetpp7SimTimeESt4pairIKS1_N4inet5units5valueIdNS5_7composeINS7_INS7_INS5_5units1mENS7_INS8_2kgENS5_3powINS8_1sELin2ELi1EEEEEEES9_EENSB_ISC_Lin1ELi1EEEEEEEESt10_Select1stISK_ESt4lessIS1_ESaISK_EE7_S_leftEPSt18_Rb_tree_node_base @2900
    _ZNSt8_Rb_treeIN7omnetpp7SimTimeESt4pairIKS1_N4inet5units5valueIdNS5_7composeINS7_INS7_INS5_5units1mENS7_INS8_2kgENS5_3powINS8_1sELin2ELi1EEEEEEES9_EENSB_ISC_Lin1ELi1EEEEEEEESt10_Select1stISK_ESt4lessIS1_ESaISK_EE8_M_beginEv @2901
    _ZNSt8_Rb_treeIN7omnetpp7SimTimeESt4pairIKS1_N4inet5units5valueIdNS5_7composeINS7_INS7_INS5_5units1mENS7_INS8_2kgENS5_3powINS8_1sELin2ELi1EEEEEEES9_EENSB_ISC_Lin1ELi1EEEEEEEESt10_Select1stISK_ESt4lessIS1_ESaISK_EE8_S_rightEPSt18_Rb_tree_node_base @2902
    _ZNSt8_Rb_treeIN7omnetpp7SimTimeESt4pairIKS1_N4inet5units5valueIdNS5_7composeINS7_INS7_INS5_5units1mENS7_INS8_2kgENS5_3powINS8_1sELin2ELi1EEEEEEES9_EENSB_ISC_Lin1ELi1EEEEEEEESt10_Select1stISK_ESt4lessIS1_ESaISK_EEC2Ev @2903
    _ZNSt8_Rb_treeIPKN4inet13physicallayer6IRadioESt4pairIKS4_PN5flora17LoRaNeighborCache10RadioEntryEESt10_Select1stISB_ESt4lessIS4_ESaISB_EE10_Auto_node9_M_insertES5_IPSt18_Rb_tree_node_baseSK_E @2904
    _ZNSt8_Rb_treeIPKN4inet13physicallayer6IRadioESt4pairIKS4_PN5flora17LoRaNeighborCache10RadioEntryEESt10_Select1stISB_ESt4lessIS4_ESaISB_EE10_Auto_nodeC2IJRKSt21piecewise_construct_tSt5tupleIJRS6_EESN_IJEEEEERSH_DpOT_ @2905
    _ZNSt8_Rb_treeIPKN4inet13physicallayer6IRadioESt4pairIKS4_PN5flora17LoRaNeighborCache10RadioEntryEESt10_Select1stISB_ESt4lessIS4_ESaISB_EE10_Auto_nodeD2Ev @2906
    _ZNSt8_Rb_treeIPKN4inet13physicallayer6IRadioESt4pairIKS4_PN5flora17LoRaNeighborCache10RadioEntryEESt10_Select1stISB_ESt4lessIS4_ESaISB_EE11_M_get_nodeEv @2907
    _ZNSt8_Rb_treeIPKN4inet13physicallayer6IRadioESt4pairIKS4_PN5flora17LoRaNeighborCache10RadioEntryEESt10_Select1stISB_ESt4lessIS4_ESaISB_EE11_M_leftmostEv @2908
    _ZNSt8_Rb_treeIPKN4inet13physicallayer6IRadioESt4pairIKS4_PN5flora17LoRaNeighborCache10RadioEntryEESt10_Select1stISB_ESt4lessIS4_ESaISB_EE11_M_put_nodeEPSt13_Rb_tree_nodeISB_E @2909
    _ZNSt8_Rb_treeIPKN4inet13physicallayer6IRadioESt4pairIKS4_PN5flora17LoRaNeighborCache10RadioEntryEESt10_Select1stISB_ESt4lessIS4_ESaISB_EE11lower_boundERS6_ @2910
    _ZNSt8_Rb_treeIPKN4inet13physicallayer6IRadioESt4pairIKS4_PN5flora17LoRaNeighborCache10RadioEntryEESt10_Select1stISB_ESt4lessIS4_ESaISB_EE12_M_drop_nodeEPSt13_Rb_tree_nodeISB_E @2911
    _ZNSt8_Rb_treeIPKN4inet13physicallayer6IRadioESt4pairIKS4_PN5flora17LoRaNeighborCache10RadioEntryEESt10_Select1stISB_ESt4lessIS4_ESaISB_EE12_M_rightmostEv @2912
    _ZNSt8_Rb_treeIPKN4inet13physicallayer6IRadioESt4pairIKS4_PN5flora17LoRaNeighborCache10RadioEntryEESt10_Select1stISB_ESt4lessIS4_ESaISB_EE13_Rb_tree_implISF_Lb1EEC2Ev @2913
    _ZNSt8_Rb_treeIPKN4inet13physicallayer6IRadioESt4pairIKS4_PN5flora17LoRaNeighborCache10RadioEntryEESt10_Select1stISB_ESt4lessIS4_ESaISB_EE13_Rb_tree_implISF_Lb1EED2Ev @2914
    _ZNSt8_Rb_treeIPKN4inet13physicallayer6IRadioESt4pairIKS4_PN5flora17LoRaNeighborCache10RadioEntryEESt10_Select1stISB_ESt4lessIS4_ESaISB_EE14_M_create_nodeIJRKSt21piecewise_construct_tSt5tupleIJRS6_EESM_IJEEEEEPSt13_Rb_tree_nodeISB_EDpOT_ @2915
    _ZNSt8_Rb_treeIPKN4inet13physicallayer6IRadioESt4pairIKS4_PN5flora17LoRaNeighborCache10RadioEntryEESt10_Select1stISB_ESt4lessIS4_ESaISB_EE14_M_insert_nodeEPSt18_Rb_tree_node_baseSJ_PSt13_Rb_tree_nodeISB_E @2916
    _ZNSt8_Rb_treeIPKN4inet13physicallayer6IRadioESt4pairIKS4_PN5flora17LoRaNeighborCache10RadioEntryEESt10_Select1stISB_ESt4lessIS4_ESaISB_EE14_M_lower_boundEPSt13_Rb_tree_nodeISB_EPSt18_Rb_tree_node_baseRS6_ @2917
    _ZNSt8_Rb_treeIPKN4inet13physicallayer6IRadioESt4pairIKS4_PN5flora17LoRaNeighborCache10RadioEntryEESt10_Select1stISB_ESt4lessIS4_ESaISB_EE15_M_destroy_nodeEPSt13_Rb_tree_nodeISB_E @2918
    _ZNSt8_Rb_treeIPKN4inet13physicallayer6IRadioESt4pairIKS4_PN5flora17LoRaNeighborCache10RadioEntryEESt10_Select1stISB_ESt4lessIS4_ESaISB_EE17_M_construct_nodeIJRKSt21piecewise_construct_tSt5tupleIJRS6_EESM_IJEEEEEvPSt13_Rb_tree_nodeISB_EDpOT_ @2919
    _ZNSt8_Rb_treeIPKN4inet13physicallayer6IRadioESt4pairIKS4_PN5flora17LoRaNeighborCache10RadioEntryEESt10_Select1stISB_ESt4lessIS4_ESaISB_EE21_M_get_Node_allocatorEv @2920
    _ZNSt8_Rb_treeIPKN4inet13physicallayer6IRadioESt4pairIKS4_PN5flora17LoRaNeighborCache10RadioEntryEESt10_Select1stISB_ESt4lessIS4_ESaISB_EE22_M_emplace_hint_uniqueIJRKSt21piecewise_construct_tSt5tupleIJRS6_EESM_IJEEEEESt17_Rb_tree_iteratorISB_ESt23_Rb_tree_const_iteratorISB_EDpOT_ @2921
    _ZNSt8_Rb_treeIPKN4inet13physicallayer6IRadioESt4pairIKS4_PN5flora17LoRaNeighborCache10RadioEntryEESt10_Select1stISB_ESt4lessIS4_ESaISB_EE24_M_get_insert_unique_posERS6_ @2922
    _ZNSt8_Rb_treeIPKN4inet13physicallayer6IRadioESt4pairIKS4_PN5flora17LoRaNeighborCache10RadioEntryEESt10_Select1stISB_ESt4lessIS4_ESaISB_EE29_M_get_insert_hint_unique_posESt23_Rb_tree_const_iteratorISB_ERS6_ @2923
    _ZNSt8_Rb_treeIPKN4inet13physicallayer6IRadioESt4pairIKS4_PN5flora17LoRaNeighborCache10RadioEntryEESt10_Select1stISB_ESt4lessIS4_ESaISB_EE3endEv @2924
    _ZNSt8_Rb_treeIPKN4inet13physicallayer6IRadioESt4pairIKS4_PN5flora17LoRaNeighborCache10RadioEntryEESt10_Select1stISB_ESt4lessIS4_ESaISB_EE5beginEv @2925
    _ZNSt8_Rb_treeIPKN4inet13physicallayer6IRadioESt4pairIKS4_PN5flora17LoRaNeighborCache10RadioEntryEESt10_Select1stISB_ESt4lessIS4_ESaISB_EE6_M_endEv @2926
    _ZNSt8_Rb_treeIPKN4inet13physicallayer6IRadioESt4pairIKS4_PN5flora17LoRaNeighborCache10RadioEntryEESt10_Select1stISB_ESt4lessIS4_ESaISB_EE6_S_keyEPKSt13_Rb_tree_nodeISB_E @2927
    _ZNSt8_Rb_treeIPKN4inet13physicallayer6IRadioESt4pairIKS4_PN5flora17LoRaNeighborCache10RadioEntryEESt10_Select1stISB_ESt4lessIS4_ESaISB_EE6_S_keyEPKSt18_Rb_tree_node_base @2928
    _ZNSt8_Rb_treeIPKN4inet13physicallayer6IRadioESt4pairIKS4_PN5flora17LoRaNeighborCache10RadioEntryEESt10_Select1stISB_ESt4lessIS4_ESaISB_EE7_S_leftEPKSt18_Rb_tree_node_base @2929
    _ZNSt8_Rb_treeIPKN4inet13physicallayer6IRadioESt4pairIKS4_PN5flora17LoRaNeighborCache10RadioEntryEESt10_Select1stISB_ESt4lessIS4_ESaISB_EE7_S_leftEPSt18_Rb_tree_node_base @2930
    _ZNSt8_Rb_treeIPKN4inet13physicallayer6IRadioESt4pairIKS4_PN5flora17LoRaNeighborCache10RadioEntryEESt10_Select1stISB_ESt4lessIS4_ESaISB_EE8_M_beginEv @2931
    _ZNSt8_Rb_treeIPKN4inet13physicallayer6IRadioESt4pairIKS4_PN5flora17LoRaNeighborCache10RadioEntryEESt10_Select1stISB_ESt4lessIS4_ESaISB_EE8_M_eraseEPSt13_Rb_tree_nodeISB_E @2932
    _ZNSt8_Rb_treeIPKN4inet13physicallayer6IRadioESt4pairIKS4_PN5flora17LoRaNeighborCache10RadioEntryEESt10_Select1stISB_ESt4lessIS4_ESaISB_EE8_S_rightEPKSt18_Rb_tree_node_base @2933
    _ZNSt8_Rb_treeIPKN4inet13physicallayer6IRadioESt4pairIKS4_PN5flora17LoRaNeighborCache10RadioEntryEESt10_Select1stISB_ESt4lessIS4_ESaISB_EE8_S_rightEPSt18_Rb_tree_node_base @2934
    _ZNSt8_Rb_treeIPKN4inet13physicallayer6IRadioESt4pairIKS4_PN5flora17LoRaNeighborCache10RadioEntryEESt10_Select1stISB_ESt4lessIS4_ESaISB_EEC2Ev @2935
    _ZNSt8_Rb_treeIPKN4inet13physicallayer6IRadioESt4pairIKS4_PN5flora17LoRaNeighborCache10RadioEntryEESt10_Select1stISB_ESt4lessIS4_ESaISB_EED2Ev @2936
    _ZNSt8_Rb_treeIdSt4pairIKddESt10_Select1stIS2_ESt4lessIdESaIS2_EE10_Auto_node9_M_insertES0_IPSt18_Rb_tree_node_baseSB_E @2937
    _ZNSt8_Rb_treeIdSt4pairIKddESt10_Select1stIS2_ESt4lessIdESaIS2_EE10_Auto_nodeC2IJRKSt21piecewise_construct_tSt5tupleIJOdEESE_IJEEEEERS8_DpOT_ @2938
    _ZNSt8_Rb_treeIdSt4pairIKddESt10_Select1stIS2_ESt4lessIdESaIS2_EE10_Auto_nodeD2Ev @2939
    _ZNSt8_Rb_treeIdSt4pairIKddESt10_Select1stIS2_ESt4lessIdESaIS2_EE11_M_get_nodeEv @2940
    _ZNSt8_Rb_treeIdSt4pairIKddESt10_Select1stIS2_ESt4lessIdESaIS2_EE11_M_leftmostEv @2941
    _ZNSt8_Rb_treeIdSt4pairIKddESt10_Select1stIS2_ESt4lessIdESaIS2_EE11_M_put_nodeEPSt13_Rb_tree_nodeIS2_E @2942
    _ZNSt8_Rb_treeIdSt4pairIKddESt10_Select1stIS2_ESt4lessIdESaIS2_EE11lower_boundERS1_ @2943
    _ZNSt8_Rb_treeIdSt4pairIKddESt10_Select1stIS2_ESt4lessIdESaIS2_EE12_M_drop_nodeEPSt13_Rb_tree_nodeIS2_E @2944
    _ZNSt8_Rb_treeIdSt4pairIKddESt10_Select1stIS2_ESt4lessIdESaIS2_EE12_M_rightmostEv @2945
    _ZNSt8_Rb_treeIdSt4pairIKddESt10_Select1stIS2_ESt4lessIdESaIS2_EE13_Rb_tree_implIS6_Lb1EEC2Ev @2946
    _ZNSt8_Rb_treeIdSt4pairIKddESt10_Select1stIS2_ESt4lessIdESaIS2_EE13_Rb_tree_implIS6_Lb1EED2Ev @2947
    _ZNSt8_Rb_treeIdSt4pairIKddESt10_Select1stIS2_ESt4lessIdESaIS2_EE14_M_create_nodeIJRKSt21piecewise_construct_tSt5tupleIJOdEESD_IJEEEEEPSt13_Rb_tree_nodeIS2_EDpOT_ @2948
    _ZNSt8_Rb_treeIdSt4pairIKddESt10_Select1stIS2_ESt4lessIdESaIS2_EE14_M_insert_nodeEPSt18_Rb_tree_node_baseSA_PSt13_Rb_tree_nodeIS2_E @2949
    _ZNSt8_Rb_treeIdSt4pairIKddESt10_Select1stIS2_ESt4lessIdESaIS2_EE14_M_lower_boundEPSt13_Rb_tree_nodeIS2_EPSt18_Rb_tree_node_baseRS1_ @2950
    _ZNSt8_Rb_treeIdSt4pairIKddESt10_Select1stIS2_ESt4lessIdESaIS2_EE15_M_destroy_nodeEPSt13_Rb_tree_nodeIS2_E @2951
    _ZNSt8_Rb_treeIdSt4pairIKddESt10_Select1stIS2_ESt4lessIdESaIS2_EE17_M_construct_nodeIJRKSt21piecewise_construct_tSt5tupleIJOdEESD_IJEEEEEvPSt13_Rb_tree_nodeIS2_EDpOT_ @2952
    _ZNSt8_Rb_treeIdSt4pairIKddESt10_Select1stIS2_ESt4lessIdESaIS2_EE21_M_get_Node_allocatorEv @2953
    _ZNSt8_Rb_treeIdSt4pairIKddESt10_Select1stIS2_ESt4lessIdESaIS2_EE22_M_emplace_hint_uniqueIJRKSt21piecewise_construct_tSt5tupleIJOdEESD_IJEEEEESt17_Rb_tree_iteratorIS2_ESt23_Rb_tree_const_iteratorIS2_EDpOT_ @2954
    _ZNSt8_Rb_treeIdSt4pairIKddESt10_Select1stIS2_ESt4lessIdESaIS2_EE24_M_get_insert_unique_posERS1_ @2955
    _ZNSt8_Rb_treeIdSt4pairIKddESt10_Select1stIS2_ESt4lessIdESaIS2_EE29_M_get_insert_hint_unique_posESt23_Rb_tree_const_iteratorIS2_ERS1_ @2956
    _ZNSt8_Rb_treeIdSt4pairIKddESt10_Select1stIS2_ESt4lessIdESaIS2_EE3endEv @2957
    _ZNSt8_Rb_treeIdSt4pairIKddESt10_Select1stIS2_ESt4lessIdESaIS2_EE5beginEv @2958
    _ZNSt8_Rb_treeIdSt4pairIKddESt10_Select1stIS2_ESt4lessIdESaIS2_EE6_M_endEv @2959
    _ZNSt8_Rb_treeIdSt4pairIKddESt10_Select1stIS2_ESt4lessIdESaIS2_EE6_S_keyEPKSt13_Rb_tree_nodeIS2_E @2960
    _ZNSt8_Rb_treeIdSt4pairIKddESt10_Select1stIS2_ESt4lessIdESaIS2_EE6_S_keyEPKSt18_Rb_tree_node_base @2961
    _ZNSt8_Rb_treeIdSt4pairIKddESt10_Select1stIS2_ESt4lessIdESaIS2_EE7_S_leftEPKSt18_Rb_tree_node_base @2962
    _ZNSt8_Rb_treeIdSt4pairIKddESt10_Select1stIS2_ESt4lessIdESaIS2_EE7_S_leftEPSt18_Rb_tree_node_base @2963
    _ZNSt8_Rb_treeIdSt4pairIKddESt10_Select1stIS2_ESt4lessIdESaIS2_EE8_M_beginEv @2964
    _ZNSt8_Rb_treeIdSt4pairIKddESt10_Select1stIS2_ESt4lessIdESaIS2_EE8_M_eraseEPSt13_Rb_tree_nodeIS2_E @2965
    _ZNSt8_Rb_treeIdSt4pairIKddESt10_Select1stIS2_ESt4lessIdESaIS2_EE8_S_rightEPKSt18_Rb_tree_node_base @2966
    _ZNSt8_Rb_treeIdSt4pairIKddESt10_Select1stIS2_ESt4lessIdESaIS2_EE8_S_rightEPSt18_Rb_tree_node_base @2967
    _ZNSt8_Rb_treeIdSt4pairIKddESt10_Select1stIS2_ESt4lessIdESaIS2_EEC2Ev @2968
    _ZNSt8_Rb_treeIdSt4pairIKddESt10_Select1stIS2_ESt4lessIdESaIS2_EED2Ev @2969
    _ZNSt8_Rb_treeIiSt4pairIKiiESt10_Select1stIS2_ESt4lessIiESaIS2_EE10_Auto_node9_M_insertES0_IPSt18_Rb_tree_node_baseSB_E @2970
    _ZNSt8_Rb_treeIiSt4pairIKiiESt10_Select1stIS2_ESt4lessIiESaIS2_EE10_Auto_nodeC2IJRKSt21piecewise_construct_tSt5tupleIJOiEESE_IJEEEEERS8_DpOT_ @2971
    _ZNSt8_Rb_treeIiSt4pairIKiiESt10_Select1stIS2_ESt4lessIiESaIS2_EE10_Auto_nodeD2Ev @2972
    _ZNSt8_Rb_treeIiSt4pairIKiiESt10_Select1stIS2_ESt4lessIiESaIS2_EE11_M_get_nodeEv @2973
    _ZNSt8_Rb_treeIiSt4pairIKiiESt10_Select1stIS2_ESt4lessIiESaIS2_EE11_M_leftmostEv @2974
    _ZNSt8_Rb_treeIiSt4pairIKiiESt10_Select1stIS2_ESt4lessIiESaIS2_EE11_M_put_nodeEPSt13_Rb_tree_nodeIS2_E @2975
    _ZNSt8_Rb_treeIiSt4pairIKiiESt10_Select1stIS2_ESt4lessIiESaIS2_EE11lower_boundERS1_ @2976
    _ZNSt8_Rb_treeIiSt4pairIKiiESt10_Select1stIS2_ESt4lessIiESaIS2_EE12_M_drop_nodeEPSt13_Rb_tree_nodeIS2_E @2977
    _ZNSt8_Rb_treeIiSt4pairIKiiESt10_Select1stIS2_ESt4lessIiESaIS2_EE12_M_rightmostEv @2978
    _ZNSt8_Rb_treeIiSt4pairIKiiESt10_Select1stIS2_ESt4lessIiESaIS2_EE13_Rb_tree_implIS6_Lb1EEC2Ev @2979
    _ZNSt8_Rb_treeIiSt4pairIKiiESt10_Select1stIS2_ESt4lessIiESaIS2_EE13_Rb_tree_implIS6_Lb1EED2Ev @2980
    _ZNSt8_Rb_treeIiSt4pairIKiiESt10_Select1stIS2_ESt4lessIiESaIS2_EE14_M_create_nodeIJRKSt21piecewise_construct_tSt5tupleIJOiEESD_IJEEEEEPSt13_Rb_tree_nodeIS2_EDpOT_ @2981
    _ZNSt8_Rb_treeIiSt4pairIKiiESt10_Select1stIS2_ESt4lessIiESaIS2_EE14_M_insert_nodeEPSt18_Rb_tree_node_baseSA_PSt13_Rb_tree_nodeIS2_E @2982
    _ZNSt8_Rb_treeIiSt4pairIKiiESt10_Select1stIS2_ESt4lessIiESaIS2_EE14_M_lower_boundEPSt13_Rb_tree_nodeIS2_EPSt18_Rb_tree_node_baseRS1_ @2983
    _ZNSt8_Rb_treeIiSt4pairIKiiESt10_Select1stIS2_ESt4lessIiESaIS2_EE15_M_destroy_nodeEPSt13_Rb_tree_nodeIS2_E @2984
    _ZNSt8_Rb_treeIiSt4pairIKiiESt10_Select1stIS2_ESt4lessIiESaIS2_EE17_M_construct_nodeIJRKSt21piecewise_construct_tSt5tupleIJOiEESD_IJEEEEEvPSt13_Rb_tree_nodeIS2_EDpOT_ @2985
    _ZNSt8_Rb_treeIiSt4pairIKiiESt10_Select1stIS2_ESt4lessIiESaIS2_EE21_M_get_Node_allocatorEv @2986
    _ZNSt8_Rb_treeIiSt4pairIKiiESt10_Select1stIS2_ESt4lessIiESaIS2_EE22_M_emplace_hint_uniqueIJRKSt21piecewise_construct_tSt5tupleIJOiEESD_IJEEEEESt17_Rb_tree_iteratorIS2_ESt23_Rb_tree_const_iteratorIS2_EDpOT_ @2987
    _ZNSt8_Rb_treeIiSt4pairIKiiESt10_Select1stIS2_ESt4lessIiESaIS2_EE24_M_get_insert_unique_posERS1_ @2988
    _ZNSt8_Rb_treeIiSt4pairIKiiESt10_Select1stIS2_ESt4lessIiESaIS2_EE29_M_get_insert_hint_unique_posESt23_Rb_tree_const_iteratorIS2_ERS1_ @2989
    _ZNSt8_Rb_treeIiSt4pairIKiiESt10_Select1stIS2_ESt4lessIiESaIS2_EE3endEv @2990
    _ZNSt8_Rb_treeIiSt4pairIKiiESt10_Select1stIS2_ESt4lessIiESaIS2_EE5beginEv @2991
    _ZNSt8_Rb_treeIiSt4pairIKiiESt10_Select1stIS2_ESt4lessIiESaIS2_EE6_M_endEv @2992
    _ZNSt8_Rb_treeIiSt4pairIKiiESt10_Select1stIS2_ESt4lessIiESaIS2_EE6_S_keyEPKSt13_Rb_tree_nodeIS2_E @2993
    _ZNSt8_Rb_treeIiSt4pairIKiiESt10_Select1stIS2_ESt4lessIiESaIS2_EE6_S_keyEPKSt18_Rb_tree_node_base @2994
    _ZNSt8_Rb_treeIiSt4pairIKiiESt10_Select1stIS2_ESt4lessIiESaIS2_EE7_S_leftEPKSt18_Rb_tree_node_base @2995
    _ZNSt8_Rb_treeIiSt4pairIKiiESt10_Select1stIS2_ESt4lessIiESaIS2_EE7_S_leftEPSt18_Rb_tree_node_base @2996
    _ZNSt8_Rb_treeIiSt4pairIKiiESt10_Select1stIS2_ESt4lessIiESaIS2_EE8_M_beginEv @2997
    _ZNSt8_Rb_treeIiSt4pairIKiiESt10_Select1stIS2_ESt4lessIiESaIS2_EE8_M_eraseEPSt13_Rb_tree_nodeIS2_E @2998
    _ZNSt8_Rb_treeIiSt4pairIKiiESt10_Select1stIS2_ESt4lessIiESaIS2_EE8_S_rightEPKSt18_Rb_tree_node_base @2999
    _ZNSt8_Rb_treeIiSt4pairIKiiESt10_Select1stIS2_ESt4lessIiESaIS2_EE8_S_rightEPSt18_Rb_tree_node_base @3000
    _ZNSt8_Rb_treeIiSt4pairIKiiESt10_Select1stIS2_ESt4lessIiESaIS2_EEC2Ev @3001
    _ZNSt8_Rb_treeIiSt4pairIKiiESt10_Select1stIS2_ESt4lessIiESaIS2_EED2Ev @3002
    _ZNSt8__detail10_AllocNodeISaINS_10_Hash_nodeIPPvLb0EEEEEC2ERNS_16_Hashtable_allocIS5_EE @3003
    _ZNSt8__detail10_Hash_nodeIPPvLb0EEC2Ev @3004
    _ZNSt8__detail12_Insert_baseIPPvS2_SaIS2_ENS_9_IdentityESt8equal_toIS2_ESt4hashIS2_ENS_18_Mod_range_hashingENS_20_Default_ranged_hashENS_20_Prime_rehash_policyENS_17_Hashtable_traitsILb0ELb1ELb1EEEE20_M_conjure_hashtableEv @3005
    _ZNSt8__detail12_NodeBuilderINS_9_IdentityEE8_S_buildIPPvS5_NS_10_AllocNodeISaINS_10_Hash_nodeIS5_Lb0EEEEEEEEPNT1_11__node_typeEOT_OT0_RKSB_ @3006
    _ZNSt8__detail14_Node_iteratorIPPvLb1ELb0EEC2EPNS_10_Hash_nodeIS2_Lb0EEE @3007
    _ZNSt8__detail14_Node_iteratorIPPvLb1ELb0EEppEv @3008
    _ZNSt8__detail14__to_chars_lenIjEEjT_i @3009
    _ZNSt8__detail14__to_chars_lenIyEEjT_i @3010
    _ZNSt8__detail15_Hash_code_baseIPPvS2_NS_9_IdentityESt4hashIS2_ENS_18_Mod_range_hashingENS_20_Default_ranged_hashELb0EEC2Ev @3011
    _ZNSt8__detail15_Hash_node_baseC2Ev @3012
    _ZNSt8__detail15_Hashtable_baseIPPvS2_NS_9_IdentityESt8equal_toIS2_ESt4hashIS2_ENS_18_Mod_range_hashingENS_20_Default_ranged_hashENS_17_Hashtable_traitsILb0ELb1ELb1EEEE9_S_equalsEyRKNS_21_Hash_node_code_cacheILb0EEE @3013
    _ZNSt8__detail15_Hashtable_baseIPPvS2_NS_9_IdentityESt8equal_toIS2_ESt4hashIS2_ENS_18_Mod_range_hashingENS_20_Default_ranged_hashENS_17_Hashtable_traitsILb0ELb1ELb1EEEEC2Ev @3014
    _ZNSt8__detail16_Hashtable_allocISaINS_10_Hash_nodeIPPvLb0EEEEE16_M_allocate_nodeIJS3_EEEPS4_DpOT_ @3015
    _ZNSt8__detail16_Hashtable_allocISaINS_10_Hash_nodeIPPvLb0EEEEE17_M_node_allocatorEv @3016
    _ZNSt8__detail16_Hashtable_allocISaINS_10_Hash_nodeIPPvLb0EEEEE18_M_deallocate_nodeEPS4_ @3017
    _ZNSt8__detail16_Hashtable_allocISaINS_10_Hash_nodeIPPvLb0EEEEE19_M_allocate_bucketsEy @3018
    _ZNSt8__detail16_Hashtable_allocISaINS_10_Hash_nodeIPPvLb0EEEEE21_M_deallocate_bucketsEPPNS_15_Hash_node_baseEy @3019
    _ZNSt8__detail16_Hashtable_allocISaINS_10_Hash_nodeIPPvLb0EEEEE22_M_deallocate_node_ptrEPS4_ @3020
    _ZNSt8__detail16_Hashtable_allocISaINS_10_Hash_nodeIPPvLb0EEEEEC2Ev @3021
    _ZNSt8__detail17_List_node_header7_M_initEv @3022
    _ZNSt8__detail17_List_node_headerC2Ev @3023
    _ZNSt8__detail18__to_chars_10_implIjEEvPcjT_ @3024
    _ZNSt8__detail18__to_chars_10_implIyEEvPcjT_ @3025
    _ZNSt8__detail19_Node_iterator_baseIPPvLb0EE7_M_incrEv @3026
    _ZNSt8__detail19_Node_iterator_baseIPPvLb0EEC2EPNS_10_Hash_nodeIS2_Lb0EEE @3027
    _ZNSt8__detail20_Prime_rehash_policy8_M_resetEy @3028
    _ZNSt8__detail20_Prime_rehash_policyC2Ef @3029
    _ZNSt8__detail21_Hash_node_value_baseIPPvE9_M_valptrEv @3030
    _ZNSt8__detail21_Hashtable_ebo_helperILi0ESaINS_10_Hash_nodeIPPvLb0EEEELb1EE6_M_getEv @3031
    _ZNSt8__detail21_Hashtable_ebo_helperILi0ESaINS_10_Hash_nodeIPPvLb0EEEELb1EEC2Ev @3032
    _ZNSt8__detail21_Hashtable_ebo_helperILi0ESt8equal_toIPPvELb1EEC2Ev @3033
    _ZNSt8__detail21_Hashtable_ebo_helperILi1ESt4hashIPPvELb1EEC2Ev @3034
    _ZNSt8__detail22_Hashtable_hash_traitsISt4hashIPPvEE22__small_size_thresholdEv @3035
    _ZNSt8__detail7_InsertIPPvS2_SaIS2_ENS_9_IdentityESt8equal_toIS2_ESt4hashIS2_ENS_18_Mod_range_hashingENS_20_Default_ranged_hashENS_20_Prime_rehash_policyENS_17_Hashtable_traitsILb0ELb1ELb1EEELb1EE6insertEOS2_ @3036
    _ZNSt8__detailneERKNS_19_Node_iterator_baseIPPvLb0EEES5_ @3037
    _ZNSt8functionIFvPKN4inet13physicallayer6IRadioEEED2Ev @3038
    _ZNSt9_Any_data9_M_accessEv @3039
    _ZNSt9_Any_data9_M_accessIPKSt9type_infoEERT_v @3040
    _ZSt10_ConstructIN4inet9L3AddressEJRKS1_EEvPT_DpOT0_ @3041
    _ZSt10_ConstructIN5flora9knownNodeEJRKS1_EEvPT_DpOT0_ @3042
    _ZSt10_ConstructISt5tupleIJN4inet9L3AddressEddEEJRKS3_EEvPT_DpOT0_ @3043
    _ZSt11__addressofIN4inet12IntrusivePtrIKNS0_7TagBaseEEEEPT_RS5_ @3044
    _ZSt11__addressofIN4inet13physicallayer10ApskSymbolEEPT_RS3_ @3045
    _ZSt11__addressofIN4inet19SharingRegionTagSet9RegionTagINS0_7TagBaseEEEEPT_RS5_ @3046
    _ZSt11__addressofIN4inet9L3AddressEEPT_RS2_ @3047
    _ZSt11__addressofIN5flora14receivedPacketEEPT_RS2_ @3048
    _ZSt11__addressofIN5flora9knownNodeEEPT_RS2_ @3049
    _ZSt11__addressofINSt7__cxx114listIPN7omnetpp8cMessageESaIS4_EEEEPT_RS7_ @3050
    _ZSt11__addressofINSt8__detail10_Hash_nodeIPPvLb0EEEEPT_RS5_ @3051
    _ZSt11__addressofIPNSt8__detail15_Hash_node_baseEEPT_RS3_ @3052
    _ZSt11__addressofISaISt10_List_nodeIPN7omnetpp8cMessageEEEEPT_RS6_ @3053
    _ZSt11__addressofISaISt10_List_nodeIdEEEPT_RS3_ @3054
    _ZSt11__addressofISt5tupleIJN4inet9L3AddressEddEEEPT_RS4_ @3055
    _ZSt11__remove_ifIN9__gnu_cxx17__normal_iteratorIPPKN4inet13physicallayer6IRadioESt6vectorIS6_SaIS6_EEEENS0_5__ops16_Iter_equals_valIKS6_EEET_SG_SG_T0_ @3056
    _ZSt11max_elementISt14_List_iteratorIdEET_S2_S2_ @3057
    _ZSt12__get_helperILy0EN4inet9L3AddressEJddEERT0_RSt11_Tuple_implIXT_EJS2_DpT1_EE @3058
    _ZSt12__get_helperILy0EOdJEERT0_RSt11_Tuple_implIXT_EJS1_DpT1_EE @3059
    _ZSt12__get_helperILy0EOiJEERT0_RSt11_Tuple_implIXT_EJS1_DpT1_EE @3060
    _ZSt12__get_helperILy0ERKPKN4inet13physicallayer6IRadioEJEERT0_RSt11_Tuple_implIXT_EJS7_DpT1_EE @3061
    _ZSt12__get_helperILy1EdJdEERT0_RSt11_Tuple_implIXT_EJS0_DpT1_EE @3062
    _ZSt12__get_helperILy2EdJEERT0_RSt11_Tuple_implIXT_EJS0_DpT1_EE @3063
    _ZSt12__miter_baseIN9__gnu_cxx17__normal_iteratorIPKPKN4inet13physicallayer6IRadioESt6vectorIS6_SaIS6_EEEEET_SD_ @3064
    _ZSt12__miter_baseIN9__gnu_cxx17__normal_iteratorIPN5flora14receivedPacketESt6vectorIS3_SaIS3_EEEEET_S9_ @3065
    _ZSt12__miter_baseIN9__gnu_cxx17__normal_iteratorIPPKN4inet13physicallayer6IRadioESt6vectorIS6_SaIS6_EEEEET_SC_ @3066
    _ZSt12__miter_baseIN9__gnu_cxx17__normal_iteratorIPPN5flora17LoRaNeighborCache10RadioEntryESt6vectorIS5_SaIS5_EEEEET_SB_ @3067
    _ZSt12__niter_baseIPKPKN4inet13physicallayer6IRadioESt6vectorIS4_SaIS4_EEET_N9__gnu_cxx17__normal_iteratorISA_T0_EE @3068
    _ZSt12__niter_baseIPN5flora14receivedPacketEET_S3_ @3069
    _ZSt12__niter_baseIPN5flora14receivedPacketESt6vectorIS1_SaIS1_EEET_N9__gnu_cxx17__normal_iteratorIS6_T0_EE @3070
    _ZSt12__niter_baseIPPKN4inet13physicallayer6IRadioEET_S6_ @3071
    _ZSt12__niter_baseIPPKN4inet13physicallayer6IRadioESt6vectorIS4_SaIS4_EEET_N9__gnu_cxx17__normal_iteratorIS9_T0_EE @3072
    _ZSt12__niter_baseIPPN5flora17LoRaNeighborCache10RadioEntryEET_S5_ @3073
    _ZSt12__niter_baseIPPN5flora17LoRaNeighborCache10RadioEntryESt6vectorIS3_SaIS3_EEET_N9__gnu_cxx17__normal_iteratorIS8_T0_EE @3074
    _ZSt12__niter_wrapIN9__gnu_cxx17__normal_iteratorIPN5flora14receivedPacketESt6vectorIS3_SaIS3_EEEES4_ET_S9_T0_ @3075
    _ZSt12__niter_wrapIN9__gnu_cxx17__normal_iteratorIPPKN4inet13physicallayer6IRadioESt6vectorIS6_SaIS6_EEEES7_ET_SC_T0_ @3076
    _ZSt12__niter_wrapIN9__gnu_cxx17__normal_iteratorIPPN5flora17LoRaNeighborCache10RadioEntryESt6vectorIS5_SaIS5_EEEES6_ET_SB_T0_ @3077
    _ZSt12__niter_wrapIPPKN4inet13physicallayer6IRadioEET_RKS6_S6_ @3078
    _ZSt12__relocate_aIPN5flora14receivedPacketES2_SaIS1_EET0_T_S5_S4_RT1_ @3079
    _ZSt12__relocate_aIPPKN4inet13physicallayer6IRadioES5_SaIS4_EET0_T_S8_S7_RT1_ @3080
    _ZSt12__relocate_aIPPN5flora17LoRaNeighborCache10RadioEntryES4_SaIS3_EET0_T_S7_S6_RT1_ @3081
    _ZSt12__to_addressINSt8__detail10_Hash_nodeIPPvLb0EEEEPT_S6_ @3082
    _ZSt12__to_addressIPNSt8__detail15_Hash_node_baseEEPT_S4_ @3083
    _ZSt13__copy_move_aILb0EN9__gnu_cxx17__normal_iteratorIPKPKN4inet13physicallayer6IRadioESt6vectorIS6_SaIS6_EEEEPS6_ET1_T0_SF_SE_ @3084
    _ZSt13__copy_move_aILb1EN9__gnu_cxx17__normal_iteratorIPN5flora14receivedPacketESt6vectorIS3_SaIS3_EEEES8_ET1_T0_SA_S9_ @3085
    _ZSt13__copy_move_aILb1EN9__gnu_cxx17__normal_iteratorIPPKN4inet13physicallayer6IRadioESt6vectorIS6_SaIS6_EEEESB_ET1_T0_SD_SC_ @3086
    _ZSt13__copy_move_aILb1EN9__gnu_cxx17__normal_iteratorIPPN5flora17LoRaNeighborCache10RadioEntryESt6vectorIS5_SaIS5_EEEESA_ET1_T0_SC_SB_ @3087
    _ZSt13__max_elementISt14_List_iteratorIdEN9__gnu_cxx5__ops15_Iter_less_iterEET_S5_S5_T0_ @3088
    _ZSt14__copy_move_a1ILb0EPKPKN4inet13physicallayer6IRadioEPS4_ET1_T0_S9_S8_ @3089
    _ZSt14__copy_move_a1ILb1EPN5flora14receivedPacketES2_ET1_T0_S4_S3_ @3090
    _ZSt14__copy_move_a1ILb1EPPKN4inet13physicallayer6IRadioES5_ET1_T0_S7_S6_ @3091
    _ZSt14__copy_move_a1ILb1EPPN5flora17LoRaNeighborCache10RadioEntryES4_ET1_T0_S6_S5_ @3092
    _ZSt14__copy_move_a2ILb0EPKPKN4inet13physicallayer6IRadioEPS4_ET1_T0_S9_S8_ @3093
    _ZSt14__copy_move_a2ILb1EPN5flora14receivedPacketES2_ET1_T0_S4_S3_ @3094
    _ZSt14__copy_move_a2ILb1EPPKN4inet13physicallayer6IRadioES5_ET1_T0_S7_S6_ @3095
    _ZSt14__copy_move_a2ILb1EPPN5flora17LoRaNeighborCache10RadioEntryES4_ET1_T0_S6_S5_ @3096
    _ZSt14__relocate_a_1IPKN4inet13physicallayer6IRadioES4_ENSt9enable_ifIXsr3std24__is_bitwise_relocatableIT_EE5valueEPS6_E4typeES7_S7_S7_RSaIT0_E @3097
    _ZSt14__relocate_a_1IPN5flora14receivedPacketES2_SaIS1_EET0_T_S5_S4_RT1_ @3098
    _ZSt14__relocate_a_1IPN5flora17LoRaNeighborCache10RadioEntryES3_ENSt9enable_ifIXsr3std24__is_bitwise_relocatableIT_EE5valueEPS5_E4typeES6_S6_S6_RSaIT0_E @3099
    _ZSt15__alloc_on_moveISaIPN7omnetpp11cXMLElementEEEvRT_S5_ @3100
    _ZSt15__alloc_on_moveISaISt5tupleIJN4inet9L3AddressEddEEEEvRT_S6_ @3101
    _ZSt16__do_uninit_copyIN9__gnu_cxx17__normal_iteratorIPKSt5tupleIJN4inet9L3AddressEddEESt6vectorIS5_SaIS5_EEEEPS5_ET0_T_SE_SD_ @3102
    _ZSt16__do_uninit_copyIPKN4inet9L3AddressEPS1_ET0_T_S6_S5_ @3103
    _ZSt16__do_uninit_copyIPKN5flora9knownNodeEPS1_ET0_T_S6_S5_ @3104
    _ZSt16__do_uninit_copyIPKSt5tupleIJN4inet9L3AddressEddEEPS3_ET0_T_S8_S7_ @3105
    _ZSt16forward_as_tupleIJdEESt5tupleIJDpOT_EES3_ @3106
    _ZSt16forward_as_tupleIJiEESt5tupleIJDpOT_EES3_ @3107
    _ZSt18__do_alloc_on_moveISaIPN7omnetpp11cXMLElementEEEvRT_S5_St17integral_constantIbLb1EE @3108
    _ZSt18__do_alloc_on_moveISaISt5tupleIJN4inet9L3AddressEddEEEEvRT_S6_St17integral_constantIbLb1EE @3109
    _ZSt18uninitialized_copyIN9__gnu_cxx17__normal_iteratorIPKPKN4inet13physicallayer6IRadioESt6vectorIS6_SaIS6_EEEEPS6_ET0_T_SF_SE_ @3110
    _ZSt18uninitialized_copyIN9__gnu_cxx17__normal_iteratorIPKSt5tupleIJN4inet9L3AddressEddEESt6vectorIS5_SaIS5_EEEEPS5_ET0_T_SE_SD_ @3111
    _ZSt18uninitialized_copyIPKN4inet9L3AddressEPS1_ET0_T_S6_S5_ @3112
    _ZSt18uninitialized_copyIPKN5flora9knownNodeEPS1_ET0_T_S6_S5_ @3113
    _ZSt18uninitialized_copyIPKSt5tupleIJN4inet9L3AddressEddEEPS3_ET0_T_S8_S7_ @3114
    _ZSt19__iterator_categoryIN9__gnu_cxx17__normal_iteratorIPPKN4inet13physicallayer6IRadioESt6vectorIS6_SaIS6_EEEEENSt15iterator_traitsIT_E17iterator_categoryERKSD_ @3115
    _ZSt19__iterator_categoryIN9__gnu_cxx17__normal_iteratorIPPN5flora17LoRaNeighborCache10RadioEntryESt6vectorIS5_SaIS5_EEEEENSt15iterator_traitsIT_E17iterator_categoryERKSC_ @3116
    _ZSt19__relocate_object_aIN5flora14receivedPacketES1_SaIS1_EEvPT_PT0_RT1_ @3117
    _ZSt22__uninitialized_copy_aIN9__gnu_cxx17__normal_iteratorIPKPKN4inet13physicallayer6IRadioESt6vectorIS6_SaIS6_EEEEPS6_S6_ET0_T_SF_SE_RSaIT1_E @3118
    _ZSt22__uninitialized_copy_aIN9__gnu_cxx17__normal_iteratorIPKSt5tupleIJN4inet9L3AddressEddEESt6vectorIS5_SaIS5_EEEEPS5_S5_ET0_T_SE_SD_RSaIT1_E @3119
    _ZSt22__uninitialized_copy_aIPKN4inet9L3AddressEPS1_S1_ET0_T_S6_S5_RSaIT1_E @3120
    _ZSt22__uninitialized_copy_aIPKN5flora9knownNodeEPS1_S1_ET0_T_S6_S5_RSaIT1_E @3121
    _ZSt22__uninitialized_copy_aIPKSt5tupleIJN4inet9L3AddressEddEEPS3_S3_ET0_T_S8_S7_RSaIT1_E @3122
    _ZSt32__make_move_if_noexcept_iteratorIN4inet9L3AddressEPKS1_ET0_PT_ @3123
    _ZSt32__make_move_if_noexcept_iteratorIN5flora9knownNodeEPKS1_ET0_PT_ @3124
    _ZSt32__make_move_if_noexcept_iteratorISt5tupleIJN4inet9L3AddressEddEEPKS3_ET0_PT_ @3125
    _ZSt34__uninitialized_move_if_noexcept_aIPN4inet9L3AddressES2_SaIS1_EET0_T_S5_S4_RT1_ @3126
    _ZSt34__uninitialized_move_if_noexcept_aIPN5flora9knownNodeES2_SaIS1_EET0_T_S5_S4_RT1_ @3127
    _ZSt34__uninitialized_move_if_noexcept_aIPSt5tupleIJN4inet9L3AddressEddEES4_SaIS3_EET0_T_S7_S6_RT1_ @3128
    _ZSt3getILy0EJN4inet9L3AddressEddEERNSt13tuple_elementIXT_ESt5tupleIJDpT0_EEE4typeERS6_ @3129
    _ZSt3getILy0EJOdEERNSt13tuple_elementIXT_ESt5tupleIJDpT0_EEE4typeERS5_ @3130
    _ZSt3getILy0EJOiEERNSt13tuple_elementIXT_ESt5tupleIJDpT0_EEE4typeERS5_ @3131
    _ZSt3getILy0EJRKPKN4inet13physicallayer6IRadioEEERNSt13tuple_elementIXT_ESt5tupleIJDpT0_EEE4typeERSB_ @3132
    _ZSt3getILy1EJN4inet9L3AddressEddEERNSt13tuple_elementIXT_ESt5tupleIJDpT0_EEE4typeERS6_ @3133
    _ZSt3getILy2EJN4inet9L3AddressEddEERNSt13tuple_elementIXT_ESt5tupleIJDpT0_EEE4typeERS6_ @3134
    _ZSt3maxIyERKT_S2_S2_ @3135
    _ZSt3minIdERKT_S2_S2_ @3136
    _ZSt3minIyERKT_S2_S2_ @3137
    _ZSt4ceilIiEN9__gnu_cxx11__enable_ifIXsr12__is_integerIT_EE7__valueEdE6__typeES2_ @3138
    _ZSt4copyIN9__gnu_cxx17__normal_iteratorIPKPKN4inet13physicallayer6IRadioESt6vectorIS6_SaIS6_EEEEPS6_ET0_T_SF_SE_ @3139
    _ZSt4findIN9__gnu_cxx17__normal_iteratorIPPKN4inet13physicallayer6IRadioESt6vectorIS6_SaIS6_EEEES6_ET_SC_SC_RKT0_ @3140
    _ZSt4findIN9__gnu_cxx17__normal_iteratorIPPN5flora17LoRaNeighborCache10RadioEntryESt6vectorIS5_SaIS5_EEEES5_ET_SB_SB_RKT0_ @3141
    _ZSt4moveIN9__gnu_cxx17__normal_iteratorIPN5flora14receivedPacketESt6vectorIS3_SaIS3_EEEES8_ET0_T_SA_S9_ @3142
    _ZSt4moveIN9__gnu_cxx17__normal_iteratorIPPKN4inet13physicallayer6IRadioESt6vectorIS6_SaIS6_EEEESB_ET0_T_SD_SC_ @3143
    _ZSt4moveIN9__gnu_cxx17__normal_iteratorIPPN5flora17LoRaNeighborCache10RadioEntryESt6vectorIS5_SaIS5_EEEESA_ET0_T_SC_SB_ @3144
    _ZSt4moveIRN5flora14receivedPacketEEONSt16remove_referenceIT_E4typeEOS4_ @3145
    _ZSt4moveIRNSt12_Vector_baseISt5tupleIJN4inet9L3AddressEddEESaIS4_EE12_Vector_implEEONSt16remove_referenceIT_E4typeEOSA_ @3146
    _ZSt4moveIRNSt7__cxx1112basic_stringIcSt11char_traitsIcESaIcEEEEONSt16remove_referenceIT_E4typeEOS8_ @3147
    _ZSt4moveIRNSt7__cxx114listIPN7omnetpp8cMessageESaIS4_EEEEONSt16remove_referenceIT_E4typeEOS9_ @3148
    _ZSt4moveIRPKN4inet13physicallayer6IRadioEEONSt16remove_referenceIT_E4typeEOS7_ @3149
    _ZSt4moveIRPPvEONSt16remove_referenceIT_E4typeEOS4_ @3150
    _ZSt4moveIRSaIPN7omnetpp11cXMLElementEEEONSt16remove_referenceIT_E4typeEOS6_ @3151
    _ZSt4moveIRSaISt10_List_nodeIPN7omnetpp8cMessageEEEEONSt16remove_referenceIT_E4typeEOS8_ @3152
    _ZSt4moveIRSaISt10_List_nodeIdEEEONSt16remove_referenceIT_E4typeEOS5_ @3153
    _ZSt4moveIRSaISt5tupleIJN4inet9L3AddressEddEEEEONSt16remove_referenceIT_E4typeEOS7_ @3154
    _ZSt4moveIRSt6vectorIPN7omnetpp11cXMLElementESaIS3_EEEONSt16remove_referenceIT_E4typeEOS8_ @3155
    _ZSt4moveIRSt6vectorISt5tupleIJN4inet9L3AddressEddEESaIS4_EEEONSt16remove_referenceIT_E4typeEOS9_ @3156
    _ZSt4moveIRdEONSt16remove_referenceIT_E4typeEOS2_ @3157
    _ZSt4moveIRiEONSt16remove_referenceIT_E4typeEOS2_ @3158
    _ZSt5isnand @3159
    _ZSt6removeIN9__gnu_cxx17__normal_iteratorIPPKN4inet13physicallayer6IRadioESt6vectorIS6_SaIS6_EEEES6_ET_SC_SC_RKT0_ @3160
    _ZSt7forwardIN4inet5units5valueIdNS1_7composeINS3_INS3_INS1_5units1mENS3_INS4_2kgENS1_3powINS4_1sELin2ELi1EEEEEEES5_EENS7_IS8_Lin1ELi1EEEEEEEEOT_RNSt16remove_referenceISG_E4typeE @3161
    _ZSt7forwardIN5flora14receivedPacketEEOT_RNSt16remove_referenceIS2_E4typeE @3162
    _ZSt7forwardIN7omnetpp7SimTimeEEOT_RNSt16remove_referenceIS2_E4typeE @3163
    _ZSt7forwardINSt8__detail14_Node_iteratorIPPvLb1ELb0EEEEOT_RNSt16remove_referenceIS5_E4typeE @3164
    _ZSt7forwardIOdEOT_RNSt16remove_referenceIS1_E4typeE @3165
    _ZSt7forwardIOiEOT_RNSt16remove_referenceIS1_E4typeE @3166
    _ZSt7forwardIPKN4inet13physicallayer6IRadioEEOT_RNSt16remove_referenceIS5_E4typeE @3167
    _ZSt7forwardIPPvEOT_RNSt16remove_referenceIS2_E4typeE @3168
    _ZSt7forwardIRKN4inet5units5valueIdNS1_7composeINS3_INS3_INS1_5units1mENS3_INS4_2kgENS1_3powINS4_1sELin2ELi1EEEEEEES5_EENS7_IS8_Lin1ELi1EEEEEEEEOT_RNSt16remove_referenceISI_E4typeE @3169
    _ZSt7forwardIRKN4inet9L3AddressEEOT_RNSt16remove_referenceIS4_E4typeE @3170
    _ZSt7forwardIRKN5flora14receivedPacketEEOT_RNSt16remove_referenceIS4_E4typeE @3171
    _ZSt7forwardIRKN5flora9knownNodeEEOT_RNSt16remove_referenceIS4_E4typeE @3172
    _ZSt7forwardIRKPKN4inet13physicallayer6IRadioEEOT_RNSt16remove_referenceIS7_E4typeE @3173
    _ZSt7forwardIRKPN5flora17LoRaNeighborCache10RadioEntryEEOT_RNSt16remove_referenceIS6_E4typeE @3174
    _ZSt7forwardIRKPN7omnetpp8cMessageEEOT_RNSt16remove_referenceIS5_E4typeE @3175
    _ZSt7forwardIRKPPvEOT_RNSt16remove_referenceIS4_E4typeE @3176
    _ZSt7forwardIRKSt21piecewise_construct_tEOT_RNSt16remove_referenceIS3_E4typeE @3177
    _ZSt7forwardIRKSt5tupleIJN4inet9L3AddressEddEEEOT_RNSt16remove_referenceIS6_E4typeE @3178
    _ZSt7forwardIRKdEOT_RNSt16remove_referenceIS2_E4typeE @3179
    _ZSt7forwardIRN4inet5units5valueIdNS1_7composeINS3_INS3_INS1_5units1mENS3_INS4_2kgENS1_3powINS4_1sELin2ELi1EEEEEEES5_EENS7_IS8_Lin1ELi1EEEEEEEEOT_RNSt16remove_referenceISH_E4typeE @3180
    _ZSt7forwardIRN7omnetpp7SimTimeEEOT_RNSt16remove_referenceIS3_E4typeE @3181
    _ZSt7forwardIRNSt8__detail14_Node_iteratorIPPvLb1ELb0EEEEOT_RNSt16remove_referenceIS6_E4typeE @3182
    _ZSt7forwardIRPSt13_Rb_tree_nodeISt4pairIKN7omnetpp7SimTimeEN4inet5units5valueIdNS6_7composeINS8_INS8_INS6_5units1mENS8_INS9_2kgENS6_3powINS9_1sELin2ELi1EEEEEEESA_EENSC_ISD_Lin1ELi1EEEEEEEEEEOT_RNSt16remove_referenceISP_E4typeE @3183
    _ZSt7forwardIRPSt13_Rb_tree_nodeISt4pairIKPKN4inet13physicallayer6IRadioEPN5flora17LoRaNeighborCache10RadioEntryEEEEOT_RNSt16remove_referenceISG_E4typeE @3184
    _ZSt7forwardIRPSt13_Rb_tree_nodeISt4pairIKddEEEOT_RNSt16remove_referenceIS7_E4typeE @3185
    _ZSt7forwardIRPSt13_Rb_tree_nodeISt4pairIKiiEEEOT_RNSt16remove_referenceIS7_E4typeE @3186
    _ZSt7forwardIRPSt18_Rb_tree_node_baseEOT_RNSt16remove_referenceIS3_E4typeE @3187
    _ZSt7forwardIRdEOT_RNSt16remove_referenceIS1_E4typeE @3188
    _ZSt7forwardISt17_Rb_tree_iteratorISt4pairIKN7omnetpp7SimTimeEN4inet5units5valueIdNS6_7composeINS8_INS8_INS6_5units1mENS8_INS9_2kgENS6_3powINS9_1sELin2ELi1EEEEEEESA_EENSC_ISD_Lin1ELi1EEEEEEEEEEOT_RNSt16remove_referenceISN_E4typeE @3189
    _ZSt7forwardISt4pairIN7omnetpp7SimTimeEN4inet5units5valueIdNS4_7composeINS6_INS6_INS4_5units1mENS6_INS7_2kgENS4_3powINS7_1sELin2ELi1EEEEEEES8_EENSA_ISB_Lin1ELi1EEEEEEEEEOT_RNSt16remove_referenceISK_E4typeE @3190
    _ZSt7forwardISt5tupleIJEEEOT_RNSt16remove_referenceIS2_E4typeE @3191
    _ZSt7forwardISt5tupleIJOdEEEOT_RNSt16remove_referenceIS3_E4typeE @3192
    _ZSt7forwardISt5tupleIJOiEEEOT_RNSt16remove_referenceIS3_E4typeE @3193
    _ZSt7forwardISt5tupleIJRKPKN4inet13physicallayer6IRadioEEEEOT_RNSt16remove_referenceIS9_E4typeE @3194
    _ZSt7forwardIbEOT_RNSt16remove_referenceIS0_E4typeE @3195
    _ZSt7forwardIdEOT_RNSt16remove_referenceIS0_E4typeE @3196
    _ZSt7forwardIiEOT_RNSt16remove_referenceIS0_E4typeE @3197
    _ZSt8_DestroyIN4inet12IntrusivePtrIKNS0_7TagBaseEEEEvPT_ @3198
    _ZSt8_DestroyIN4inet13physicallayer10ApskSymbolEEvPT_ @3199
    _ZSt8_DestroyIN4inet19SharingRegionTagSet9RegionTagINS0_7TagBaseEEEEvPT_ @3200
    _ZSt8_DestroyIN5flora14receivedPacketEEvPT_ @3201
    _ZSt8_DestroyIN5flora9knownNodeEEvPT_ @3202
    _ZSt8_DestroyIPN4inet12IntrusivePtrIKNS0_7TagBaseEEEEvT_S6_ @3203
    _ZSt8_DestroyIPN4inet12IntrusivePtrIKNS0_7TagBaseEEES4_EvT_S6_RSaIT0_E @3204
    _ZSt8_DestroyIPN4inet13physicallayer10ApskSymbolEEvT_S4_ @3205
    _ZSt8_DestroyIPN4inet13physicallayer10ApskSymbolES2_EvT_S4_RSaIT0_E @3206
    _ZSt8_DestroyIPN4inet19SharingRegionTagSet9RegionTagINS0_7TagBaseEEEEvT_S6_ @3207
    _ZSt8_DestroyIPN4inet19SharingRegionTagSet9RegionTagINS0_7TagBaseEEES4_EvT_S6_RSaIT0_E @3208
    _ZSt8_DestroyIPN4inet9L3AddressEEvT_S3_ @3209
    _ZSt8_DestroyIPN4inet9L3AddressES1_EvT_S3_RSaIT0_E @3210
    _ZSt8_DestroyIPN5flora14receivedPacketEEvT_S3_ @3211
    _ZSt8_DestroyIPN5flora14receivedPacketES1_EvT_S3_RSaIT0_E @3212
    _ZSt8_DestroyIPN5flora7knownGWEEvT_S3_ @3213
    _ZSt8_DestroyIPN5flora7knownGWES1_EvT_S3_RSaIT0_E @3214
    _ZSt8_DestroyIPN5flora9knownNodeEEvT_S3_ @3215
    _ZSt8_DestroyIPN5flora9knownNodeES1_EvT_S3_RSaIT0_E @3216
    _ZSt8_DestroyIPPKN4inet13physicallayer6IRadioEEvT_S6_ @3217
    _ZSt8_DestroyIPPKN4inet13physicallayer6IRadioES4_EvT_S6_RSaIT0_E @3218
    _ZSt8_DestroyIPPN5flora17LoRaNeighborCache10RadioEntryEEvT_S5_ @3219
    _ZSt8_DestroyIPPN5flora17LoRaNeighborCache10RadioEntryES3_EvT_S5_RSaIT0_E @3220
    _ZSt8_DestroyIPPN7omnetpp11cXMLElementEEvT_S4_ @3221
    _ZSt8_DestroyIPPN7omnetpp11cXMLElementES2_EvT_S4_RSaIT0_E @3222
    _ZSt8_DestroyIPSt5tupleIJN4inet10MacAddressEiEEEvT_S5_ @3223
    _ZSt8_DestroyIPSt5tupleIJN4inet10MacAddressEiEES3_EvT_S5_RSaIT0_E @3224
    _ZSt8_DestroyIPSt5tupleIJN4inet9L3AddressEddEEEvT_S5_ @3225
    _ZSt8_DestroyIPSt5tupleIJN4inet9L3AddressEddEES3_EvT_S5_RSaIT0_E @3226
    _ZSt9__find_ifIN9__gnu_cxx17__normal_iteratorIPPKN4inet13physicallayer6IRadioESt6vectorIS6_SaIS6_EEEENS0_5__ops16_Iter_equals_valIKS6_EEET_SG_SG_T0_ @3227
    _ZSt9__find_ifIN9__gnu_cxx17__normal_iteratorIPPKN4inet13physicallayer6IRadioESt6vectorIS6_SaIS6_EEEENS0_5__ops16_Iter_equals_valIKS6_EEET_SG_SG_T0_St26random_access_iterator_tag @3228
    _ZSt9__find_ifIN9__gnu_cxx17__normal_iteratorIPPN5flora17LoRaNeighborCache10RadioEntryESt6vectorIS5_SaIS5_EEEENS0_5__ops16_Iter_equals_valIKS5_EEET_SF_SF_T0_ @3229
    _ZSt9__find_ifIN9__gnu_cxx17__normal_iteratorIPPN5flora17LoRaNeighborCache10RadioEntryESt6vectorIS5_SaIS5_EEEENS0_5__ops16_Iter_equals_valIKS5_EEET_SF_SF_T0_St26random_access_iterator_tag @3230
    _ZSt9addressofINSt8__detail10_Hash_nodeIPPvLb0EEEEPT_RS5_ @3231
    _ZSt9addressofIPNSt8__detail15_Hash_node_baseEEPT_RS3_ @3232
    _ZSt9make_pairIRdS0_ESt4pairINSt25__strip_reference_wrapperINSt5decayIT_E4typeEE6__typeENS2_INS3_IT0_E4typeEE6__typeEEOS4_OS9_ @3233
    _ZSt9make_pairIiiESt4pairINSt25__strip_reference_wrapperINSt5decayIT_E4typeEE6__typeENS1_INS2_IT0_E4typeEE6__typeEEOS3_OS8_ @3234
    _ZSteqIcSt11char_traitsIcESaIcEEbRKNSt7__cxx1112basic_stringIT_T0_T1_EEPKS5_ @3235
    _ZSteqRKSt14_List_iteratorIdES2_ @3236
    _ZSteqRKSt17_Rb_tree_iteratorISt4pairIKN7omnetpp7SimTimeEN4inet5units5valueIdNS5_7composeINS7_INS7_INS5_5units1mENS7_INS8_2kgENS5_3powINS8_1sELin2ELi1EEEEEEES9_EENSB_ISC_Lin1ELi1EEEEEEEEESN_ @3237
    _ZSteqRKSt17_Rb_tree_iteratorISt4pairIKPKN4inet13physicallayer6IRadioEPN5flora17LoRaNeighborCache10RadioEntryEEESE_ @3238
    _ZSteqRKSt17_Rb_tree_iteratorISt4pairIKddEES5_ @3239
    _ZSteqRKSt17_Rb_tree_iteratorISt4pairIKiiEES5_ @3240
    _ZSteqRKSt20_List_const_iteratorIPN7omnetpp8cMessageEES5_ @3241
    _ZSteqRKSt23_Rb_tree_const_iteratorISt4pairIKPKN4inet13physicallayer6IRadioEPN5flora17LoRaNeighborCache10RadioEntryEEESE_ @3242
    _ZSteqRKSt23_Rb_tree_const_iteratorISt4pairIKddEES5_ @3243
    _ZSteqRKSt23_Rb_tree_const_iteratorISt4pairIKiiEES5_ @3244
    _ZStneRKSt14_List_iteratorIPN7omnetpp8cMessageEES5_ @3245
    _ZStneRKSt14_List_iteratorIdES2_ @3246
    _ZStneRKSt17_Rb_tree_iteratorISt4pairIKN7omnetpp7SimTimeEN4inet5units5valueIdNS5_7composeINS7_INS7_INS5_5units1mENS7_INS8_2kgENS5_3powINS8_1sELin2ELi1EEEEEEES9_EENSB_ISC_Lin1ELi1EEEEEEEEESN_ @3247
    _ZStneRKSt17_Rb_tree_iteratorISt4pairIKiiEES5_ @3248
    _ZStneRKSt20_List_const_iteratorIdES2_ @3249
    _ZStneRKSt23_Rb_tree_const_iteratorISt4pairIKN7omnetpp7SimTimeEN4inet5units5valueIdNS5_7composeINS7_INS7_INS5_5units1mENS7_INS8_2kgENS5_3powINS8_1sELin2ELi1EEEEEEES9_EENSB_ISC_Lin1ELi1EEEEEEEEESN_ @3250
    _ZStorSt13_Ios_OpenmodeS_ @3251
    _ZStplIcSt11char_traitsIcESaIcEENSt7__cxx1112basic_stringIT_T0_T1_EEPKS5_OS8_ @3252
    _ZTCN5flora11LoRaGWRadioE0_N4inet13physicallayer13FlatRadioBaseE @3253 DATA
    _ZTCN5flora11LoRaGWRadioE0_N4inet13physicallayer19NarrowbandRadioBaseE @3254 DATA
    _ZTCN5flora11LoRaGWRadioE0_N4inet13physicallayer5RadioE @3255 DATA
    _ZTCN5flora12LoRaReceiverE0_N4inet13physicallayer12ReceiverBaseE @3256 DATA
    _ZTCN5flora12LoRaReceiverE0_N4inet13physicallayer16FlatReceiverBaseE @3257 DATA
    _ZTCN5flora12LoRaReceiverE0_N4inet13physicallayer16SnirReceiverBaseE @3258 DATA
    _ZTCN5flora12LoRaReceiverE0_N4inet13physicallayer22NarrowbandReceiverBaseE @3259 DATA
    _ZTCN5flora13LoRaReceptionE0_N4inet13physicallayer13ReceptionBaseE @3260 DATA
    _ZTCN5flora13LoRaReceptionE0_N4inet13physicallayer15ScalarReceptionE @3261 DATA
    _ZTCN5flora13LoRaReceptionE0_N4inet13physicallayer17FlatReceptionBaseE @3262 DATA
    _ZTCN5flora13LoRaReceptionE0_N4inet13physicallayer23NarrowbandReceptionBaseE @3263 DATA
    _ZTCN5flora13LoRaReceptionE248_N4inet13physicallayer21IReceptionAnalogModelE @3264 DATA
    _ZTCN5flora15LoRaAnalogModelE0_N4inet13physicallayer15AnalogModelBaseE @3265 DATA
    _ZTCN5flora15LoRaAnalogModelE0_N4inet13physicallayer21ScalarAnalogModelBaseE @3266 DATA
    _ZTCN5flora15LoRaTransmitterE0_N4inet13physicallayer15TransmitterBaseE @3267 DATA
    _ZTCN5flora15LoRaTransmitterE0_N4inet13physicallayer19FlatTransmitterBaseE @3268 DATA
    _ZTCN5flora15LoRaTransmitterE0_N4inet13physicallayer25NarrowbandTransmitterBaseE @3269 DATA
    _ZTCN5flora16LoRaTransmissionE0_N4inet13physicallayer16TransmissionBaseE @3270 DATA
    _ZTCN5flora16LoRaTransmissionE248_N4inet13physicallayer24ITransmissionAnalogModelE @3271 DATA
    _ZTCN5flora18LoRaEnergyConsumerE0_N4inet13physicallayer26StateBasedEpEnergyConsumerE @3272 DATA
    _ZTCN5flora18LoRaEnergyConsumerE216_N4inet5power17IEpEnergyConsumerE @3273 DATA
    _ZTCN5flora9LoRaRadioE0_N4inet13physicallayer19NarrowbandRadioBaseE @3274 DATA
    _ZTCN5flora9LoRaRadioE0_N4inet13physicallayer5RadioE @3275 DATA
    _ZTIN4inet10ILifecycleE @3276 DATA
    _ZTIN4inet10MacAddressE @3277 DATA
    _ZTIN4inet10NodeStatusE @3278 DATA
    _ZTIN4inet11FieldsChunkE @3279 DATA
    _ZTIN4inet12ErrorRateIndE @3280 DATA
    _ZTIN4inet12IMacProtocolE @3281 DATA
    _ZTIN4inet12InterfaceIndE @3282 DATA
    _ZTIN4inet12IntervalTree8IntervalE @3283 DATA
    _ZTIN4inet12MobilityBaseE @3284 DATA
    _ZTIN4inet12StringFormat18IDirectiveResolverE @3285 DATA
    _ZTIN4inet13ITaggedObjectE @3286 DATA
    _ZTIN4inet13MacAddressIndE @3287 DATA
    _ZTIN4inet13MacAddressReqE @3288 DATA
    _ZTIN4inet13SignalTagBaseE @3289 DATA
    _ZTIN4inet13SignalTimeIndE @3290 DATA
    _ZTIN4inet13physicallayer10IListeningE @3291 DATA
    _ZTIN4inet13physicallayer10IReceptionE @3292 DATA
    _ZTIN4inet13physicallayer11IErrorModelE @3293 DATA
    _ZTIN4inet13physicallayer11IModulationE @3294 DATA
    _ZTIN4inet13physicallayer11RadioMediumE @3295 DATA
    _ZTIN4inet13physicallayer11ScalarNoiseE @3296 DATA
    _ZTIN4inet13physicallayer12IAnalogModelE @3297 DATA
    _ZTIN4inet13physicallayer12IRadioMediumE @3298 DATA
    _ZTIN4inet13physicallayer12ITransmitterE @3299 DATA
    _ZTIN4inet13physicallayer12PathLossBaseE @3300 DATA
    _ZTIN4inet13physicallayer12ReceiverBaseE @3301 DATA
    _ZTIN4inet13physicallayer13BandListeningE @3302 DATA
    _ZTIN4inet13physicallayer13FlatRadioBaseE @3303 DATA
    _ZTIN4inet13physicallayer13IScalarSignalE @3304 DATA
    _ZTIN4inet13physicallayer13ITransmissionE @3305 DATA
    _ZTIN4inet13physicallayer13ListeningBaseE @3306 DATA
    _ZTIN4inet13physicallayer13ReceptionBaseE @3307 DATA
    _ZTIN4inet13physicallayer14INeighborCacheE @3308 DATA
    _ZTIN4inet13physicallayer14WirelessSignalE @3309 DATA
    _ZTIN4inet13physicallayer15AnalogModelBaseE @3310 DATA
    _ZTIN4inet13physicallayer15IApskModulationE @3311 DATA
    _ZTIN4inet13physicallayer15IWirelessSignalE @3312 DATA
    _ZTIN4inet13physicallayer15ScalarReceptionE @3313 DATA
    _ZTIN4inet13physicallayer15TransmitterBaseE @3314 DATA
    _ZTIN4inet13physicallayer16FlatReceiverBaseE @3315 DATA
    _ZTIN4inet13physicallayer16SnirReceiverBaseE @3316 DATA
    _ZTIN4inet13physicallayer16TransmissionBaseE @3317 DATA
    _ZTIN4inet13physicallayer17FlatReceptionBaseE @3318 DATA
    _ZTIN4inet13physicallayer17FreeSpacePathLossE @3319 DATA
    _ZTIN4inet13physicallayer17IMediumLimitCacheE @3320 DATA
    _ZTIN4inet13physicallayer17INarrowbandSignalE @3321 DATA
    _ZTIN4inet13physicallayer17PhysicalLayerBaseE @3322 DATA
    _ZTIN4inet13physicallayer18ApskModulationBaseE @3323 DATA
    _ZTIN4inet13physicallayer18ISignalAnalogModelE @3324 DATA
    _ZTIN4inet13physicallayer19FlatTransmitterBaseE @3325 DATA
    _ZTIN4inet13physicallayer19NarrowbandNoiseBaseE @3326 DATA
    _ZTIN4inet13physicallayer19NarrowbandRadioBaseE @3327 DATA
    _ZTIN4inet13physicallayer21ConfigureRadioCommandE @3328 DATA
    _ZTIN4inet13physicallayer21IReceptionAnalogModelE @3329 DATA
    _ZTIN4inet13physicallayer21ScalarAnalogModelBaseE @3330 DATA
    _ZTIN4inet13physicallayer22NarrowbandReceiverBaseE @3331 DATA
    _ZTIN4inet13physicallayer23NarrowbandReceptionBaseE @3332 DATA
    _ZTIN4inet13physicallayer24ITransmissionAnalogModelE @3333 DATA
    _ZTIN4inet13physicallayer25NarrowbandTransmitterBaseE @3334 DATA
    _ZTIN4inet13physicallayer26StateBasedEpEnergyConsumerE @3335 DATA
    _ZTIN4inet13physicallayer5RadioE @3336 DATA
    _ZTIN4inet13physicallayer6INoiseE @3337 DATA
    _ZTIN4inet13physicallayer6IRadioE @3338 DATA
    _ZTIN4inet13physicallayer6SignalE @3339 DATA
    _ZTIN4inet13physicallayer9IPathLossE @3340 DATA
    _ZTIN4inet13physicallayer9IReceiverE @3341 DATA
    _ZTIN4inet13physicallayer9NoiseBaseE @3342 DATA
    _ZTIN4inet14IPhysicalLayerE @3343 DATA
    _ZTIN4inet14SignalPowerIndE @3344 DATA
    _ZTIN4inet14SignalPowerReqE @3345 DATA
    _ZTIN4inet15IInterfaceTableE @3346 DATA
    _ZTIN4inet15MacProtocolBaseE @3347 DATA
    _ZTIN4inet15OperationalBaseE @3348 DATA
    _ZTIN4inet15ProtocolTagBaseE @3349 DATA
    _ZTIN4inet16IPrintableObjectE @3350 DATA
    _ZTIN4inet16InterfaceTagBaseE @3351 DATA
    _ZTIN4inet16NetworkInterfaceE @3352 DATA
    _ZTIN4inet16OperationalMixinIN7omnetpp13cSimpleModuleEEE @3353 DATA
    _ZTIN4inet17MacAddressTagBaseE @3354 DATA
    _ZTIN4inet17PacketProtocolTagE @3355 DATA
    _ZTIN4inet18SignalPowerTagBaseE @3356 DATA
    _ZTIN4inet18StationaryMobilityE @3357 DATA
    _ZTIN4inet19IPhysicalLayerFrameE @3358 DATA
    _ZTIN4inet19IRegionTaggedObjectE @3359 DATA
    _ZTIN4inet19IntrusivePtrCounterINS_5ChunkEEE @3360 DATA
    _ZTIN4inet19IntrusivePtrCounterINS_7TagBaseEEE @3361 DATA
    _ZTIN4inet19LayeredProtocolBaseE @3362 DATA
    _ZTIN4inet22StationaryMobilityBaseE @3363 DATA
    _ZTIN4inet5ChunkE @3364 DATA
    _ZTIN4inet5CoordE @3365 DATA
    _ZTIN4inet5power13IEnergySourceE @3366 DATA
    _ZTIN4inet5power15IEnergyConsumerE @3367 DATA
    _ZTIN4inet5power15IEpEnergySourceE @3368 DATA
    _ZTIN4inet5power17IEpEnergyConsumerE @3369 DATA
    _ZTIN4inet5units5valueIdNS0_5units1mEEE @3370 DATA
    _ZTIN4inet5units5valueIdNS0_7composeINS0_5units1mENS0_3powINS3_1sELin1ELi1EEEEEEE @3371 DATA
    _ZTIN4inet5units5valueIdNS0_7composeINS2_INS2_INS0_5units1mENS2_INS3_2kgENS0_3powINS3_1sELin2ELi1EEEEEEES4_EENS6_IS7_Lin1ELi1EEEEEEE @3372 DATA
    _ZTIN4inet6PacketE @3373 DATA
    _ZTIN4inet7SnirIndE @3374 DATA
    _ZTIN4inet7TagBaseE @3375 DATA
    _ZTIN4inet8queueing12IPacketQueueE @3376 DATA
    _ZTIN4inet8queueing16IPacketProcessorE @3377 DATA
    _ZTIN4inet8queueing17IActivePacketSinkE @3378 DATA
    _ZTIN4inet8queueing17IPacketCollectionE @3379 DATA
    _ZTIN4inet8queueing18IPassivePacketSinkE @3380 DATA
    _ZTIN4inet8queueing19PacketProcessorBaseE @3381 DATA
    _ZTIN4inet8queueing20IPassivePacketSourceE @3382 DATA
    _ZTIN4inet9IMobilityE @3383 DATA
    _ZTIN5flora10LoRaMediumE @3384 DATA
    _ZTIN5flora11LoRaGWRadioE @3385 DATA
    _ZTIN5flora11LoRaOptionsE @3386 DATA
    _ZTIN5flora12LoRaMacFrameE @3387 DATA
    _ZTIN5flora12LoRaReceiverE @3388 DATA
    _ZTIN5flora13AppPacketTypeE @3389 DATA
    _ZTIN5flora13LoRaAppPacketE @3390 DATA
    _ZTIN5flora13LoRaReceptionE @3391 DATA
    _ZTIN5flora13SimpleLoRaAppE @3392 DATA
    _ZTIN5flora14LoRaModulationE @3393 DATA
    _ZTIN5flora15LoRaAnalogModelE @3394 DATA
    _ZTIN5flora15LoRaHataOkumuraE @3395 DATA
    _ZTIN5flora15LoRaMediumCacheE @3396 DATA
    _ZTIN5flora15LoRaPhyPreambleE @3397 DATA
    _ZTIN5flora15LoRaTransmitterE @3398 DATA
    _ZTIN5flora15PacketForwarderE @3399 DATA
    _ZTIN5flora16LoRaPathLossOuluE @3400 DATA
    _ZTIN5flora16LoRaTransmissionE @3401 DATA
    _ZTIN5flora16NetworkServerAppE @3402 DATA
    _ZTIN5flora17LoRaBandListeningE @3403 DATA
    _ZTIN5flora17LoRaNeighborCacheE @3404 DATA
    _ZTIN5flora17LoRaTagDescriptorE @3405 DATA
    _ZTIN5flora18LoRaEnergyConsumerE @3406 DATA
    _ZTIN5flora18LoRaMacControlInfoE @3407 DATA
    _ZTIN5flora20LoRaRadioCommandCodeE @3408 DATA
    _ZTIN5flora21LoRaOptionsDescriptorE @3409 DATA
    _ZTIN5flora22LoRaLogNormalShadowingE @3410 DATA
    _ZTIN5flora22LoRaMacFrameDescriptorE @3411 DATA
    _ZTIN5flora23LoRaAppPacketDescriptorE @3412 DATA
    _ZTIN5flora23LoRaReceptionIndicationE @3413 DATA
    _ZTIN5flora23LoRaTransmissionRequestE @3414 DATA
    _ZTIN5flora25LoRaConfigureRadioCommandE @3415 DATA
    _ZTIN5flora25LoRaPhyPreambleDescriptorE @3416 DATA
    _ZTIN5flora28LoRaMacControlInfoDescriptorE @3417 DATA
    _ZTIN5flora33LoRaReceptionIndicationDescriptorE @3418 DATA
    _ZTIN5flora33LoRaTransmissionRequestDescriptorE @3419 DATA
    _ZTIN5flora35LoRaConfigureRadioCommandDescriptorE @3420 DATA
    _ZTIN5flora7LoRaMacE @3421 DATA
    _ZTIN5flora7LoRaTagE @3422 DATA
    _ZTIN5flora9LoRaGWMacE @3423 DATA
    _ZTIN5flora9LoRaRadioE @3424 DATA
    _ZTIN7omnetpp10cComponentE @3425 DATA
    _ZTIN7omnetpp10cExceptionE @3426 DATA
    _ZTIN7omnetpp10cIListenerE @3427 DATA
    _ZTIN7omnetpp10cSoftOwnerE @3428 DATA
    _ZTIN7omnetpp10cWatchBaseE @3429 DATA
    _ZTIN7omnetpp11noncopyableE @3430 DATA
    _ZTIN7omnetpp12cNamedObjectE @3431 DATA
    _ZTIN7omnetpp12cOwnedObjectE @3432 DATA
    _ZTIN7omnetpp13cRuntimeErrorE @3433 DATA
    _ZTIN7omnetpp13cSimpleModuleE @3434 DATA
    _ZTIN7omnetpp16cClassDescriptorE @3435 DATA
    _ZTIN7omnetpp21cGenericReadonlyWatchIN4inet5CoordEEE @3436 DATA
    _ZTIN7omnetpp21cGenericReadonlyWatchIN4inet5units5valueIdNS2_5units1mEEEEE @3437 DATA
    _ZTIN7omnetpp21cGenericReadonlyWatchIN4inet5units5valueIdNS2_7composeINS2_5units1mENS2_3powINS5_1sELin1ELi1EEEEEEEEE @3438 DATA
    _ZTIN7omnetpp21cGenericReadonlyWatchIN4inet5units5valueIdNS2_7composeINS4_INS4_INS2_5units1mENS4_INS5_2kgENS2_3powINS5_1sELin2ELi1EEEEEEES6_EENS8_IS9_Lin1ELi1EEEEEEEEE @3439 DATA
    _ZTIN7omnetpp21cGenericReadonlyWatchINS_4cFSMEEE @3440 DATA
    _ZTIN7omnetpp21cGenericReadonlyWatchINS_7SimTimeEEE @3441 DATA
    _ZTIN7omnetpp23cGenericAssignableWatchIdEE @3442 DATA
    _ZTIN7omnetpp23cGenericAssignableWatchIiEE @3443 DATA
    _ZTIN7omnetpp23cGenericAssignableWatchIlEE @3444 DATA
    _ZTIN7omnetpp23cNoncopyableOwnedObjectE @3445 DATA
    _ZTIN7omnetpp4cFSME @3446 DATA
    _ZTIN7omnetpp6cEventE @3447 DATA
    _ZTIN7omnetpp7SimTimeE @3448 DATA
    _ZTIN7omnetpp7cModuleE @3449 DATA
    _ZTIN7omnetpp7cObjectE @3450 DATA
    _ZTIN7omnetpp7cPacketE @3451 DATA
    _ZTIN7omnetpp8cMessageE @3452 DATA
    _ZTIN7omnetpp9cListenerE @3453 DATA
    _ZTIPKN4inet13physicallayer11ScalarNoiseE @3454 DATA
    _ZTIPKN4inet13physicallayer13IScalarSignalE @3455 DATA
    _ZTIPKN4inet13physicallayer17INarrowbandSignalE @3456 DATA
    _ZTIPKN4inet13physicallayer21IReceptionAnalogModelE @3457 DATA
    _ZTIPKN4inet13physicallayer24ITransmissionAnalogModelE @3458 DATA
    _ZTIPKN5flora13LoRaReceptionE @3459 DATA
    _ZTIPKN5flora16LoRaTransmissionE @3460 DATA
    _ZTIPKN5flora17LoRaBandListeningE @3461 DATA
    _ZTIPKN7omnetpp7cModuleE @3462 DATA
    _ZTIPKN7omnetpp7cObjectE @3463 DATA
    _ZTIPN4inet10MacAddressE @3464 DATA
    _ZTIPN4inet13physicallayer11RadioMediumE @3465 DATA
    _ZTIPN4inet13physicallayer14WirelessSignalE @3466 DATA
    _ZTIPN4inet13physicallayer21ConfigureRadioCommandE @3467 DATA
    _ZTIPN4inet13physicallayer6IRadioE @3468 DATA
    _ZTIPN4inet15IInterfaceTableE @3469 DATA
    _ZTIPN4inet18StationaryMobilityE @3470 DATA
    _ZTIPN4inet6PacketE @3471 DATA
    _ZTIPN5flora10LoRaMediumE @3472 DATA
    _ZTIPN5flora11LoRaOptionsE @3473 DATA
    _ZTIPN5flora12LoRaMacFrameE @3474 DATA
    _ZTIPN5flora13LoRaAppPacketE @3475 DATA
    _ZTIPN5flora15LoRaPhyPreambleE @3476 DATA
    _ZTIPN5flora18LoRaMacControlInfoE @3477 DATA
    _ZTIPN5flora22LoRaLogNormalShadowingE @3478 DATA
    _ZTIPN5flora23LoRaReceptionIndicationE @3479 DATA
    _ZTIPN5flora23LoRaTransmissionRequestE @3480 DATA
    _ZTIPN5flora25LoRaConfigureRadioCommandE @3481 DATA
    _ZTIPN5flora7LoRaMacE @3482 DATA
    _ZTIPN5flora7LoRaTagE @3483 DATA
    _ZTIPN5flora9LoRaGWMacE @3484 DATA
    _ZTIPN5flora9LoRaRadioE @3485 DATA
    _ZTIPN7omnetpp7cObjectE @3486 DATA
    _ZTSN4inet10ILifecycleE @3487 DATA
    _ZTSN4inet10MacAddressE @3488 DATA
    _ZTSN4inet10NodeStatusE @3489 DATA
    _ZTSN4inet11FieldsChunkE @3490 DATA
    _ZTSN4inet12ErrorRateIndE @3491 DATA
    _ZTSN4inet12IMacProtocolE @3492 DATA
    _ZTSN4inet12InterfaceIndE @3493 DATA
    _ZTSN4inet12IntervalTree8IntervalE @3494 DATA
    _ZTSN4inet12MobilityBaseE @3495 DATA
    _ZTSN4inet12StringFormat18IDirectiveResolverE @3496 DATA
    _ZTSN4inet13ITaggedObjectE @3497 DATA
    _ZTSN4inet13MacAddressIndE @3498 DATA
    _ZTSN4inet13MacAddressReqE @3499 DATA
    _ZTSN4inet13SignalTagBaseE @3500 DATA
    _ZTSN4inet13SignalTimeIndE @3501 DATA
    _ZTSN4inet13physicallayer10IListeningE @3502 DATA
    _ZTSN4inet13physicallayer10IReceptionE @3503 DATA
    _ZTSN4inet13physicallayer11IErrorModelE @3504 DATA
    _ZTSN4inet13physicallayer11IModulationE @3505 DATA
    _ZTSN4inet13physicallayer11RadioMediumE @3506 DATA
    _ZTSN4inet13physicallayer11ScalarNoiseE @3507 DATA
    _ZTSN4inet13physicallayer12IAnalogModelE @3508 DATA
    _ZTSN4inet13physicallayer12IRadioMediumE @3509 DATA
    _ZTSN4inet13physicallayer12ITransmitterE @3510 DATA
    _ZTSN4inet13physicallayer12PathLossBaseE @3511 DATA
    _ZTSN4inet13physicallayer12ReceiverBaseE @3512 DATA
    _ZTSN4inet13physicallayer13BandListeningE @3513 DATA
    _ZTSN4inet13physicallayer13FlatRadioBaseE @3514 DATA
    _ZTSN4inet13physicallayer13IScalarSignalE @3515 DATA
    _ZTSN4inet13physicallayer13ITransmissionE @3516 DATA
    _ZTSN4inet13physicallayer13ListeningBaseE @3517 DATA
    _ZTSN4inet13physicallayer13ReceptionBaseE @3518 DATA
    _ZTSN4inet13physicallayer14INeighborCacheE @3519 DATA
    _ZTSN4inet13physicallayer14WirelessSignalE @3520 DATA
    _ZTSN4inet13physicallayer15AnalogModelBaseE @3521 DATA
    _ZTSN4inet13physicallayer15IApskModulationE @3522 DATA
    _ZTSN4inet13physicallayer15IWirelessSignalE @3523 DATA
    _ZTSN4inet13physicallayer15ScalarReceptionE @3524 DATA
    _ZTSN4inet13physicallayer15TransmitterBaseE @3525 DATA
    _ZTSN4inet13physicallayer16FlatReceiverBaseE @3526 DATA
    _ZTSN4inet13physicallayer16SnirReceiverBaseE @3527 DATA
    _ZTSN4inet13physicallayer16TransmissionBaseE @3528 DATA
    _ZTSN4inet13physicallayer17FlatReceptionBaseE @3529 DATA
    _ZTSN4inet13physicallayer17FreeSpacePathLossE @3530 DATA
    _ZTSN4inet13physicallayer17IMediumLimitCacheE @3531 DATA
    _ZTSN4inet13physicallayer17INarrowbandSignalE @3532 DATA
    _ZTSN4inet13physicallayer17PhysicalLayerBaseE @3533 DATA
    _ZTSN4inet13physicallayer18ApskModulationBaseE @3534 DATA
    _ZTSN4inet13physicallayer18ISignalAnalogModelE @3535 DATA
    _ZTSN4inet13physicallayer19FlatTransmitterBaseE @3536 DATA
    _ZTSN4inet13physicallayer19NarrowbandNoiseBaseE @3537 DATA
    _ZTSN4inet13physicallayer19NarrowbandRadioBaseE @3538 DATA
    _ZTSN4inet13physicallayer21ConfigureRadioCommandE @3539 DATA
    _ZTSN4inet13physicallayer21IReceptionAnalogModelE @3540 DATA
    _ZTSN4inet13physicallayer21ScalarAnalogModelBaseE @3541 DATA
    _ZTSN4inet13physicallayer22NarrowbandReceiverBaseE @3542 DATA
    _ZTSN4inet13physicallayer23NarrowbandReceptionBaseE @3543 DATA
    _ZTSN4inet13physicallayer24ITransmissionAnalogModelE @3544 DATA
    _ZTSN4inet13physicallayer25NarrowbandTransmitterBaseE @3545 DATA
    _ZTSN4inet13physicallayer26StateBasedEpEnergyConsumerE @3546 DATA
    _ZTSN4inet13physicallayer5RadioE @3547 DATA
    _ZTSN4inet13physicallayer6INoiseE @3548 DATA
    _ZTSN4inet13physicallayer6IRadioE @3549 DATA
    _ZTSN4inet13physicallayer6SignalE @3550 DATA
    _ZTSN4inet13physicallayer9IPathLossE @3551 DATA
    _ZTSN4inet13physicallayer9IReceiverE @3552 DATA
    _ZTSN4inet13physicallayer9NoiseBaseE @3553 DATA
    _ZTSN4inet14IPhysicalLayerE @3554 DATA
    _ZTSN4inet14SignalPowerIndE @3555 DATA
    _ZTSN4inet14SignalPowerReqE @3556 DATA
    _ZTSN4inet15IInterfaceTableE @3557 DATA
    _ZTSN4inet15MacProtocolBaseE @3558 DATA
    _ZTSN4inet15OperationalBaseE @3559 DATA
    _ZTSN4inet15ProtocolTagBaseE @3560 DATA
    _ZTSN4inet16IPrintableObjectE @3561 DATA
    _ZTSN4inet16InterfaceTagBaseE @3562 DATA
    _ZTSN4inet16NetworkInterfaceE @3563 DATA
    _ZTSN4inet16OperationalMixinIN7omnetpp13cSimpleModuleEEE @3564 DATA
    _ZTSN4inet17MacAddressTagBaseE @3565 DATA
    _ZTSN4inet17PacketProtocolTagE @3566 DATA
    _ZTSN4inet18SignalPowerTagBaseE @3567 DATA
    _ZTSN4inet18StationaryMobilityE @3568 DATA
    _ZTSN4inet19IPhysicalLayerFrameE @3569 DATA
    _ZTSN4inet19IRegionTaggedObjectE @3570 DATA
    _ZTSN4inet19IntrusivePtrCounterINS_5ChunkEEE @3571 DATA
    _ZTSN4inet19IntrusivePtrCounterINS_7TagBaseEEE @3572 DATA
    _ZTSN4inet19LayeredProtocolBaseE @3573 DATA
    _ZTSN4inet22StationaryMobilityBaseE @3574 DATA
    _ZTSN4inet5ChunkE @3575 DATA
    _ZTSN4inet5CoordE @3576 DATA
    _ZTSN4inet5power13IEnergySourceE @3577 DATA
    _ZTSN4inet5power15IEnergyConsumerE @3578 DATA
    _ZTSN4inet5power15IEpEnergySourceE @3579 DATA
    _ZTSN4inet5power17IEpEnergyConsumerE @3580 DATA
    _ZTSN4inet5units5valueIdNS0_5units1mEEE @3581 DATA
    _ZTSN4inet5units5valueIdNS0_7composeINS0_5units1mENS0_3powINS3_1sELin1ELi1EEEEEEE @3582 DATA
    _ZTSN4inet5units5valueIdNS0_7composeINS2_INS2_INS0_5units1mENS2_INS3_2kgENS0_3powINS3_1sELin2ELi1EEEEEEES4_EENS6_IS7_Lin1ELi1EEEEEEE @3583 DATA
    _ZTSN4inet6PacketE @3584 DATA
    _ZTSN4inet7SnirIndE @3585 DATA
    _ZTSN4inet7TagBaseE @3586 DATA
    _ZTSN4inet8queueing12IPacketQueueE @3587 DATA
    _ZTSN4inet8queueing16IPacketProcessorE @3588 DATA
    _ZTSN4inet8queueing17IActivePacketSinkE @3589 DATA
    _ZTSN4inet8queueing17IPacketCollectionE @3590 DATA
    _ZTSN4inet8queueing18IPassivePacketSinkE @3591 DATA
    _ZTSN4inet8queueing19PacketProcessorBaseE @3592 DATA
    _ZTSN4inet8queueing20IPassivePacketSourceE @3593 DATA
    _ZTSN4inet9IMobilityE @3594 DATA
    _ZTSN5flora10LoRaMediumE @3595 DATA
    _ZTSN5flora11LoRaGWRadioE @3596 DATA
    _ZTSN5flora11LoRaOptionsE @3597 DATA
    _ZTSN5flora12LoRaMacFrameE @3598 DATA
    _ZTSN5flora12LoRaReceiverE @3599 DATA
    _ZTSN5flora13AppPacketTypeE @3600 DATA
    _ZTSN5flora13LoRaAppPacketE @3601 DATA
    _ZTSN5flora13LoRaReceptionE @3602 DATA
    _ZTSN5flora13SimpleLoRaAppE @3603 DATA
    _ZTSN5flora14LoRaModulationE @3604 DATA
    _ZTSN5flora15LoRaAnalogModelE @3605 DATA
    _ZTSN5flora15LoRaHataOkumuraE @3606 DATA
    _ZTSN5flora15LoRaMediumCacheE @3607 DATA
    _ZTSN5flora15LoRaPhyPreambleE @3608 DATA
    _ZTSN5flora15LoRaTransmitterE @3609 DATA
    _ZTSN5flora15PacketForwarderE @3610 DATA
    _ZTSN5flora16LoRaPathLossOuluE @3611 DATA
    _ZTSN5flora16LoRaTransmissionE @3612 DATA
    _ZTSN5flora16NetworkServerAppE @3613 DATA
    _ZTSN5flora17LoRaBandListeningE @3614 DATA
    _ZTSN5flora17LoRaNeighborCacheE @3615 DATA
    _ZTSN5flora17LoRaTagDescriptorE @3616 DATA
    _ZTSN5flora18LoRaEnergyConsumerE @3617 DATA
    _ZTSN5flora18LoRaMacControlInfoE @3618 DATA
    _ZTSN5flora20LoRaRadioCommandCodeE @3619 DATA
    _ZTSN5flora21LoRaOptionsDescriptorE @3620 DATA
    _ZTSN5flora22LoRaLogNormalShadowingE @3621 DATA
    _ZTSN5flora22LoRaMacFrameDescriptorE @3622 DATA
    _ZTSN5flora23LoRaAppPacketDescriptorE @3623 DATA
    _ZTSN5flora23LoRaReceptionIndicationE @3624 DATA
    _ZTSN5flora23LoRaTransmissionRequestE @3625 DATA
    _ZTSN5flora25LoRaConfigureRadioCommandE @3626 DATA
    _ZTSN5flora25LoRaPhyPreambleDescriptorE @3627 DATA
    _ZTSN5flora28LoRaMacControlInfoDescriptorE @3628 DATA
    _ZTSN5flora33LoRaReceptionIndicationDescriptorE @3629 DATA
    _ZTSN5flora33LoRaTransmissionRequestDescriptorE @3630 DATA
    _ZTSN5flora35LoRaConfigureRadioCommandDescriptorE @3631 DATA
    _ZTSN5flora7LoRaMacE @3632 DATA
    _ZTSN5flora7LoRaTagE @3633 DATA
    _ZTSN5flora9LoRaGWMacE @3634 DATA
    _ZTSN5flora9LoRaRadioE @3635 DATA
    _ZTSN7omnetpp10cComponentE @3636 DATA
    _ZTSN7omnetpp10cExceptionE @3637 DATA
    _ZTSN7omnetpp10cIListenerE @3638 DATA
    _ZTSN7omnetpp10cSoftOwnerE @3639 DATA
    _ZTSN7omnetpp10cWatchBaseE @3640 DATA
    _ZTSN7omnetpp11noncopyableE @3641 DATA
    _ZTSN7omnetpp12cNamedObjectE @3642 DATA
    _ZTSN7omnetpp12cOwnedObjectE @3643 DATA
    _ZTSN7omnetpp13cRuntimeErrorE @3644 DATA
    _ZTSN7omnetpp13cSimpleModuleE @3645 DATA
    _ZTSN7omnetpp16cClassDescriptorE @3646 DATA
    _ZTSN7omnetpp21cGenericReadonlyWatchIN4inet5CoordEEE @3647 DATA
    _ZTSN7omnetpp21cGenericReadonlyWatchIN4inet5units5valueIdNS2_5units1mEEEEE @3648 DATA
    _ZTSN7omnetpp21cGenericReadonlyWatchIN4inet5units5valueIdNS2_7composeINS2_5units1mENS2_3powINS5_1sELin1ELi1EEEEEEEEE @3649 DATA
    _ZTSN7omnetpp21cGenericReadonlyWatchIN4inet5units5valueIdNS2_7composeINS4_INS4_INS2_5units1mENS4_INS5_2kgENS2_3powINS5_1sELin2ELi1EEEEEEES6_EENS8_IS9_Lin1ELi1EEEEEEEEE @3650 DATA
    _ZTSN7omnetpp21cGenericReadonlyWatchINS_4cFSMEEE @3651 DATA
    _ZTSN7omnetpp21cGenericReadonlyWatchINS_7SimTimeEEE @3652 DATA
    _ZTSN7omnetpp23cGenericAssignableWatchIdEE @3653 DATA
    _ZTSN7omnetpp23cGenericAssignableWatchIiEE @3654 DATA
    _ZTSN7omnetpp23cGenericAssignableWatchIlEE @3655 DATA
    _ZTSN7omnetpp23cNoncopyableOwnedObjectE @3656 DATA
    _ZTSN7omnetpp4cFSME @3657 DATA
    _ZTSN7omnetpp6cEventE @3658 DATA
    _ZTSN7omnetpp7SimTimeE @3659 DATA
    _ZTSN7omnetpp7cModuleE @3660 DATA
    _ZTSN7omnetpp7cObjectE @3661 DATA
    _ZTSN7omnetpp7cPacketE @3662 DATA
    _ZTSN7omnetpp8cMessageE @3663 DATA
    _ZTSN7omnetpp9cListenerE @3664 DATA
    _ZTSPKN4inet13physicallayer11ScalarNoiseE @3665 DATA
    _ZTSPKN4inet13physicallayer13IScalarSignalE @3666 DATA
    _ZTSPKN4inet13physicallayer17INarrowbandSignalE @3667 DATA
    _ZTSPKN4inet13physicallayer21IReceptionAnalogModelE @3668 DATA
    _ZTSPKN4inet13physicallayer24ITransmissionAnalogModelE @3669 DATA
    _ZTSPKN5flora13LoRaReceptionE @3670 DATA
    _ZTSPKN5flora16LoRaTransmissionE @3671 DATA
    _ZTSPKN5flora17LoRaBandListeningE @3672 DATA
    _ZTSPKN7omnetpp7cModuleE @3673 DATA
    _ZTSPKN7omnetpp7cObjectE @3674 DATA
    _ZTSPN4inet10MacAddressE @3675 DATA
    _ZTSPN4inet13physicallayer11RadioMediumE @3676 DATA
    _ZTSPN4inet13physicallayer14WirelessSignalE @3677 DATA
    _ZTSPN4inet13physicallayer21ConfigureRadioCommandE @3678 DATA
    _ZTSPN4inet13physicallayer6IRadioE @3679 DATA
    _ZTSPN4inet15IInterfaceTableE @3680 DATA
    _ZTSPN4inet18StationaryMobilityE @3681 DATA
    _ZTSPN4inet6PacketE @3682 DATA
    _ZTSPN5flora10LoRaMediumE @3683 DATA
    _ZTSPN5flora11LoRaOptionsE @3684 DATA
    _ZTSPN5flora12LoRaMacFrameE @3685 DATA
    _ZTSPN5flora13LoRaAppPacketE @3686 DATA
    _ZTSPN5flora15LoRaPhyPreambleE @3687 DATA
    _ZTSPN5flora18LoRaMacControlInfoE @3688 DATA
    _ZTSPN5flora22LoRaLogNormalShadowingE @3689 DATA
    _ZTSPN5flora23LoRaReceptionIndicationE @3690 DATA
    _ZTSPN5flora23LoRaTransmissionRequestE @3691 DATA
    _ZTSPN5flora25LoRaConfigureRadioCommandE @3692 DATA
    _ZTSPN5flora7LoRaMacE @3693 DATA
    _ZTSPN5flora7LoRaTagE @3694 DATA
    _ZTSPN5flora9LoRaGWMacE @3695 DATA
    _ZTSPN5flora9LoRaRadioE @3696 DATA
    _ZTSPN7omnetpp7cObjectE @3697 DATA
    _ZTTN5flora11LoRaGWRadioE @3698 DATA
    _ZTTN5flora12LoRaReceiverE @3699 DATA
    _ZTTN5flora13LoRaReceptionE @3700 DATA
    _ZTTN5flora15LoRaAnalogModelE @3701 DATA
    _ZTTN5flora15LoRaTransmitterE @3702 DATA
    _ZTTN5flora16LoRaTransmissionE @3703 DATA
    _ZTTN5flora18LoRaEnergyConsumerE @3704 DATA
    _ZTTN5flora9LoRaRadioE @3705 DATA
    _ZTVN4inet12IntervalTree8IntervalE @3706 DATA
    _ZTVN5flora10LoRaMediumE @3707 DATA
    _ZTVN5flora11LoRaGWRadioE @3708 DATA
    _ZTVN5flora11LoRaOptionsE @3709 DATA
    _ZTVN5flora12LoRaMacFrameE @3710 DATA
    _ZTVN5flora12LoRaReceiverE @3711 DATA
    _ZTVN5flora13LoRaAppPacketE @3712 DATA
    _ZTVN5flora13LoRaReceptionE @3713 DATA
    _ZTVN5flora13SimpleLoRaAppE @3714 DATA
    _ZTVN5flora14LoRaModulationE @3715 DATA
    _ZTVN5flora15LoRaAnalogModelE @3716 DATA
    _ZTVN5flora15LoRaHataOkumuraE @3717 DATA
    _ZTVN5flora15LoRaMediumCacheE @3718 DATA
    _ZTVN5flora15LoRaPhyPreambleE @3719 DATA
    _ZTVN5flora15LoRaTransmitterE @3720 DATA
    _ZTVN5flora15PacketForwarderE @3721 DATA
    _ZTVN5flora16LoRaPathLossOuluE @3722 DATA
    _ZTVN5flora16LoRaTransmissionE @3723 DATA
    _ZTVN5flora16NetworkServerAppE @3724 DATA
    _ZTVN5flora17LoRaBandListeningE @3725 DATA
    _ZTVN5flora17LoRaNeighborCacheE @3726 DATA
    _ZTVN5flora17LoRaTagDescriptorE @3727 DATA
    _ZTVN5flora18LoRaEnergyConsumerE @3728 DATA
    _ZTVN5flora18LoRaMacControlInfoE @3729 DATA
    _ZTVN5flora21LoRaOptionsDescriptorE @3730 DATA
    _ZTVN5flora22LoRaLogNormalShadowingE @3731 DATA
    _ZTVN5flora22LoRaMacFrameDescriptorE @3732 DATA
    _ZTVN5flora23LoRaAppPacketDescriptorE @3733 DATA
    _ZTVN5flora23LoRaReceptionIndicationE @3734 DATA
    _ZTVN5flora23LoRaTransmissionRequestE @3735 DATA
    _ZTVN5flora25LoRaConfigureRadioCommandE @3736 DATA
    _ZTVN5flora25LoRaPhyPreambleDescriptorE @3737 DATA
    _ZTVN5flora28LoRaMacControlInfoDescriptorE @3738 DATA
    _ZTVN5flora33LoRaReceptionIndicationDescriptorE @3739 DATA
    _ZTVN5flora33LoRaTransmissionRequestDescriptorE @3740 DATA
    _ZTVN5flora35LoRaConfigureRadioCommandDescriptorE @3741 DATA
    _ZTVN5flora7LoRaMacE @3742 DATA
    _ZTVN5flora7LoRaTagE @3743 DATA
    _ZTVN5flora9LoRaGWMacE @3744 DATA
    _ZTVN5flora9LoRaRadioE @3745 DATA
    _ZTVN7omnetpp21cGenericReadonlyWatchIN4inet5CoordEEE @3746 DATA
    _ZTVN7omnetpp21cGenericReadonlyWatchIN4inet5units5valueIdNS2_5units1mEEEEE @3747 DATA
    _ZTVN7omnetpp21cGenericReadonlyWatchIN4inet5units5valueIdNS2_7composeINS2_5units1mENS2_3powINS5_1sELin1ELi1EEEEEEEEE @3748 DATA
    _ZTVN7omnetpp21cGenericReadonlyWatchIN4inet5units5valueIdNS2_7composeINS4_INS4_INS2_5units1mENS4_INS5_2kgENS2_3powINS5_1sELin2ELi1EEEEEEES6_EENS8_IS9_Lin1ELi1EEEEEEEEE @3749 DATA
    _ZTVN7omnetpp21cGenericReadonlyWatchINS_4cFSMEEE @3750 DATA
    _ZTVN7omnetpp21cGenericReadonlyWatchINS_7SimTimeEEE @3751 DATA
    _ZTVN7omnetpp23cGenericAssignableWatchIdEE @3752 DATA
    _ZTVN7omnetpp23cGenericAssignableWatchIiEE @3753 DATA
    _ZTVN7omnetpp23cGenericAssignableWatchIlEE @3754 DATA
    _ZThn16_N5flora12LoRaMacFrameD0Ev @3755
    _ZThn16_N5flora12LoRaMacFrameD1Ev @3756
    _ZThn16_N5flora13LoRaAppPacketD0Ev @3757
    _ZThn16_N5flora13LoRaAppPacketD1Ev @3758
    _ZThn16_N5flora15LoRaPhyPreambleD0Ev @3759
    _ZThn16_N5flora15LoRaPhyPreambleD1Ev @3760
    _ZThn16_N5flora7LoRaTagD0Ev @3761
    _ZThn16_N5flora7LoRaTagD1Ev @3762
    _ZThn200_N5flora15LoRaHataOkumuraD0Ev @3763
    _ZThn200_N5flora15LoRaHataOkumuraD1Ev @3764
    _ZThn200_N5flora15LoRaMediumCache11removeRadioEPKN4inet13physicallayer6IRadioE @3765
    _ZThn200_N5flora15LoRaMediumCache8addRadioEPKN4inet13physicallayer6IRadioE @3766
    _ZThn200_N5flora15LoRaMediumCacheD0Ev @3767
    _ZThn200_N5flora15LoRaMediumCacheD1Ev @3768
    _ZThn200_N5flora16LoRaPathLossOuluD0Ev @3769
    _ZThn200_N5flora16LoRaPathLossOuluD1Ev @3770
    _ZThn200_N5flora22LoRaLogNormalShadowingD0Ev @3771
    _ZThn200_N5flora22LoRaLogNormalShadowingD1Ev @3772
    _ZThn200_NK5flora15LoRaHataOkumura13printToStreamERSoii @3773
    _ZThn200_NK5flora15LoRaHataOkumura15computePathLossEN4inet5units5valueIdNS2_7composeINS2_5units1mENS2_3powINS5_1sELin1ELi1EEEEEEENS3_IdS9_EENS3_IdS6_EE @3774
    _ZThn200_NK5flora15LoRaMediumCache11getMaxSpeedEv @3775
    _ZThn200_NK5flora15LoRaMediumCache13printToStreamERSoii @3776
    _ZThn200_NK5flora15LoRaMediumCache17getMaxAntennaGainEv @3777
    _ZThn200_NK5flora15LoRaMediumCache20getMaxConstraintAreaEv @3778
    _ZThn200_NK5flora15LoRaMediumCache20getMinConstraintAreaEv @3779
    _ZThn200_NK5flora15LoRaMediumCache20getMinReceptionPowerEv @3780
    _ZThn200_NK5flora15LoRaMediumCache22getMinInterferenceTimeEv @3781
    _ZThn200_NK5flora15LoRaMediumCache23getMaxInterferenceRangeEPKN4inet13physicallayer6IRadioE @3782
    _ZThn200_NK5flora15LoRaMediumCache23getMaxInterferenceRangeEv @3783
    _ZThn200_NK5flora15LoRaMediumCache23getMaxTransmissionPowerEv @3784
    _ZThn200_NK5flora15LoRaMediumCache23getMinInterferencePowerEv @3785
    _ZThn200_NK5flora15LoRaMediumCache24getMaxCommunicationRangeEPKN4inet13physicallayer6IRadioE @3786
    _ZThn200_NK5flora15LoRaMediumCache24getMaxCommunicationRangeEv @3787
    _ZThn200_NK5flora15LoRaMediumCache26getMaxTransmissionDurationEv @3788
    _ZThn200_NK5flora16LoRaPathLossOulu15computePathLossEN4inet5units5valueIdNS2_7composeINS2_5units1mENS2_3powINS5_1sELin1ELi1EEEEEEENS3_IdS9_EENS3_IdS6_EE @3789
    _ZThn200_NK5flora22LoRaLogNormalShadowing13printToStreamERSoii @3790
    _ZThn200_NK5flora22LoRaLogNormalShadowing15computePathLossEN4inet5units5valueIdNS2_7composeINS2_5units1mENS2_3powINS5_1sELin1ELi1EEEEEEENS3_IdS9_EENS3_IdS6_EE @3791
    _ZThn216_N4inet13physicallayer13FlatRadioBaseD0Ev @3792
    _ZThn216_N4inet13physicallayer13FlatRadioBaseD1Ev @3793
    _ZThn216_N4inet13physicallayer19NarrowbandRadioBaseD0Ev @3794
    _ZThn216_N4inet13physicallayer19NarrowbandRadioBaseD1Ev @3795
    _ZThn216_N4inet13physicallayer26StateBasedEpEnergyConsumerD0Ev @3796
    _ZThn216_N4inet13physicallayer26StateBasedEpEnergyConsumerD1Ev @3797
    _ZThn216_N5flora10LoRaMediumD0Ev @3798
    _ZThn216_N5flora10LoRaMediumD1Ev @3799
    _ZThn216_N5flora11LoRaGWRadioD0Ev @3800
    _ZThn216_N5flora11LoRaGWRadioD1Ev @3801
    _ZThn216_N5flora13SimpleLoRaApp20handleOperationStageEPN4inet18LifecycleOperationEPNS1_13IDoneCallbackE @3802
    _ZThn216_N5flora13SimpleLoRaAppD0Ev @3803
    _ZThn216_N5flora13SimpleLoRaAppD1Ev @3804
    _ZThn216_N5flora15PacketForwarder13receiveSignalEPN7omnetpp10cComponentEixPNS1_7cObjectE @3805
    _ZThn216_N5flora15PacketForwarderD0Ev @3806
    _ZThn216_N5flora15PacketForwarderD1Ev @3807
    _ZThn216_N5flora16NetworkServerApp13receiveSignalEPN7omnetpp10cComponentEixPNS1_7cObjectE @3808
    _ZThn216_N5flora16NetworkServerAppD0Ev @3809
    _ZThn216_N5flora16NetworkServerAppD1Ev @3810
    _ZThn216_N5flora17LoRaNeighborCache11removeRadioEPKN4inet13physicallayer6IRadioE @3811
    _ZThn216_N5flora17LoRaNeighborCache8addRadioEPKN4inet13physicallayer6IRadioE @3812
    _ZThn216_N5flora17LoRaNeighborCacheD0Ev @3813
    _ZThn216_N5flora17LoRaNeighborCacheD1Ev @3814
    _ZThn216_N5flora18LoRaEnergyConsumerD0Ev @3815
    _ZThn216_N5flora18LoRaEnergyConsumerD1Ev @3816
    _ZThn216_N5flora7LoRaMacD0Ev @3817
    _ZThn216_N5flora7LoRaMacD1Ev @3818
    _ZThn216_N5flora9LoRaGWMacD0Ev @3819
    _ZThn216_N5flora9LoRaGWMacD1Ev @3820
    _ZThn216_N5flora9LoRaRadioD0Ev @3821
    _ZThn216_N5flora9LoRaRadioD1Ev @3822
    _ZThn216_NK4inet13physicallayer26StateBasedEpEnergyConsumer19getPowerConsumptionEv @3823
    _ZThn216_NK5flora17LoRaNeighborCache13printToStreamERSoii @3824
    _ZThn216_NK5flora17LoRaNeighborCache15sendToNeighborsEPN4inet13physicallayer6IRadioEPKNS2_15IWirelessSignalEd @3825
    _ZThn216_NK5flora18LoRaEnergyConsumer19getPowerConsumptionEv @3826
    _ZThn224_N4inet13physicallayer26StateBasedEpEnergyConsumerD0Ev @3827
    _ZThn224_N4inet13physicallayer26StateBasedEpEnergyConsumerD1Ev @3828
    _ZThn224_N5flora18LoRaEnergyConsumer13receiveSignalEPN7omnetpp10cComponentEixPNS1_7cObjectE @3829
    _ZThn224_N5flora18LoRaEnergyConsumerD0Ev @3830
    _ZThn224_N5flora18LoRaEnergyConsumerD1Ev @3831
    _ZThn248_N5flora10LoRaMediumD0Ev @3832
    _ZThn248_N5flora10LoRaMediumD1Ev @3833
    _ZThn248_NK4inet13physicallayer11RadioMedium11getMaterialEv @3834
    _ZThn248_NK4inet13physicallayer11RadioMedium11getPathLossEv @3835
    _ZThn248_NK4inet13physicallayer11RadioMedium14getAnalogModelEv @3836
    _ZThn248_NK4inet13physicallayer11RadioMedium14getPropagationEv @3837
    _ZThn248_NK4inet13physicallayer11RadioMedium15getObstacleLossEv @3838
    _ZThn248_NK4inet13physicallayer11RadioMedium16getNeighborCacheEv @3839
    _ZThn248_NK4inet13physicallayer11RadioMedium18getBackgroundNoiseEv @3840
    _ZThn248_NK4inet13physicallayer11RadioMedium19getMediumLimitCacheEv @3841
    _ZThn248_NK4inet13physicallayer11RadioMedium21getCommunicationCacheEv @3842
    _ZThn248_NK4inet13physicallayer11RadioMedium22getPhysicalEnvironmentEv @3843
    _ZThn248_NK5flora10LoRaMedium18getReceptionResultEPKN4inet13physicallayer6IRadioEPKNS2_10IListeningEPKNS2_13ITransmissionE @3844
    _ZThn24_N4inet5Chunk13getRegionTagsEv @3845
    _ZThn280_N4inet13physicallayer13FlatRadioBaseD0Ev @3846
    _ZThn280_N4inet13physicallayer13FlatRadioBaseD1Ev @3847
    _ZThn280_N4inet13physicallayer19NarrowbandRadioBaseD0Ev @3848
    _ZThn280_N4inet13physicallayer19NarrowbandRadioBaseD1Ev @3849
    _ZThn280_N5flora11LoRaGWRadioD0Ev @3850
    _ZThn280_N5flora11LoRaGWRadioD1Ev @3851
    _ZThn280_N5flora7LoRaMac13receiveSignalEPN7omnetpp10cComponentEixPNS1_7cObjectE @3852
    _ZThn280_N5flora7LoRaMacD0Ev @3853
    _ZThn280_N5flora7LoRaMacD1Ev @3854
    _ZThn280_N5flora9LoRaGWMac13receiveSignalEPN7omnetpp10cComponentEixPNS1_7cObjectE @3855
    _ZThn280_N5flora9LoRaGWMacD0Ev @3856
    _ZThn280_N5flora9LoRaGWMacD1Ev @3857
    _ZThn280_N5flora9LoRaRadioD0Ev @3858
    _ZThn280_N5flora9LoRaRadioD1Ev @3859
    _ZThn360_N5flora7LoRaMacD0Ev @3860
    _ZThn360_N5flora7LoRaMacD1Ev @3861
    _ZThn368_N5flora7LoRaMac11getProviderEPN7omnetpp5cGateE @3862
    _ZThn368_N5flora7LoRaMac25handlePullPacketProcessedEPN4inet6PacketEPN7omnetpp5cGateEb @3863
    _ZThn368_N5flora7LoRaMac26handleCanPullPacketChangedEPN7omnetpp5cGateE @3864
    _ZThn368_N5flora7LoRaMacD0Ev @3865
    _ZThn368_N5flora7LoRaMacD1Ev @3866
    _ZThn8_N4inet13physicallayer6IRadioD0Ev @3867
    _ZThn8_N4inet13physicallayer6IRadioD1Ev @3868
    _ZTv0_n104_NK4inet13physicallayer12ReceiverBase20getMinReceptionPowerEv @3869
    _ZTv0_n104_NK4inet13physicallayer13ReceptionBase15getTransmissionEv @3870
    _ZTv0_n104_NK4inet13physicallayer15TransmitterBase24getMaxCommunicationRangeEv @3871
    _ZTv0_n104_NK4inet13physicallayer16FlatReceiverBase20getMinReceptionPowerEv @3872
    _ZTv0_n104_NK4inet13physicallayer5Radio9getMediumEv @3873
    _ZTv0_n104_NK5flora12LoRaReceiver20getMinReceptionPowerEv @3874
    _ZTv0_n104_NK5flora15LoRaAnalogModel12computeNoiseEPKN4inet13physicallayer10IListeningEPKNS2_13IInterferenceE @3875
    _ZTv0_n104_NK5flora9LoRaRadio9getMediumEv @3876
    _ZTv0_n112_NK4inet13physicallayer13ReceptionBase12getStartTimeEv @3877
    _ZTv0_n112_NK4inet13physicallayer15TransmitterBase23getMaxInterferenceRangeEv @3878
    _ZTv0_n112_NK4inet13physicallayer16TransmissionBase16getTransmitterIdEv @3879
    _ZTv0_n112_NK5flora12LoRaReceiver15createListeningEPKN4inet13physicallayer6IRadioEN7omnetpp7SimTimeES7_RKNS1_5CoordESA_ @3880
    _ZTv0_n112_NK5flora9LoRaRadio25getTransmissionInProgressEv @3881
    _ZTv0_n120_NK4inet13physicallayer13ReceptionBase10getEndTimeEv @3882
    _ZTv0_n120_NK4inet13physicallayer16TransmissionBase25getTransmitterAntennaGainEv @3883
    _ZTv0_n120_NK5flora12LoRaReceiver24computeListeningDecisionEPKN4inet13physicallayer10IListeningEPKNS2_13IInterferenceE @3884
    _ZTv0_n120_NK5flora15LoRaAnalogModel11computeSNIREPKN4inet13physicallayer10IReceptionEPKNS2_6INoiseE @3885
    _ZTv0_n120_NK5flora15LoRaTransmitter18createTransmissionEPKN4inet13physicallayer6IRadioEPKNS1_6PacketEN7omnetpp7SimTimeE @3886
    _ZTv0_n120_NK5flora9LoRaRadio22getReceptionInProgressEv @3887
    _ZTv0_n128_NK4inet13physicallayer16TransmissionBase9getMediumEv @3888
    _ZTv0_n128_NK5flora12LoRaReceiver26computeIsReceptionPossibleEPKN4inet13physicallayer10IListeningEPKNS2_13ITransmissionE @3889
    _ZTv0_n128_NK5flora9LoRaRadio24getTransmittedSignalPartEv @3890
    _ZTv0_n136_NK4inet13physicallayer16TransmissionBase9getPacketEv @3891
    _ZTv0_n136_NK5flora12LoRaReceiver26computeIsReceptionPossibleEPKN4inet13physicallayer10IListeningEPKNS2_10IReceptionENS2_12IRadioSignal10SignalPartE @3892
    _ZTv0_n136_NK5flora9LoRaRadio21getReceivedSignalPartEv @3893
    _ZTv0_n144_NK4inet13physicallayer13ReceptionBase20getPreambleStartTimeEv @3894
    _ZTv0_n144_NK4inet13physicallayer16TransmissionBase12getStartTimeEv @3895
    _ZTv0_n144_NK5flora12LoRaReceiver27computeIsReceptionAttemptedEPKN4inet13physicallayer10IListeningEPKNS2_10IReceptionENS2_12IRadioSignal10SignalPartEPKNS2_13IInterferenceE @3896
    _ZTv0_n152_NK4inet13physicallayer13ReceptionBase18getPreambleEndTimeEv @3897
    _ZTv0_n152_NK4inet13physicallayer16TransmissionBase10getEndTimeEv @3898
    _ZTv0_n152_NK5flora12LoRaReceiver28computeIsReceptionSuccessfulEPKN4inet13physicallayer10IListeningEPKNS2_10IReceptionENS2_12IRadioSignal10SignalPartEPKNS2_13IInterferenceEPKNS2_5ISnirE @3899
    _ZTv0_n160_NK4inet13physicallayer13ReceptionBase18getHeaderStartTimeEv @3900
    _ZTv0_n160_NK5flora12LoRaReceiver24computeReceptionDecisionEPKN4inet13physicallayer10IListeningEPKNS2_10IReceptionENS2_12IRadioSignal10SignalPartEPKNS2_13IInterferenceEPKNS2_5ISnirE @3901
    _ZTv0_n168_NK4inet13physicallayer13ReceptionBase16getHeaderEndTimeEv @3902
    _ZTv0_n168_NK5flora12LoRaReceiver22computeReceptionResultEPKN4inet13physicallayer10IListeningEPKNS2_10IReceptionEPKNS2_13IInterferenceEPKNS2_5ISnirEPKSt6vectorIPKNS2_18IReceptionDecisionESaISI_EE @3903
    _ZTv0_n176_NK4inet13physicallayer13ReceptionBase16getDataStartTimeEv @3904
    _ZTv0_n176_NK4inet13physicallayer16TransmissionBase20getPreambleStartTimeEv @3905
    _ZTv0_n184_NK4inet13physicallayer13ReceptionBase14getDataEndTimeEv @3906
    _ZTv0_n184_NK4inet13physicallayer16TransmissionBase18getPreambleEndTimeEv @3907
    _ZTv0_n192_NK4inet13physicallayer13ReceptionBase11getDurationEv @3908
    _ZTv0_n192_NK4inet13physicallayer16TransmissionBase18getHeaderStartTimeEv @3909
    _ZTv0_n200_NK4inet13physicallayer16TransmissionBase16getHeaderEndTimeEv @3910
    _ZTv0_n208_NK4inet13physicallayer13ReceptionBase19getPreambleDurationEv @3911
    _ZTv0_n208_NK4inet13physicallayer16TransmissionBase16getDataStartTimeEv @3912
    _ZTv0_n216_NK4inet13physicallayer13ReceptionBase17getHeaderDurationEv @3913
    _ZTv0_n216_NK4inet13physicallayer16TransmissionBase14getDataEndTimeEv @3914
    _ZTv0_n224_NK4inet13physicallayer13ReceptionBase15getDataDurationEv @3915
    _ZTv0_n224_NK4inet13physicallayer16TransmissionBase11getDurationEv @3916
    _ZTv0_n232_NK4inet13physicallayer13ReceptionBase16getStartPositionEv @3917
    _ZTv0_n240_NK4inet13physicallayer13ReceptionBase14getEndPositionEv @3918
    _ZTv0_n240_NK4inet13physicallayer16TransmissionBase19getPreambleDurationEv @3919
    _ZTv0_n248_NK4inet13physicallayer13ReceptionBase19getStartOrientationEv @3920
    _ZTv0_n248_NK4inet13physicallayer16TransmissionBase17getHeaderDurationEv @3921
    _ZTv0_n24_N4inet13physicallayer12ReceiverBaseD0Ev @3922
    _ZTv0_n24_N4inet13physicallayer12ReceiverBaseD1Ev @3923
    _ZTv0_n24_N4inet13physicallayer13FlatRadioBaseD0Ev @3924
    _ZTv0_n24_N4inet13physicallayer13FlatRadioBaseD1Ev @3925
    _ZTv0_n24_N4inet13physicallayer13ReceptionBaseD0Ev @3926
    _ZTv0_n24_N4inet13physicallayer13ReceptionBaseD1Ev @3927
    _ZTv0_n24_N4inet13physicallayer15AnalogModelBaseD0Ev @3928
    _ZTv0_n24_N4inet13physicallayer15AnalogModelBaseD1Ev @3929
    _ZTv0_n24_N4inet13physicallayer15ScalarReceptionD0Ev @3930
    _ZTv0_n24_N4inet13physicallayer15ScalarReceptionD1Ev @3931
    _ZTv0_n24_N4inet13physicallayer15TransmitterBaseD0Ev @3932
    _ZTv0_n24_N4inet13physicallayer15TransmitterBaseD1Ev @3933
    _ZTv0_n24_N4inet13physicallayer16FlatReceiverBaseD0Ev @3934
    _ZTv0_n24_N4inet13physicallayer16FlatReceiverBaseD1Ev @3935
    _ZTv0_n24_N4inet13physicallayer16SnirReceiverBaseD0Ev @3936
    _ZTv0_n24_N4inet13physicallayer16SnirReceiverBaseD1Ev @3937
    _ZTv0_n24_N4inet13physicallayer16TransmissionBaseD0Ev @3938
    _ZTv0_n24_N4inet13physicallayer16TransmissionBaseD1Ev @3939
    _ZTv0_n24_N4inet13physicallayer17FlatReceptionBaseD0Ev @3940
    _ZTv0_n24_N4inet13physicallayer17FlatReceptionBaseD1Ev @3941
    _ZTv0_n24_N4inet13physicallayer19FlatTransmitterBaseD0Ev @3942
    _ZTv0_n24_N4inet13physicallayer19FlatTransmitterBaseD1Ev @3943
    _ZTv0_n24_N4inet13physicallayer19NarrowbandRadioBaseD0Ev @3944
    _ZTv0_n24_N4inet13physicallayer19NarrowbandRadioBaseD1Ev @3945
    _ZTv0_n24_N4inet13physicallayer21IReceptionAnalogModelD0Ev @3946
    _ZTv0_n24_N4inet13physicallayer21IReceptionAnalogModelD1Ev @3947
    _ZTv0_n24_N4inet13physicallayer21ScalarAnalogModelBaseD0Ev @3948
    _ZTv0_n24_N4inet13physicallayer21ScalarAnalogModelBaseD1Ev @3949
    _ZTv0_n24_N4inet13physicallayer22NarrowbandReceiverBaseD0Ev @3950
    _ZTv0_n24_N4inet13physicallayer22NarrowbandReceiverBaseD1Ev @3951
    _ZTv0_n24_N4inet13physicallayer23NarrowbandReceptionBaseD0Ev @3952
    _ZTv0_n24_N4inet13physicallayer23NarrowbandReceptionBaseD1Ev @3953
    _ZTv0_n24_N4inet13physicallayer24ITransmissionAnalogModelD0Ev @3954
    _ZTv0_n24_N4inet13physicallayer24ITransmissionAnalogModelD1Ev @3955
    _ZTv0_n24_N4inet13physicallayer25NarrowbandTransmitterBaseD0Ev @3956
    _ZTv0_n24_N4inet13physicallayer25NarrowbandTransmitterBaseD1Ev @3957
    _ZTv0_n24_N4inet13physicallayer26StateBasedEpEnergyConsumerD0Ev @3958
    _ZTv0_n24_N4inet13physicallayer26StateBasedEpEnergyConsumerD1Ev @3959
    _ZTv0_n24_N4inet5power17IEpEnergyConsumerD0Ev @3960
    _ZTv0_n24_N4inet5power17IEpEnergyConsumerD1Ev @3961
    _ZTv0_n24_N5flora11LoRaGWRadioD0Ev @3962
    _ZTv0_n24_N5flora11LoRaGWRadioD1Ev @3963
    _ZTv0_n24_N5flora12LoRaReceiverD0Ev @3964
    _ZTv0_n24_N5flora12LoRaReceiverD1Ev @3965
    _ZTv0_n24_N5flora13LoRaReceptionD0Ev @3966
    _ZTv0_n24_N5flora13LoRaReceptionD1Ev @3967
    _ZTv0_n24_N5flora15LoRaAnalogModelD0Ev @3968
    _ZTv0_n24_N5flora15LoRaAnalogModelD1Ev @3969
    _ZTv0_n24_N5flora15LoRaTransmitterD0Ev @3970
    _ZTv0_n24_N5flora15LoRaTransmitterD1Ev @3971
    _ZTv0_n24_N5flora16LoRaTransmissionD0Ev @3972
    _ZTv0_n24_N5flora16LoRaTransmissionD1Ev @3973
    _ZTv0_n24_N5flora18LoRaEnergyConsumerD0Ev @3974
    _ZTv0_n24_N5flora18LoRaEnergyConsumerD1Ev @3975
    _ZTv0_n24_N5flora9LoRaRadioD0Ev @3976
    _ZTv0_n24_N5flora9LoRaRadioD1Ev @3977
    _ZTv0_n24_NK4inet13physicallayer15ScalarReception8getPowerEv @3978
    _ZTv0_n24_NK4inet13physicallayer23NarrowbandReceptionBase18getCenterFrequencyEv @3979
    _ZTv0_n24_NK5flora13LoRaReception8getPowerEv @3980
    _ZTv0_n24_NK5flora16LoRaTransmission18getCenterFrequencyEv @3981
    _ZTv0_n24_NK5flora16LoRaTransmission8getPowerEv @3982
    _ZTv0_n256_NK4inet13physicallayer13ReceptionBase17getEndOrientationEv @3983
    _ZTv0_n256_NK4inet13physicallayer16TransmissionBase15getDataDurationEv @3984
    _ZTv0_n264_NK4inet13physicallayer13ReceptionBase14getAnalogModelEv @3985
    _ZTv0_n264_NK4inet13physicallayer16TransmissionBase16getStartPositionEv @3986
    _ZTv0_n272_NK4inet13physicallayer16TransmissionBase14getEndPositionEv @3987
    _ZTv0_n280_NK4inet13physicallayer16TransmissionBase19getStartOrientationEv @3988
    _ZTv0_n288_NK4inet13physicallayer16TransmissionBase17getEndOrientationEv @3989
    _ZTv0_n296_NK4inet13physicallayer16TransmissionBase14getAnalogModelEv @3990
    _ZTv0_n32_NK4inet13physicallayer23NarrowbandReceptionBase12getBandwidthEv @3991
    _ZTv0_n32_NK4inet13physicallayer26StateBasedEpEnergyConsumer15getEnergySourceEv @3992
    _ZTv0_n32_NK4inet13physicallayer5Radio12getRadioGateEv @3993
    _ZTv0_n32_NK5flora15LoRaAnalogModel13printToStreamERSoii @3994
    _ZTv0_n32_NK5flora15LoRaTransmitter13printToStreamERSoii @3995
    _ZTv0_n32_NK5flora16LoRaTransmission12getBandwidthEv @3996
    _ZTv0_n32_NK5flora16LoRaTransmission13printToStreamERSoii @3997
    _ZTv0_n32_NK5flora9LoRaRadio12getRadioGateEv @3998
    _ZTv0_n40_NK4inet13physicallayer15ScalarReception15computeMinPowerEN7omnetpp7SimTimeES3_ @3999
    _ZTv0_n40_NK4inet13physicallayer5Radio12getRadioModeEv @4000
    _ZTv0_n40_NK5flora13LoRaReception15computeMinPowerEN7omnetpp7SimTimeES2_ @4001
    _ZTv0_n40_NK5flora16LoRaTransmission15computeMinPowerEN7omnetpp7SimTimeES2_ @4002
    _ZTv0_n40_NK5flora9LoRaRadio12getRadioModeEv @4003
    _ZTv0_n56_NK4inet13physicallayer5Radio17getReceptionStateEv @4004
    _ZTv0_n56_NK5flora9LoRaRadio17getReceptionStateEv @4005
    _ZTv0_n64_NK4inet13physicallayer5Radio20getTransmissionStateEv @4006
    _ZTv0_n64_NK5flora9LoRaRadio20getTransmissionStateEv @4007
    _ZTv0_n72_NK4inet13physicallayer5Radio5getIdEv @4008
    _ZTv0_n72_NK5flora9LoRaRadio5getIdEv @4009
    _ZTv0_n80_NK4inet13physicallayer5Radio10getAntennaEv @4010
    _ZTv0_n80_NK5flora9LoRaRadio10getAntennaEv @4011
    _ZTv0_n88_NK4inet13physicallayer5Radio14getTransmitterEv @4012
    _ZTv0_n88_NK5flora9LoRaRadio14getTransmitterEv @4013
    _ZTv0_n96_NK4inet13physicallayer12ReceiverBase23getMinInterferencePowerEv @4014
    _ZTv0_n96_NK4inet13physicallayer13ReceptionBase11getDurationEv @4015
    _ZTv0_n96_NK4inet13physicallayer13ReceptionBase11getReceiverEv @4016
    _ZTv0_n96_NK4inet13physicallayer15TransmitterBase11getMaxPowerEv @4017
    _ZTv0_n96_NK4inet13physicallayer16TransmissionBase11getDurationEv @4018
    _ZTv0_n96_NK4inet13physicallayer16TransmissionBase5getIdEv @4019
    _ZTv0_n96_NK4inet13physicallayer19FlatTransmitterBase11getMaxPowerEv @4020
    _ZTv0_n96_NK4inet13physicallayer5Radio11getReceiverEv @4021
    _ZTv0_n96_NK5flora12LoRaReceiver23getMinInterferencePowerEv @4022
    _ZTv0_n96_NK5flora15LoRaAnalogModel16computeReceptionEPKN4inet13physicallayer6IRadioEPKNS2_13ITransmissionEPKNS2_8IArrivalE @4023
    _ZTv0_n96_NK5flora9LoRaRadio11getReceiverEv @4024
    _ZTvn8_n144_NK5flora9LoRaRadio13printToStreamERSoii @4025
    _ZTvn8_n24_N4inet13physicallayer13FlatRadioBaseD0Ev @4026
    _ZTvn8_n24_N4inet13physicallayer13FlatRadioBaseD1Ev @4027
    _ZTvn8_n24_N4inet13physicallayer19NarrowbandRadioBaseD0Ev @4028
    _ZTvn8_n24_N4inet13physicallayer19NarrowbandRadioBaseD1Ev @4029
    _ZTvn8_n24_N5flora11LoRaGWRadioD0Ev @4030
    _ZTvn8_n24_N5flora11LoRaGWRadioD1Ev @4031
    _ZTvn8_n24_N5flora9LoRaRadioD0Ev @4032
    _ZTvn8_n24_N5flora9LoRaRadioD1Ev @4033
    _ZZNK4inet5Chunk4peekIN5flora12LoRaMacFrameEEEKNS_12IntrusivePtrIT_EERKNS0_8IteratorENS_5units5valueIxNSB_5units1bEEEiENKUlRKNS4_IS0_EEE_clESI_ @4034
    _ZZNK4inet5Chunk4peekIN5flora12LoRaMacFrameEEEKNS_12IntrusivePtrIT_EERKNS0_8IteratorENS_5units5valueIxNSB_5units1bEEEiENKUlRKNS4_IS0_EEE_cvPFbSI_EEv @4035
    _ZZNK4inet5Chunk4peekIN5flora12LoRaMacFrameEEEKNS_12IntrusivePtrIT_EERKNS0_8IteratorENS_5units5valueIxNSB_5units1bEEEiENKUlRKNS4_IS0_EESA_SF_iE_clESI_SA_SF_i @4036
    _ZZNK4inet5Chunk4peekIN5flora12LoRaMacFrameEEEKNS_12IntrusivePtrIT_EERKNS0_8IteratorENS_5units5valueIxNSB_5units1bEEEiENKUlRKNS4_IS0_EESA_SF_iE_cvPFSH_SI_SA_SF_iEEv @4037
    _ZZNK4inet5Chunk4peekIN5flora12LoRaMacFrameEEEKNS_12IntrusivePtrIT_EERKNS0_8IteratorENS_5units5valueIxNSB_5units1bEEEiENUlRKNS4_IS0_EEE_8__invokeESI_ @4038
    _ZZNK4inet5Chunk4peekIN5flora12LoRaMacFrameEEEKNS_12IntrusivePtrIT_EERKNS0_8IteratorENS_5units5valueIxNSB_5units1bEEEiENUlRKNS4_IS0_EESA_SF_iE_8__invokeESI_SA_SF_i @4039
    _ZZNK4inet5Chunk4peekIN5flora13LoRaAppPacketEEEKNS_12IntrusivePtrIT_EERKNS0_8IteratorENS_5units5valueIxNSB_5units1bEEEiENKUlRKNS4_IS0_EEE_clESI_ @4040
    _ZZNK4inet5Chunk4peekIN5flora13LoRaAppPacketEEEKNS_12IntrusivePtrIT_EERKNS0_8IteratorENS_5units5valueIxNSB_5units1bEEEiENKUlRKNS4_IS0_EEE_cvPFbSI_EEv @4041
    _ZZNK4inet5Chunk4peekIN5flora13LoRaAppPacketEEEKNS_12IntrusivePtrIT_EERKNS0_8IteratorENS_5units5valueIxNSB_5units1bEEEiENKUlRKNS4_IS0_EESA_SF_iE_clESI_SA_SF_i @4042
    _ZZNK4inet5Chunk4peekIN5flora13LoRaAppPacketEEEKNS_12IntrusivePtrIT_EERKNS0_8IteratorENS_5units5valueIxNSB_5units1bEEEiENKUlRKNS4_IS0_EESA_SF_iE_cvPFSH_SI_SA_SF_iEEv @4043
    _ZZNK4inet5Chunk4peekIN5flora13LoRaAppPacketEEEKNS_12IntrusivePtrIT_EERKNS0_8IteratorENS_5units5valueIxNSB_5units1bEEEiENUlRKNS4_IS0_EEE_8__invokeESI_ @4044
    _ZZNK4inet5Chunk4peekIN5flora13LoRaAppPacketEEEKNS_12IntrusivePtrIT_EERKNS0_8IteratorENS_5units5valueIxNSB_5units1bEEEiENUlRKNS4_IS0_EESA_SF_iE_8__invokeESI_SA_SF_i @4045
    _ZZNK4inet5Chunk4peekIN5flora15LoRaPhyPreambleEEEKNS_12IntrusivePtrIT_EERKNS0_8IteratorENS_5units5valueIxNSB_5units1bEEEiENKUlRKNS4_IS0_EEE_clESI_ @4046
    _ZZNK4inet5Chunk4peekIN5flora15LoRaPhyPreambleEEEKNS_12IntrusivePtrIT_EERKNS0_8IteratorENS_5units5valueIxNSB_5units1bEEEiENKUlRKNS4_IS0_EEE_cvPFbSI_EEv @4047
    _ZZNK4inet5Chunk4peekIN5flora15LoRaPhyPreambleEEEKNS_12IntrusivePtrIT_EERKNS0_8IteratorENS_5units5valueIxNSB_5units1bEEEiENKUlRKNS4_IS0_EESA_SF_iE_clESI_SA_SF_i @4048
    _ZZNK4inet5Chunk4peekIN5flora15LoRaPhyPreambleEEEKNS_12IntrusivePtrIT_EERKNS0_8IteratorENS_5units5valueIxNSB_5units1bEEEiENKUlRKNS4_IS0_EESA_SF_iE_cvPFSH_SI_SA_SF_iEEv @4049
    _ZZNK4inet5Chunk4peekIN5flora15LoRaPhyPreambleEEEKNS_12IntrusivePtrIT_EERKNS0_8IteratorENS_5units5valueIxNSB_5units1bEEEiENUlRKNS4_IS0_EEE_8__invokeESI_ @4050
    _ZZNK4inet5Chunk4peekIN5flora15LoRaPhyPreambleEEEKNS_12IntrusivePtrIT_EERKNS0_8IteratorENS_5units5valueIxNSB_5units1bEEEiENUlRKNS4_IS0_EESA_SF_iE_8__invokeESI_SA_SF_i @4051
    _ZZNK4inet5Chunk4peekINS_11FieldsChunkEEEKNS_12IntrusivePtrIT_EERKNS0_8IteratorENS_5units5valueIxNSA_5units1bEEEiENKUlRKNS3_IS0_EEE_clESH_ @4052
    _ZZNK4inet5Chunk4peekINS_11FieldsChunkEEEKNS_12IntrusivePtrIT_EERKNS0_8IteratorENS_5units5valueIxNSA_5units1bEEEiENKUlRKNS3_IS0_EEE_cvPFbSH_EEv @4053
    _ZZNK4inet5Chunk4peekINS_11FieldsChunkEEEKNS_12IntrusivePtrIT_EERKNS0_8IteratorENS_5units5valueIxNSA_5units1bEEEiENKUlRKNS3_IS0_EES9_SE_iE_clESH_S9_SE_i @4054
    _ZZNK4inet5Chunk4peekINS_11FieldsChunkEEEKNS_12IntrusivePtrIT_EERKNS0_8IteratorENS_5units5valueIxNSA_5units1bEEEiENKUlRKNS3_IS0_EES9_SE_iE_cvPFSG_SH_S9_SE_iEEv @4055
    _ZZNK4inet5Chunk4peekINS_11FieldsChunkEEEKNS_12IntrusivePtrIT_EERKNS0_8IteratorENS_5units5valueIxNSA_5units1bEEEiENUlRKNS3_IS0_EEE_8__invokeESH_ @4056
    _ZZNK4inet5Chunk4peekINS_11FieldsChunkEEEKNS_12IntrusivePtrIT_EERKNS0_8IteratorENS_5units5valueIxNSA_5units1bEEEiENUlRKNS3_IS0_EES9_SE_iE_8__invokeESH_S9_SE_i @4057
    __clang_call_terminate @4058
