EXPORTS
    _ZN4inet11FieldsChunk14addChunkLengthENS_5units5valueIxNS1_5units1bEEE @1
    _ZN4inet11FieldsChunk14setChunkLengthENS_5units5valueIxNS1_5units1bEEE @2
    _ZN4inet12IntervalTree8IntervalD0Ev @3
    _ZN4inet12IntervalTree8IntervalD2Ev @4
    _ZN4inet13SharingTagSet14addTagIfAbsentIN5flora7LoRaTagEEEKNS_12IntrusivePtrIT_EEv @5
    _ZN4inet13SharingTagSet14addTagIfAbsentINS_12ErrorRateIndEEEKNS_12IntrusivePtrIT_EEv @6
    _ZN4inet13SharingTagSet14addTagIfAbsentINS_12InterfaceIndEEEKNS_12IntrusivePtrIT_EEv @7
    _ZN4inet13SharingTagSet14addTagIfAbsentINS_13MacAddressIndEEEKNS_12IntrusivePtrIT_EEv @8
    _ZN4inet13SharingTagSet14addTagIfAbsentINS_13MacAddressReqEEEKNS_12IntrusivePtrIT_EEv @9
    _ZN4inet13SharingTagSet14addTagIfAbsentINS_13SignalTimeIndEEEKNS_12IntrusivePtrIT_EEv @10
    _ZN4inet13SharingTagSet14addTagIfAbsentINS_14SignalPowerIndEEEKNS_12IntrusivePtrIT_EEv @11
    _ZN4inet13SharingTagSet14addTagIfAbsentINS_14SignalPowerReqEEEKNS_12IntrusivePtrIT_EEv @12
    _ZN4inet13SharingTagSet14addTagIfAbsentINS_17PacketProtocolTagEEEKNS_12IntrusivePtrIT_EEv @13
    _ZN4inet13SharingTagSet14addTagIfAbsentINS_7SnirIndEEEKNS_12IntrusivePtrIT_EEv @14
    _ZN4inet13SharingTagSet16findTagForUpdateIN5flora7LoRaTagEEEKNS_12IntrusivePtrIT_EEv @15
    _ZN4inet13SharingTagSet16findTagForUpdateINS_12ErrorRateIndEEEKNS_12IntrusivePtrIT_EEv @16
    _ZN4inet13SharingTagSet16findTagForUpdateINS_12InterfaceIndEEEKNS_12IntrusivePtrIT_EEv @17
    _ZN4inet13SharingTagSet16findTagForUpdateINS_13MacAddressIndEEEKNS_12IntrusivePtrIT_EEv @18
    _ZN4inet13SharingTagSet16findTagForUpdateINS_13MacAddressReqEEEKNS_12IntrusivePtrIT_EEv @19
    _ZN4inet13SharingTagSet16findTagForUpdateINS_13SignalTimeIndEEEKNS_12IntrusivePtrIT_EEv @20
    _ZN4inet13SharingTagSet16findTagForUpdateINS_14SignalPowerIndEEEKNS_12IntrusivePtrIT_EEv @21
    _ZN4inet13SharingTagSet16findTagForUpdateINS_14SignalPowerReqEEEKNS_12IntrusivePtrIT_EEv @22
    _ZN4inet13SharingTagSet16findTagForUpdateINS_17PacketProtocolTagEEEKNS_12IntrusivePtrIT_EEv @23
    _ZN4inet13SharingTagSet16findTagForUpdateINS_7SnirIndEEEKNS_12IntrusivePtrIT_EEv @24
    _ZN4inet13SharingTagSet6addTagIN5flora7LoRaTagEEEKNS_12IntrusivePtrIT_EEv @25
    _ZN4inet13SharingTagSet9removeTagIN5flora7LoRaTagEEEKNS_12IntrusivePtrIT_EEv @26
    _ZN4inet13physicallayer12PathLossBaseD2Ev @27
    _ZN4inet13physicallayer12ReceiverBaseD0Ev @28
    _ZN4inet13physicallayer12ReceiverBaseD1Ev @29
    _ZN4inet13physicallayer13FlatRadioBaseD0Ev @30
    _ZN4inet13physicallayer13FlatRadioBaseD1Ev @31
    _ZN4inet13physicallayer13ReceptionBaseD0Ev @32
    _ZN4inet13physicallayer13ReceptionBaseD1Ev @33
    _ZN4inet13physicallayer15AnalogModelBaseD0Ev @34
    _ZN4inet13physicallayer15AnalogModelBaseD1Ev @35
    _ZN4inet13physicallayer15ScalarReceptionD0Ev @36
    _ZN4inet13physicallayer15ScalarReceptionD1Ev @37
    _ZN4inet13physicallayer15TransmitterBaseD0Ev @38
    _ZN4inet13physicallayer15TransmitterBaseD1Ev @39
    _ZN4inet13physicallayer16FlatReceiverBase14setSensitivityENS_5units5valueIdNS2_7composeINS4_INS4_INS2_5units1mENS4_INS5_2kgENS2_3powINS5_1sELin2ELi1EEEEEEES6_EENS8_IS9_Lin1ELi1EEEEEEE @40
    _ZN4inet13physicallayer16FlatReceiverBase18setEnergyDetectionENS_5units5valueIdNS2_7composeINS4_INS4_INS2_5units1mENS4_INS5_2kgENS2_3powINS5_1sELin2ELi1EEEEEEES6_EENS8_IS9_Lin1ELi1EEEEEEE @41
    _ZN4inet13physicallayer16FlatReceiverBaseD0Ev @42
    _ZN4inet13physicallayer16FlatReceiverBaseD1Ev @43
    _ZN4inet13physicallayer16SnirReceiverBaseD0Ev @44
    _ZN4inet13physicallayer16SnirReceiverBaseD1Ev @45
    _ZN4inet13physicallayer16TransmissionBaseD0Ev @46
    _ZN4inet13physicallayer16TransmissionBaseD1Ev @47
    _ZN4inet13physicallayer17FlatReceptionBaseD0Ev @48
    _ZN4inet13physicallayer17FlatReceptionBaseD1Ev @49
    _ZN4inet13physicallayer19FlatTransmitterBase10setBitrateENS_5units5valueIdNS2_7composeINS2_5units1bENS2_3powINS5_1sELin1ELi1EEEEEEE @50
    _ZN4inet13physicallayer19FlatTransmitterBase15setHeaderLengthENS_5units5valueIxNS2_5units1bEEE @51
    _ZN4inet13physicallayer19FlatTransmitterBase8setPowerENS_5units5valueIdNS2_7composeINS4_INS4_INS2_5units1mENS4_INS5_2kgENS2_3powINS5_1sELin2ELi1EEEEEEES6_EENS8_IS9_Lin1ELi1EEEEEEE @52
    _ZN4inet13physicallayer19FlatTransmitterBaseD0Ev @53
    _ZN4inet13physicallayer19FlatTransmitterBaseD1Ev @54
    _ZN4inet13physicallayer19NarrowbandRadioBaseD0Ev @55
    _ZN4inet13physicallayer19NarrowbandRadioBaseD1Ev @56
    _ZN4inet13physicallayer21IReceptionAnalogModelD0Ev @57
    _ZN4inet13physicallayer21IReceptionAnalogModelD1Ev @58
    _ZN4inet13physicallayer21ScalarAnalogModelBaseD0Ev @59
    _ZN4inet13physicallayer21ScalarAnalogModelBaseD1Ev @60
    _ZN4inet13physicallayer22NarrowbandReceiverBase12setBandwidthENS_5units5valueIdNS2_3powINS2_5units1sELin1ELi1EEEEE @61
    _ZN4inet13physicallayer22NarrowbandReceiverBase13setModulationEPKNS0_11IModulationE @62
    _ZN4inet13physicallayer22NarrowbandReceiverBase18setCenterFrequencyENS_5units5valueIdNS2_3powINS2_5units1sELin1ELi1EEEEE @63
    _ZN4inet13physicallayer22NarrowbandReceiverBaseD0Ev @64
    _ZN4inet13physicallayer22NarrowbandReceiverBaseD1Ev @65
    _ZN4inet13physicallayer23NarrowbandReceptionBaseD0Ev @66
    _ZN4inet13physicallayer23NarrowbandReceptionBaseD1Ev @67
    _ZN4inet13physicallayer24ITransmissionAnalogModelD0Ev @68
    _ZN4inet13physicallayer24ITransmissionAnalogModelD1Ev @69
    _ZN4inet13physicallayer25NarrowbandTransmitterBase12setBandwidthENS_5units5valueIdNS2_3powINS2_5units1sELin1ELi1EEEEE @70
    _ZN4inet13physicallayer25NarrowbandTransmitterBase13setModulationEPKNS0_11IModulationE @71
    _ZN4inet13physicallayer25NarrowbandTransmitterBase18setCenterFrequencyENS_5units5valueIdNS2_3powINS2_5units1sELin1ELi1EEEEE @72
    _ZN4inet13physicallayer25NarrowbandTransmitterBaseD0Ev @73
    _ZN4inet13physicallayer25NarrowbandTransmitterBaseD1Ev @74
    _ZN4inet13physicallayer26StateBasedEpEnergyConsumerD0Ev @75
    _ZN4inet13physicallayer26StateBasedEpEnergyConsumerD1Ev @76
    _ZN4inet13physicallayer26StateBasedEpEnergyConsumerD2Ev @77
    _ZN4inet16IPrintableObjectD2Ev @78
    _ZN4inet16getModuleFromParIN5flora10LoRaMediumEEEPT_RN7omnetpp4cParEPKNS5_7cModuleE @79
    _ZN4inet16getModuleFromParIN7omnetpp7cModuleEEEPT_RNS1_4cParEPKS2_ @80
    _ZN4inet16getModuleFromParINS_5power15IEpEnergySourceEEEPT_RN7omnetpp4cParEPKNS5_7cModuleE @81
    _ZN4inet18printFieldToStringB5cxx11EPKNS_16IPrintableObjectEii @82
    _ZN4inet5Chunk10doInsertAtERKNS_12IntrusivePtrIKS0_EENS_5units5valueIxNS6_5units1bEEE @83
    _ZN4inet5Chunk10doRemoveAtENS_5units5valueIxNS1_5units1bEEES5_ @84
    _ZN4inet5Chunk13getRegionTagsEv @85
    _ZN4inet5Chunk13markImmutableEv @86
    _ZN4inet5Chunk13markIncorrectEv @87
    _ZN4inet5Chunk14doInsertAtBackERKNS_12IntrusivePtrIKS0_EE @88
    _ZN4inet5Chunk14doRemoveAtBackENS_5units5valueIxNS1_5units1bEEE @89
    _ZN4inet5Chunk14markIncompleteEv @90
    _ZN4inet5Chunk15doInsertAtFrontERKNS_12IntrusivePtrIKS0_EE @91
    _ZN4inet5Chunk15doRemoveAtFrontENS_5units5valueIxNS1_5units1bEEE @92
    _ZN4inet5Chunk25markImproperlyRepresentedEv @93
    _ZN4inet5power17IEpEnergyConsumerD0Ev @94
    _ZN4inet5power17IEpEnergyConsumerD1Ev @95
    _ZN4inet5units6values11unit2stringIdNS0_3powINS0_5units1sELin1ELi1EEEEENSt7__cxx1112basic_stringIcSt11char_traitsIcESaIcEEERKNS0_5valueIT_T0_EE @96
    _ZN4inet5units6values11unit2stringIdNS0_7composeINS0_5units1bENS0_3powINS4_1sELin1ELi1EEEEEEENSt7__cxx1112basic_stringIcSt11char_traitsIcESaIcEEERKNS0_5valueIT_T0_EE @97
    _ZN4inet5units6values11unit2stringIdNS0_7composeINS3_INS3_INS0_5units1mENS3_INS4_2kgENS0_3powINS4_1sELin2ELi1EEEEEEES5_EENS7_IS8_Lin1ELi1EEEEEEENSt7__cxx1112basic_stringIcSt11char_traitsIcESaIcEEERKNS0_5valueIT_T0_EE @98
    _ZN4inet5unitslsIdEERSoS2_RKNS0_5valueIT_NS0_3powINS0_5units1sELin1ELi1EEEEE @99
    _ZN4inet5unitslsIdEERSoS2_RKNS0_5valueIT_NS0_7composeINS0_5units1bENS0_3powINS6_1sELin1ELi1EEEEEEE @100
    _ZN4inet5unitslsIdEERSoS2_RKNS0_5valueIT_NS0_7composeINS5_INS5_INS0_5units1mENS5_INS6_2kgENS0_3powINS6_1sELin2ELi1EEEEEEES7_EENS9_ISA_Lin1ELi1EEEEEEE @101
    _ZN4inet6Packet10popAtFrontIN5flora12LoRaMacFrameEEEKNS_12IntrusivePtrIKT_EENS_5units5valueIxNS9_5units1bEEEi @102
    _ZN4inet6Packet10popAtFrontIN5flora15LoRaPhyPreambleEEEKNS_12IntrusivePtrIKT_EENS_5units5valueIxNS9_5units1bEEEi @103
    _ZN4inet6Packet13removeAtFrontIN5flora12LoRaMacFrameEEEKNS_12IntrusivePtrIT_EENS_5units5valueIxNS8_5units1bEEEi @104
    _ZN4inetlsERSoPKNS_16IPrintableObjectE @105
    _ZN5flora10LoRaMedium15addTransmissionEPKN4inet13physicallayer6IRadioEPKNS2_13ITransmissionE @106
    _ZN5flora10LoRaMediumC1Ev @107
    _ZN5flora10LoRaMediumC2Ev @108
    _ZN5flora10LoRaMediumD0Ev @109
    _ZN5flora10LoRaMediumD1Ev @110
    _ZN5flora10LoRaMediumD2Ev @111
    _ZN5flora11LoRaGWRadio10initializeEi @112
    _ZN5flora11LoRaGWRadio12endReceptionEPN7omnetpp8cMessageE @113
    _ZN5flora11LoRaGWRadio12handleSignalEPN4inet13physicallayer14WirelessSignalE @114
    _ZN5flora11LoRaGWRadio14abortReceptionEPN7omnetpp8cMessageE @115
    _ZN5flora11LoRaGWRadio14startReceptionEPN7omnetpp8cMessageEN4inet13physicallayer12IRadioSignal10SignalPartE @116
    _ZN5flora11LoRaGWRadio15endTransmissionEPN7omnetpp8cMessageE @117
    _ZN5flora11LoRaGWRadio17continueReceptionEPN7omnetpp8cMessageE @118
    _ZN5flora11LoRaGWRadio17handleSelfMessageEPN7omnetpp8cMessageE @119
    _ZN5flora11LoRaGWRadio17handleUpperPacketEPN4inet6PacketE @120
    _ZN5flora11LoRaGWRadio17startTransmissionEPN4inet6PacketENS1_13physicallayer12IRadioSignal10SignalPartE @121
    _ZN5flora11LoRaGWRadio20continueTransmissionEPN7omnetpp8cMessageE @122
    _ZN5flora11LoRaGWRadio23handleTransmissionTimerEPN7omnetpp8cMessageE @123
    _ZN5flora11LoRaGWRadio6finishEv @124
    _ZN5flora11LoRaGWRadioD0Ev @125
    _ZN5flora11LoRaGWRadioD1Ev @126
    _ZN5flora11LoRaOptions12parsimUnpackEPN7omnetpp11cCommBufferE @127
    _ZN5flora11LoRaOptions12setADRACKReqEb @128
    _ZN5flora11LoRaOptions12setUseHeaderEb @129
    _ZN5flora11LoRaOptions4copyERKS0_ @130
    _ZN5flora11LoRaOptions9setLoRaBWEd @131
    _ZN5flora11LoRaOptions9setLoRaCFEd @132
    _ZN5flora11LoRaOptions9setLoRaCREi @133
    _ZN5flora11LoRaOptions9setLoRaSFEi @134
    _ZN5flora11LoRaOptions9setLoRaTPEd @135
    _ZN5flora11LoRaOptionsC1ERKS0_ @136
    _ZN5flora11LoRaOptionsC1Ev @137
    _ZN5flora11LoRaOptionsC2ERKS0_ @138
    _ZN5flora11LoRaOptionsC2Ev @139
    _ZN5flora11LoRaOptionsD0Ev @140
    _ZN5flora11LoRaOptionsD1Ev @141
    _ZN5flora11LoRaOptionsD2Ev @142
    _ZN5flora11LoRaOptionsaSERKS0_ @143
    _ZN5flora12LoRaMacFrame12parsimUnpackEPN7omnetpp11cCommBufferE @144
    _ZN5flora12LoRaMacFrame16setLoRaUseHeaderEb @145
    _ZN5flora12LoRaMacFrame17setSequenceNumberEi @146
    _ZN5flora12LoRaMacFrame18setReceiverAddressERKN4inet10MacAddressE @147
    _ZN5flora12LoRaMacFrame21setTransmitterAddressERKN4inet10MacAddressE @148
    _ZN5flora12LoRaMacFrame27getReceiverAddressForUpdateEv @149
    _ZN5flora12LoRaMacFrame30getTransmitterAddressForUpdateEv @150
    _ZN5flora12LoRaMacFrame4copyERKS0_ @151
    _ZN5flora12LoRaMacFrame7setRSSIEd @152
    _ZN5flora12LoRaMacFrame7setSNIREd @153
    _ZN5flora12LoRaMacFrame9setLoRaBWEN4inet5units5valueIdNS2_3powINS2_5units1sELin1ELi1EEEEE @154
    _ZN5flora12LoRaMacFrame9setLoRaCFEN4inet5units5valueIdNS2_3powINS2_5units1sELin1ELi1EEEEE @155
    _ZN5flora12LoRaMacFrame9setLoRaCREi @156
    _ZN5flora12LoRaMacFrame9setLoRaSFEi @157
    _ZN5flora12LoRaMacFrame9setLoRaTPEd @158
    _ZN5flora12LoRaMacFrameC1ERKS0_ @159
    _ZN5flora12LoRaMacFrameC1Ev @160
    _ZN5flora12LoRaMacFrameC2ERKS0_ @161
    _ZN5flora12LoRaMacFrameC2Ev @162
    _ZN5flora12LoRaMacFrameD0Ev @163
    _ZN5flora12LoRaMacFrameD1Ev @164
    _ZN5flora12LoRaMacFrameD2Ev @165
    _ZN5flora12LoRaMacFrameaSERKS0_ @166
    _ZN5flora12LoRaReceiver10initializeEi @167
    _ZN5flora12LoRaReceiver6finishEv @168
    _ZN5flora12LoRaReceiver9setLoRaBWEN4inet5units5valueIdNS2_3powINS2_5units1sELin1ELi1EEEEE @169
    _ZN5flora12LoRaReceiver9setLoRaCFEN4inet5units5valueIdNS2_3powINS2_5units1sELin1ELi1EEEEE @170
    _ZN5flora12LoRaReceiver9setLoRaCREd @171
    _ZN5flora12LoRaReceiver9setLoRaSFEi @172
    _ZN5flora12LoRaReceiver9setLoRaTPEN4inet5units5valueIdNS2_7composeINS4_INS4_INS2_5units1mENS4_INS5_2kgENS2_3powINS5_1sELin2ELi1EEEEEEES6_EENS8_IS9_Lin1ELi1EEEEEEE @173
    _ZN5flora12LoRaReceiverC1Ev @174
    _ZN5flora12LoRaReceiverC2Ev @175
    _ZN5flora12LoRaReceiverD0Ev @176
    _ZN5flora12LoRaReceiverD1Ev @177
    _ZN5flora13LoRaAppPacket10setMsgTypeEi @178
    _ZN5flora13LoRaAppPacket10setOptionsERKNS_11LoRaOptionsE @179
    _ZN5flora13LoRaAppPacket12parsimUnpackEPN7omnetpp11cCommBufferE @180
    _ZN5flora13LoRaAppPacket19getOptionsForUpdateEv @181
    _ZN5flora13LoRaAppPacket20setSampleMeasurementEi @182
    _ZN5flora13LoRaAppPacket4copyERKS0_ @183
    _ZN5flora13LoRaAppPacketC1ERKS0_ @184
    _ZN5flora13LoRaAppPacketC1Ev @185
    _ZN5flora13LoRaAppPacketC2ERKS0_ @186
    _ZN5flora13LoRaAppPacketC2Ev @187
    _ZN5flora13LoRaAppPacketD0Ev @188
    _ZN5flora13LoRaAppPacketD1Ev @189
    _ZN5flora13LoRaAppPacketD2Ev @190
    _ZN5flora13LoRaAppPacketaSERKS0_ @191
    _ZN5flora13LoRaReceptionC1EPKN4inet13physicallayer6IRadioEPKNS2_13ITransmissionEN7omnetpp7SimTimeESA_NS1_5CoordESB_NS1_10QuaternionESC_NS1_5units5valueIdNSD_3powINSD_5units1sELin1ELi1EEEEESJ_NSE_IdNSD_7composeINSK_INSK_INSG_1mENSK_INSG_2kgENSF_ISH_Lin2ELi1EEEEEEESL_EESI_EEEEii @192
    _ZN5flora13LoRaReceptionC2EPKN4inet13physicallayer6IRadioEPKNS2_13ITransmissionEN7omnetpp7SimTimeESA_NS1_5CoordESB_NS1_10QuaternionESC_NS1_5units5valueIdNSD_3powINSD_5units1sELin1ELi1EEEEESJ_NSE_IdNSD_7composeINSK_INSK_INSG_1mENSK_INSG_2kgENSF_ISH_Lin2ELi1EEEEEEESL_EESI_EEEEii @193
    _ZN5flora13LoRaReceptionD0Ev @194
    _ZN5flora13LoRaReceptionD1Ev @195
    _ZN5flora13SimpleLoRaApp10initializeEi @196
    _ZN5flora13SimpleLoRaApp13handleMessageEPN7omnetpp8cMessageE @197
    _ZN5flora13SimpleLoRaApp15sendJoinRequestEv @198
    _ZN5flora13SimpleLoRaApp20handleOperationStageEPN4inet18LifecycleOperationEPNS1_13IDoneCallbackE @199
    _ZN5flora13SimpleLoRaApp20increaseSFIfPossibleEv @200
    _ZN5flora13SimpleLoRaApp27handleMessageFromLowerLayerEPN7omnetpp8cMessageE @201
    _ZN5flora13SimpleLoRaApp32generateUniformCircleCoordinatesEddd @202
    _ZN5flora13SimpleLoRaApp5getBWEv @203
    _ZN5flora13SimpleLoRaApp5getCFEv @204
    _ZN5flora13SimpleLoRaApp5getCREv @205
    _ZN5flora13SimpleLoRaApp5getSFEv @206
    _ZN5flora13SimpleLoRaApp5getTPEv @207
    _ZN5flora13SimpleLoRaApp5setBWEN4inet5units5valueIdNS2_3powINS2_5units1sELin1ELi1EEEEE @208
    _ZN5flora13SimpleLoRaApp5setCFEN4inet5units5valueIdNS2_3powINS2_5units1sELin1ELi1EEEEE @209
    _ZN5flora13SimpleLoRaApp5setCREi @210
    _ZN5flora13SimpleLoRaApp5setSFEi @211
    _ZN5flora13SimpleLoRaApp5setTPEi @212
    _ZN5flora13SimpleLoRaApp6finishEv @213
    _ZN5flora13SimpleLoRaAppD0Ev @214
    _ZN5flora13SimpleLoRaAppD2Ev @215
    _ZN5flora14LoRaModulation13constellationE @216 DATA
    _ZN5flora14LoRaModulation15getHeaderEnableEv @217
    _ZN5flora14LoRaModulation15setHeaderEnableERKb @218
    _ZN5flora14LoRaModulationC1EiN4inet5units5valueIdNS2_3powINS2_5units1sELin1ELi1EEEEENS3_IdNS2_7composeINS5_1bES7_EEEEid @219
    _ZN5flora14LoRaModulationC2EiN4inet5units5valueIdNS2_3powINS2_5units1sELin1ELi1EEEEENS3_IdNS2_7composeINS5_1bES7_EEEEid @220
    _ZN5flora14LoRaModulationD0Ev @221
    _ZN5flora15LoRaAnalogModelD0Ev @222
    _ZN5flora15LoRaAnalogModelD1Ev @223
    _ZN5flora15LoRaHataOkumura10initializeEi @224
    _ZN5flora15LoRaHataOkumuraC1Ev @225
    _ZN5flora15LoRaHataOkumuraC2Ev @226
    _ZN5flora15LoRaHataOkumuraD0Ev @227
    _ZN5flora15LoRaMediumCache10initializeEi @228
    _ZN5flora15LoRaMediumCache11removeRadioEPKN4inet13physicallayer6IRadioE @229
    _ZN5flora15LoRaMediumCache12updateLimitsEv @230
    _ZN5flora15LoRaMediumCache8addRadioEPKN4inet13physicallayer6IRadioE @231
    _ZN5flora15LoRaMediumCacheC1Ev @232
    _ZN5flora15LoRaMediumCacheC2Ev @233
    _ZN5flora15LoRaMediumCacheD0Ev @234
    _ZN5flora15LoRaMediumCacheD2Ev @235
    _ZN5flora15LoRaPhyPreamble12parsimUnpackEPN7omnetpp11cCommBufferE @236
    _ZN5flora15LoRaPhyPreamble12setBandwidthEN4inet5units5valueIdNS2_3powINS2_5units1sELin1ELi1EEEEE @237
    _ZN5flora15LoRaPhyPreamble12setUseHeaderEb @238
    _ZN5flora15LoRaPhyPreamble15setSpreadFactorEi @239
    _ZN5flora15LoRaPhyPreamble18setCenterFrequencyEN4inet5units5valueIdNS2_3powINS2_5units1sELin1ELi1EEEEE @240
    _ZN5flora15LoRaPhyPreamble18setCodeRendundanceEi @241
    _ZN5flora15LoRaPhyPreamble18setReceiverAddressERKN4inet10MacAddressE @242
    _ZN5flora15LoRaPhyPreamble27getReceiverAddressForUpdateEv @243
    _ZN5flora15LoRaPhyPreamble4copyERKS0_ @244
    _ZN5flora15LoRaPhyPreamble8setPowerEN4inet5units5valueIdNS2_7composeINS4_INS4_INS2_5units1mENS4_INS5_2kgENS2_3powINS5_1sELin2ELi1EEEEEEES6_EENS8_IS9_Lin1ELi1EEEEEEE @245
    _ZN5flora15LoRaPhyPreambleC1ERKS0_ @246
    _ZN5flora15LoRaPhyPreambleC1Ev @247
    _ZN5flora15LoRaPhyPreambleC2ERKS0_ @248
    _ZN5flora15LoRaPhyPreambleC2Ev @249
    _ZN5flora15LoRaPhyPreambleD0Ev @250
    _ZN5flora15LoRaPhyPreambleD1Ev @251
    _ZN5flora15LoRaPhyPreambleD2Ev @252
    _ZN5flora15LoRaPhyPreambleaSERKS0_ @253
    _ZN5flora15LoRaTransmitter10initializeEi @254
    _ZN5flora15LoRaTransmitterC1Ev @255
    _ZN5flora15LoRaTransmitterC2Ev @256
    _ZN5flora15LoRaTransmitterD0Ev @257
    _ZN5flora15LoRaTransmitterD1Ev @258
    _ZN5flora15PacketForwarder10initializeEi @259
    _ZN5flora15PacketForwarder10sendPacketEv @260
    _ZN5flora15PacketForwarder13handleMessageEPN7omnetpp8cMessageE @261
    _ZN5flora15PacketForwarder13receiveSignalEPN7omnetpp10cComponentEixPNS1_7cObjectE @262
    _ZN5flora15PacketForwarder20processLoraMACPacketEPN4inet6PacketE @263
    _ZN5flora15PacketForwarder6finishEv @264
    _ZN5flora15PacketForwarder8startUDPEv @265
    _ZN5flora15PacketForwarderD0Ev @266
    _ZN5flora15PacketForwarderD2Ev @267
    _ZN5flora16LoRaPathLossOulu10initializeEi @268
    _ZN5flora16LoRaPathLossOuluC1Ev @269
    _ZN5flora16LoRaPathLossOuluC2Ev @270
    _ZN5flora16LoRaPathLossOuluD0Ev @271
    _ZN5flora16LoRaTransmissionC1EPKN4inet13physicallayer6IRadioEPKNS1_6PacketEN7omnetpp7SimTimeESA_SA_SA_SA_NS1_5CoordESB_NS1_10QuaternionESC_NS1_5units5valueIdNSD_7composeINSF_INSF_INSD_5units1mENSF_INSG_2kgENSD_3powINSG_1sELin2ELi1EEEEEEESH_EENSJ_ISK_Lin1ELi1EEEEEEENSE_IdSP_EEiSS_i @272
    _ZN5flora16LoRaTransmissionC2EPKN4inet13physicallayer6IRadioEPKNS1_6PacketEN7omnetpp7SimTimeESA_SA_SA_SA_NS1_5CoordESB_NS1_10QuaternionESC_NS1_5units5valueIdNSD_7composeINSF_INSF_INSD_5units1mENSF_INSG_2kgENSD_3powINSG_1sELin2ELi1EEEEEEESH_EENSJ_ISK_Lin1ELi1EEEEEEENSE_IdSP_EEiSS_i @273
    _ZN5flora16LoRaTransmissionD0Ev @274
    _ZN5flora16LoRaTransmissionD1Ev @275
    _ZN5flora16NetworkServerApp10initializeEi @276
    _ZN5flora16NetworkServerApp11evaluateADREPN4inet6PacketENS1_9L3AddressEdd @277
    _ZN5flora16NetworkServerApp13handleMessageEPN7omnetpp8cMessageE @278
    _ZN5flora16NetworkServerApp13receiveSignalEPN7omnetpp10cComponentEixPNS1_7cObjectE @279
    _ZN5flora16NetworkServerApp16updateKnownNodesEPN4inet6PacketE @280
    _ZN5flora16NetworkServerApp17isPacketProcessedERKN4inet12IntrusivePtrIKNS_12LoRaMacFrameEEE @281
    _ZN5flora16NetworkServerApp20processLoraMACPacketEPN4inet6PacketE @282
    _ZN5flora16NetworkServerApp22processScheduledPacketEPN7omnetpp8cMessageE @283
    _ZN5flora16NetworkServerApp23addPktToProcessingTableEPN4inet6PacketE @284
    _ZN5flora16NetworkServerApp6finishEv @285
    _ZN5flora16NetworkServerApp8startUDPEv @286
    _ZN5flora16NetworkServerAppC2Ev @287
    _ZN5flora16NetworkServerAppD0Ev @288
    _ZN5flora16NetworkServerAppD2Ev @289
    _ZN5flora17LoRaBandListeningC1EPKN4inet13physicallayer6IRadioEN7omnetpp7SimTimeES7_NS1_5CoordES8_NS1_5units5valueIdNS9_3powINS9_5units1sELin1ELi1EEEEESF_i @290
    _ZN5flora17LoRaBandListeningC2EPKN4inet13physicallayer6IRadioEN7omnetpp7SimTimeES7_NS1_5CoordES8_NS1_5units5valueIdNS9_3powINS9_5units1sELin1ELi1EEEEESF_i @291
    _ZN5flora17LoRaBandListeningD0Ev @292
    _ZN5flora17LoRaNeighborCache10initializeEi @293
    _ZN5flora17LoRaNeighborCache11removeRadioEPKN4inet13physicallayer6IRadioE @294
    _ZN5flora17LoRaNeighborCache13handleMessageEPN7omnetpp8cMessageE @295
    _ZN5flora17LoRaNeighborCache18updateNeighborListEPNS0_10RadioEntryE @296
    _ZN5flora17LoRaNeighborCache19updateNeighborListsEv @297
    _ZN5flora17LoRaNeighborCache28removeRadioFromNeighborListsEPKN4inet13physicallayer6IRadioE @298
    _ZN5flora17LoRaNeighborCache8addRadioEPKN4inet13physicallayer6IRadioE @299
    _ZN5flora17LoRaNeighborCacheC1Ev @300
    _ZN5flora17LoRaNeighborCacheC2Ev @301
    _ZN5flora17LoRaNeighborCacheD0Ev @302
    _ZN5flora17LoRaNeighborCacheD1Ev @303
    _ZN5flora17LoRaNeighborCacheD2Ev @304
    _ZN5flora17LoRaTagDescriptorC1Ev @305
    _ZN5flora17LoRaTagDescriptorC2Ev @306
    _ZN5flora17LoRaTagDescriptorD0Ev @307
    _ZN5flora17LoRaTagDescriptorD1Ev @308
    _ZN5flora17LoRaTagDescriptorD2Ev @309
    _ZN5flora18LoRaEnergyConsumer10initializeEi @310
    _ZN5flora18LoRaEnergyConsumer13receiveSignalEPN7omnetpp10cComponentEixPNS1_7cObjectE @311
    _ZN5flora18LoRaEnergyConsumer21readConfigurationFileEv @312
    _ZN5flora18LoRaEnergyConsumer6finishEv @313
    _ZN5flora18LoRaEnergyConsumerC1Ev @314
    _ZN5flora18LoRaEnergyConsumerD0Ev @315
    _ZN5flora18LoRaEnergyConsumerD1Ev @316
    _ZN5flora18LoRaMacControlInfo12parsimUnpackEPN7omnetpp11cCommBufferE @317
    _ZN5flora18LoRaMacControlInfo15getSrcForUpdateEv @318
    _ZN5flora18LoRaMacControlInfo16getDestForUpdateEv @319
    _ZN5flora18LoRaMacControlInfo16setLoRaUseHeaderEb @320
    _ZN5flora18LoRaMacControlInfo4copyERKS0_ @321
    _ZN5flora18LoRaMacControlInfo6setSrcERKN4inet10MacAddressE @322
    _ZN5flora18LoRaMacControlInfo7setDestERKN4inet10MacAddressE @323
    _ZN5flora18LoRaMacControlInfo9setLoRaBWEN4inet5units5valueIdNS2_3powINS2_5units1sELin1ELi1EEEEE @324
    _ZN5flora18LoRaMacControlInfo9setLoRaCFEN4inet5units5valueIdNS2_3powINS2_5units1sELin1ELi1EEEEE @325
    _ZN5flora18LoRaMacControlInfo9setLoRaCREi @326
    _ZN5flora18LoRaMacControlInfo9setLoRaSFEi @327
    _ZN5flora18LoRaMacControlInfo9setLoRaTPEd @328
    _ZN5flora18LoRaMacControlInfoC1ERKS0_ @329
    _ZN5flora18LoRaMacControlInfoC1Ev @330
    _ZN5flora18LoRaMacControlInfoC2ERKS0_ @331
    _ZN5flora18LoRaMacControlInfoC2Ev @332
    _ZN5flora18LoRaMacControlInfoD0Ev @333
    _ZN5flora18LoRaMacControlInfoD1Ev @334
    _ZN5flora18LoRaMacControlInfoD2Ev @335
    _ZN5flora18LoRaMacControlInfoaSERKS0_ @336
    _ZN5flora20MobileGatewayLoRaApp10initializeEi @337
    _ZN5flora20MobileGatewayLoRaApp10sendPacketEv @338
    _ZN5flora20MobileGatewayLoRaApp13handleMessageEPN7omnetpp8cMessageE @339
    _ZN5flora20MobileGatewayLoRaApp13receiveSignalEPN7omnetpp10cComponentEixPNS1_7cObjectE @340
    _ZN5flora20MobileGatewayLoRaApp20processLoraMACPacketEPN4inet6PacketE @341
    _ZN5flora20MobileGatewayLoRaApp6finishEv @342
    _ZN5flora20MobileGatewayLoRaApp8startUDPEv @343
    _ZN5flora20MobileGatewayLoRaAppC2Ev @344
    _ZN5flora20MobileGatewayLoRaAppD0Ev @345
    _ZN5flora20MobileGatewayLoRaAppD2Ev @346
    _ZN5flora21LoRaOptionsDescriptorC1Ev @347
    _ZN5flora21LoRaOptionsDescriptorC2Ev @348
    _ZN5flora21LoRaOptionsDescriptorD0Ev @349
    _ZN5flora21LoRaOptionsDescriptorD1Ev @350
    _ZN5flora21LoRaOptionsDescriptorD2Ev @351
    _ZN5flora22LoRaLogNormalShadowing10initializeEi @352
    _ZN5flora22LoRaLogNormalShadowingC1Ev @353
    _ZN5flora22LoRaLogNormalShadowingC2Ev @354
    _ZN5flora22LoRaLogNormalShadowingD0Ev @355
    _ZN5flora22LoRaMacFrameDescriptorC1Ev @356
    _ZN5flora22LoRaMacFrameDescriptorC2Ev @357
    _ZN5flora22LoRaMacFrameDescriptorD0Ev @358
    _ZN5flora22LoRaMacFrameDescriptorD1Ev @359
    _ZN5flora22LoRaMacFrameDescriptorD2Ev @360
    _ZN5flora23LoRaAppPacketDescriptorC1Ev @361
    _ZN5flora23LoRaAppPacketDescriptorC2Ev @362
    _ZN5flora23LoRaAppPacketDescriptorD0Ev @363
    _ZN5flora23LoRaAppPacketDescriptorD1Ev @364
    _ZN5flora23LoRaAppPacketDescriptorD2Ev @365
    _ZN5flora23LoRaReceptionIndication10setMinRSSIEN4inet5units5valueIdNS2_7composeINS4_INS4_INS2_5units1mENS4_INS5_2kgENS2_3powINS5_1sELin2ELi1EEEEEEES6_EENS8_IS9_Lin1ELi1EEEEEEE @366
    _ZN5flora23LoRaReceptionIndication10setMinSNIREd @367
    _ZN5flora23LoRaReceptionIndication12parsimUnpackEPN7omnetpp11cCommBufferE @368
    _ZN5flora23LoRaReceptionIndication4copyERKS0_ @369
    _ZN5flora23LoRaReceptionIndication9setLoRaBWEN4inet5units5valueIdNS2_3powINS2_5units1sELin1ELi1EEEEE @370
    _ZN5flora23LoRaReceptionIndication9setLoRaCFEN4inet5units5valueIdNS2_3powINS2_5units1sELin1ELi1EEEEE @371
    _ZN5flora23LoRaReceptionIndication9setLoRaCREi @372
    _ZN5flora23LoRaReceptionIndication9setLoRaSFEi @373
    _ZN5flora23LoRaReceptionIndication9setLoRaTPEN4inet5units5valueIdNS2_7composeINS4_INS4_INS2_5units1mENS4_INS5_2kgENS2_3powINS5_1sELin2ELi1EEEEEEES6_EENS8_IS9_Lin1ELi1EEEEEEE @374
    _ZN5flora23LoRaReceptionIndicationC1ERKS0_ @375
    _ZN5flora23LoRaReceptionIndicationC1Ev @376
    _ZN5flora23LoRaReceptionIndicationC2ERKS0_ @377
    _ZN5flora23LoRaReceptionIndicationC2Ev @378
    _ZN5flora23LoRaReceptionIndicationD0Ev @379
    _ZN5flora23LoRaReceptionIndicationD1Ev @380
    _ZN5flora23LoRaReceptionIndicationD2Ev @381
    _ZN5flora23LoRaReceptionIndicationaSERKS0_ @382
    _ZN5flora23LoRaTransmissionRequest10setBitrateEN4inet5units5valueIdNS2_7composeINS2_5units1bENS2_3powINS5_1sELin1ELi1EEEEEEE @383
    _ZN5flora23LoRaTransmissionRequest12parsimUnpackEPN7omnetpp11cCommBufferE @384
    _ZN5flora23LoRaTransmissionRequest12setBandwidthEN4inet5units5valueIdNS2_3powINS2_5units1sELin1ELi1EEEEE @385
    _ZN5flora23LoRaTransmissionRequest19setCarrierFrequencyEN4inet5units5valueIdNS2_3powINS2_5units1sELin1ELi1EEEEE @386
    _ZN5flora23LoRaTransmissionRequest4copyERKS0_ @387
    _ZN5flora23LoRaTransmissionRequest8setPowerEN4inet5units5valueIdNS2_7composeINS4_INS4_INS2_5units1mENS4_INS5_2kgENS2_3powINS5_1sELin2ELi1EEEEEEES6_EENS8_IS9_Lin1ELi1EEEEEEE @388
    _ZN5flora23LoRaTransmissionRequestC1ERKS0_ @389
    _ZN5flora23LoRaTransmissionRequestC1Ev @390
    _ZN5flora23LoRaTransmissionRequestC2ERKS0_ @391
    _ZN5flora23LoRaTransmissionRequestC2Ev @392
    _ZN5flora23LoRaTransmissionRequestD0Ev @393
    _ZN5flora23LoRaTransmissionRequestD1Ev @394
    _ZN5flora23LoRaTransmissionRequestD2Ev @395
    _ZN5flora23LoRaTransmissionRequestaSERKS0_ @396
    _ZN5flora25LoRaConfigureRadioCommand10setBitrateEN4inet5units5valueIdNS2_7composeINS2_5units1bENS2_3powINS5_1sELin1ELi1EEEEEEE @397
    _ZN5flora25LoRaConfigureRadioCommand12parsimUnpackEPN7omnetpp11cCommBufferE @398
    _ZN5flora25LoRaConfigureRadioCommand12setBandwidthEN4inet5units5valueIdNS2_3powINS2_5units1sELin1ELi1EEEEE @399
    _ZN5flora25LoRaConfigureRadioCommand12setRadioModeEi @400
    _ZN5flora25LoRaConfigureRadioCommand19setCarrierFrequencyEN4inet5units5valueIdNS2_3powINS2_5units1sELin1ELi1EEEEE @401
    _ZN5flora25LoRaConfigureRadioCommand4copyERKS0_ @402
    _ZN5flora25LoRaConfigureRadioCommand8setPowerEN4inet5units5valueIdNS2_7composeINS4_INS4_INS2_5units1mENS4_INS5_2kgENS2_3powINS5_1sELin2ELi1EEEEEEES6_EENS8_IS9_Lin1ELi1EEEEEEE @403
    _ZN5flora25LoRaConfigureRadioCommandC1ERKS0_ @404
    _ZN5flora25LoRaConfigureRadioCommandC1Ev @405
    _ZN5flora25LoRaConfigureRadioCommandC2ERKS0_ @406
    _ZN5flora25LoRaConfigureRadioCommandC2Ev @407
    _ZN5flora25LoRaConfigureRadioCommandD0Ev @408
    _ZN5flora25LoRaConfigureRadioCommandD1Ev @409
    _ZN5flora25LoRaConfigureRadioCommandD2Ev @410
    _ZN5flora25LoRaConfigureRadioCommandaSERKS0_ @411
    _ZN5flora25LoRaPhyPreambleDescriptorC1Ev @412
    _ZN5flora25LoRaPhyPreambleDescriptorC2Ev @413
    _ZN5flora25LoRaPhyPreambleDescriptorD0Ev @414
    _ZN5flora25LoRaPhyPreambleDescriptorD1Ev @415
    _ZN5flora25LoRaPhyPreambleDescriptorD2Ev @416
    _ZN5flora28LoRaMacControlInfoDescriptorC1Ev @417
    _ZN5flora28LoRaMacControlInfoDescriptorC2Ev @418
    _ZN5flora28LoRaMacControlInfoDescriptorD0Ev @419
    _ZN5flora28LoRaMacControlInfoDescriptorD1Ev @420
    _ZN5flora28LoRaMacControlInfoDescriptorD2Ev @421
    _ZN5flora33LoRaReceptionIndicationDescriptorC1Ev @422
    _ZN5flora33LoRaReceptionIndicationDescriptorC2Ev @423
    _ZN5flora33LoRaReceptionIndicationDescriptorD0Ev @424
    _ZN5flora33LoRaReceptionIndicationDescriptorD1Ev @425
    _ZN5flora33LoRaReceptionIndicationDescriptorD2Ev @426
    _ZN5flora33LoRaTransmissionRequestDescriptorC1Ev @427
    _ZN5flora33LoRaTransmissionRequestDescriptorC2Ev @428
    _ZN5flora33LoRaTransmissionRequestDescriptorD0Ev @429
    _ZN5flora33LoRaTransmissionRequestDescriptorD1Ev @430
    _ZN5flora33LoRaTransmissionRequestDescriptorD2Ev @431
    _ZN5flora35LoRaConfigureRadioCommandDescriptorC1Ev @432
    _ZN5flora35LoRaConfigureRadioCommandDescriptorC2Ev @433
    _ZN5flora35LoRaConfigureRadioCommandDescriptorD0Ev @434
    _ZN5flora35LoRaConfigureRadioCommandDescriptorD1Ev @435
    _ZN5flora35LoRaConfigureRadioCommandDescriptorD2Ev @436
    _ZN5flora7LoRaMac10getAddressEv @437
    _ZN5flora7LoRaMac10initializeEi @438
    _ZN5flora7LoRaMac11decapsulateEPN4inet6PacketE @439
    _ZN5flora7LoRaMac11encapsulateEPN4inet6PacketE @440
    _ZN5flora7LoRaMac11getProviderEPN7omnetpp5cGateE @441
    _ZN5flora7LoRaMac11isBroadcastERKN4inet12IntrusivePtrIKNS_12LoRaMacFrameEEE @442
    _ZN5flora7LoRaMac11isReceivingEv @443
    _ZN5flora7LoRaMac12sendAckFrameEv @444
    _ZN5flora7LoRaMac13handleWithFsmEPN7omnetpp8cMessageE @445
    _ZN5flora7LoRaMac13receiveSignalEPN7omnetpp10cComponentEixPNS1_7cObjectE @446
    _ZN5flora7LoRaMac13sendDataFrameEPN4inet6PacketE @447
    _ZN5flora7LoRaMac14turnOnReceiverEv @448
    _ZN5flora7LoRaMac15turnOffReceiverEv @449
    _ZN5flora7LoRaMac17handleLowerPacketEPN4inet6PacketE @450
    _ZN5flora7LoRaMac17handleSelfMessageEPN7omnetpp8cMessageE @451
    _ZN5flora7LoRaMac17handleUpperPacketEPN4inet6PacketE @452
    _ZN5flora7LoRaMac18processUpperPacketEv @453
    _ZN5flora7LoRaMac19handleStopOperationEPN4inet18LifecycleOperationE @454
    _ZN5flora7LoRaMac20handleCrashOperationEPN4inet18LifecycleOperationE @455
    _ZN5flora7LoRaMac20handleStartOperationEPN4inet18LifecycleOperationE @456
    _ZN5flora7LoRaMac22getCurrentTransmissionEv @457
    _ZN5flora7LoRaMac25configureNetworkInterfaceEv @458
    _ZN5flora7LoRaMac25finishCurrentTransmissionEv @459
    _ZN5flora7LoRaMac25handlePullPacketProcessedEPN4inet6PacketEPN7omnetpp5cGateEb @460
    _ZN5flora7LoRaMac26handleCanPullPacketChangedEPN7omnetpp5cGateE @461
    _ZN5flora7LoRaMac5isAckERKN4inet12IntrusivePtrIKNS_12LoRaMacFrameEEE @462
    _ZN5flora7LoRaMac6finishEv @463
    _ZN5flora7LoRaMac7isForUsERKN4inet12IntrusivePtrIKNS_12LoRaMacFrameEEE @464
    _ZN5flora7LoRaMacC2Ev @465
    _ZN5flora7LoRaMacD0Ev @466
    _ZN5flora7LoRaMacD1Ev @467
    _ZN5flora7LoRaMacD2Ev @468
    _ZN5flora7LoRaTag12parsimUnpackEPN7omnetpp11cCommBufferE @469
    _ZN5flora7LoRaTag12setBandwidthEN4inet5units5valueIdNS2_3powINS2_5units1sELin1ELi1EEEEE @470
    _ZN5flora7LoRaTag12setUseHeaderEb @471
    _ZN5flora7LoRaTag15setSpreadFactorEi @472
    _ZN5flora7LoRaTag18setCenterFrequencyEN4inet5units5valueIdNS2_3powINS2_5units1sELin1ELi1EEEEE @473
    _ZN5flora7LoRaTag18setCodeRendundanceEi @474
    _ZN5flora7LoRaTag4copyERKS0_ @475
    _ZN5flora7LoRaTag8setPowerEN4inet5units5valueIdNS2_7composeINS4_INS4_INS2_5units1mENS4_INS5_2kgENS2_3powINS5_1sELin2ELi1EEEEEEES6_EENS8_IS9_Lin1ELi1EEEEEEE @476
    _ZN5flora7LoRaTagC1ERKS0_ @477
    _ZN5flora7LoRaTagC1Ev @478
    _ZN5flora7LoRaTagC2ERKS0_ @479
    _ZN5flora7LoRaTagC2Ev @480
    _ZN5flora7LoRaTagD0Ev @481
    _ZN5flora7LoRaTagD1Ev @482
    _ZN5flora7LoRaTagD2Ev @483
    _ZN5flora7LoRaTagaSERKS0_ @484
    _ZN5flora9LoRaGWMac10getAddressEv @485
    _ZN5flora9LoRaGWMac10initializeEi @486
    _ZN5flora9LoRaGWMac13receiveSignalEPN7omnetpp10cComponentEixPNS1_7cObjectE @487
    _ZN5flora9LoRaGWMac14sendPacketBackEPN4inet6PacketE @488
    _ZN5flora9LoRaGWMac17handleSelfMessageEPN7omnetpp8cMessageE @489
    _ZN5flora9LoRaGWMac18handleLowerMessageEPN7omnetpp8cMessageE @490
    _ZN5flora9LoRaGWMac18handleUpperMessageEPN7omnetpp8cMessageE @491
    _ZN5flora9LoRaGWMac22createFakeLoRaMacFrameEv @492
    _ZN5flora9LoRaGWMac25configureNetworkInterfaceEv @493
    _ZN5flora9LoRaGWMac6finishEv @494
    _ZN5flora9LoRaGWMacD0Ev @495
    _ZN5flora9LoRaRadio10initializeEi @496
    _ZN5flora9LoRaRadio12endReceptionEPN7omnetpp8cMessageE @497
    _ZN5flora9LoRaRadio12handleSignalEPN4inet13physicallayer14WirelessSignalE @498
    _ZN5flora9LoRaRadio13droppedPacketE @499 DATA
    _ZN5flora9LoRaRadio13minSNIRSignalE @500 DATA
    _ZN5flora9LoRaRadio14abortReceptionEPN7omnetpp8cMessageE @501
    _ZN5flora9LoRaRadio14startReceptionEPN7omnetpp8cMessageEN4inet13physicallayer12IRadioSignal10SignalPartE @502
    _ZN5flora9LoRaRadio15endTransmissionEv @503
    _ZN5flora9LoRaRadio16captureReceptionEPN7omnetpp8cMessageE @504
    _ZN5flora9LoRaRadio17abortTransmissionEv @505
    _ZN5flora9LoRaRadio17continueReceptionEPN7omnetpp8cMessageE @506
    _ZN5flora9LoRaRadio17handleSelfMessageEPN7omnetpp8cMessageE @507
    _ZN5flora9LoRaRadio17handleUpperPacketEPN4inet6PacketE @508
    _ZN5flora9LoRaRadio17startTransmissionEPN4inet6PacketENS1_13physicallayer12IRadioSignal10SignalPartE @509
    _ZN5flora9LoRaRadio18bitErrorRateSignalE @510 DATA
    _ZN5flora9LoRaRadio18handleLowerCommandEPN7omnetpp8cMessageE @511
    _ZN5flora9LoRaRadio18handleUpperCommandEPN7omnetpp8cMessageE @512
    _ZN5flora9LoRaRadio19handleMessageWhenUpEPN7omnetpp8cMessageE @513
    _ZN5flora9LoRaRadio20continueTransmissionEv @514
    _ZN5flora9LoRaRadio20handleReceptionTimerEPN7omnetpp8cMessageE @515
    _ZN5flora9LoRaRadio21handleMessageWhenDownEPN7omnetpp8cMessageE @516
    _ZN5flora9LoRaRadio21packetErrorRateSignalE @517 DATA
    _ZN5flora9LoRaRadio21symbolErrorRateSignalE @518 DATA
    _ZN5flora9LoRaRadio23handleTransmissionTimerEPN7omnetpp8cMessageE @519
    _ZN5flora9LoRaRadio6sendUpEPN4inet6PacketE @520
    _ZN5flora9LoRaRadioD0Ev @521
    _ZN5flora9LoRaRadioD1Ev @522
    _ZN5flora9LoRaRadioD2Ev @523
    _ZN7omnetpp10cComponent10initializeEi @524
    _ZN7omnetpp10cComponent12recordScalarEPKcNS_7SimTimeES2_ @525
    _ZN7omnetpp10cComponent4emitEiPKNS_7cObjectEPS1_ @526
    _ZN7omnetpp10cComponent4emitEicPNS_7cObjectE @527
    _ZN7omnetpp10cComponent4emitEiePNS_7cObjectE @528
    _ZN7omnetpp10cComponent4emitEifPNS_7cObjectE @529
    _ZN7omnetpp10cComponent4emitEihPNS_7cObjectE @530
    _ZN7omnetpp10cComponent4emitEiiPNS_7cObjectE @531
    _ZN7omnetpp10cComponent4emitEijPNS_7cObjectE @532
    _ZN7omnetpp10cComponent4emitEilPNS_7cObjectE @533
    _ZN7omnetpp10cComponent4emitEimPNS_7cObjectE @534
    _ZN7omnetpp10cComponent4emitEisPNS_7cObjectE @535
    _ZN7omnetpp10cComponent4emitEitPNS_7cObjectE @536
    _ZN7omnetpp10cComponent4emitEixPNS_7cObjectE @537
    _ZN7omnetpp10cComponent4emitEiyPNS_7cObjectE @538
    _ZN7omnetpp10cComponent9setRNGMapEsPi @539
    _ZN7omnetpp10cExceptionD2Ev @540
    _ZN7omnetpp10cIListener12subscribedToEPNS_10cComponentEi @541
    _ZN7omnetpp10cIListener16unsubscribedFromEPNS_10cComponentEi @542
    _ZN7omnetpp10cIListener6finishEPNS_10cComponentEi @543
    _ZN7omnetpp10cWatchBase6assignEPKc @544
    _ZN7omnetpp10fromAnyPtrIN5flora12LoRaMacFrameEEEPT_NS_7any_ptrE @545
    _ZN7omnetpp10fromAnyPtrIN5flora13LoRaAppPacketEEEPT_NS_7any_ptrE @546
    _ZN7omnetpp10fromAnyPtrIN5flora15LoRaPhyPreambleEEEPT_NS_7any_ptrE @547
    _ZN7omnetpp10fromAnyPtrIN5flora7LoRaTagEEEPT_NS_7any_ptrE @548
    _ZN7omnetpp12cNamedObject14getNamePoolingEv @549
    _ZN7omnetpp13cSimpleModule10sendDirectEPNS_8cMessageENS_7SimTimeES3_PNS_5cGateE @550
    _ZN7omnetpp13cSimpleModule10sendDirectEPNS_8cMessageENS_7SimTimeES3_PNS_7cModuleEPKci @551
    _ZN7omnetpp13cSimpleModule10sendDirectEPNS_8cMessageENS_7SimTimeES3_PNS_7cModuleEi @552
    _ZN7omnetpp13cSimpleModule10sendDirectEPNS_8cMessageEPNS_5cGateE @553
    _ZN7omnetpp13cSimpleModule10sendDirectEPNS_8cMessageEPNS_7cModuleEPKci @554
    _ZN7omnetpp13cSimpleModule10sendDirectEPNS_8cMessageEPNS_7cModuleEi @555
    _ZN7omnetpp13cSimpleModule10sendDirectEPNS_8cMessageERKNS_11SendOptionsEPNS_7cModuleEPKci @556
    _ZN7omnetpp13cSimpleModule10sendDirectEPNS_8cMessageERKNS_11SendOptionsEPNS_7cModuleEi @557
    _ZN7omnetpp13cSimpleModule11sendDelayedEPNS_8cMessageENS_7SimTimeEPKci @558
    _ZN7omnetpp13cSimpleModule11sendDelayedEPNS_8cMessageENS_7SimTimeEPNS_5cGateE @559
    _ZN7omnetpp13cSimpleModule11sendDelayedEPNS_8cMessageENS_7SimTimeEi @560
    _ZN7omnetpp13cSimpleModule4sendEPNS_8cMessageEPKci @561
    _ZN7omnetpp13cSimpleModule4sendEPNS_8cMessageEPNS_5cGateE @562
    _ZN7omnetpp13cSimpleModule4sendEPNS_8cMessageERKNS_11SendOptionsEPKci @563
    _ZN7omnetpp13cSimpleModule4sendEPNS_8cMessageERKNS_11SendOptionsEi @564
    _ZN7omnetpp13cSimpleModule4sendEPNS_8cMessageEi @565
    _ZN7omnetpp14check_and_castIPKN4inet13physicallayer11ScalarNoiseEKNS2_6INoiseEEET_PT0_ @566
    _ZN7omnetpp14check_and_castIPKN4inet13physicallayer13IScalarSignalEKNS2_18ISignalAnalogModelEEET_PT0_ @567
    _ZN7omnetpp14check_and_castIPKN4inet13physicallayer13IScalarSignalEKNS2_24ITransmissionAnalogModelEEET_PT0_ @568
    _ZN7omnetpp14check_and_castIPKN4inet13physicallayer17INarrowbandSignalEKNS2_18ISignalAnalogModelEEET_PT0_ @569
    _ZN7omnetpp14check_and_castIPKN4inet13physicallayer17INarrowbandSignalEKNS2_24ITransmissionAnalogModelEEET_PT0_ @570
    _ZN7omnetpp14check_and_castIPKN5flora13LoRaReceptionEKN4inet13physicallayer10IReceptionEEET_PT0_ @571
    _ZN7omnetpp14check_and_castIPKN5flora13LoRaReceptionEKN4inet13physicallayer18ISignalAnalogModelEEET_PT0_ @572
    _ZN7omnetpp14check_and_castIPKN5flora16LoRaTransmissionEKN4inet13physicallayer13ITransmissionEEET_PT0_ @573
    _ZN7omnetpp14check_and_castIPKN5flora17LoRaBandListeningEKN4inet13physicallayer10IListeningEEET_PT0_ @574
    _ZN7omnetpp14check_and_castIPKNS_7cModuleEKN4inet13physicallayer6IRadioEEET_PT0_ @575
    _ZN7omnetpp14check_and_castIPKNS_7cObjectEKN4inet13physicallayer10IReceptionEEET_PT0_ @576
    _ZN7omnetpp14check_and_castIPKNS_7cObjectEKN4inet13physicallayer13ITransmissionEEET_PT0_ @577
    _ZN7omnetpp14check_and_castIPN4inet13physicallayer11RadioMediumENS2_12IRadioMediumEEET_PT0_ @578
    _ZN7omnetpp14check_and_castIPN4inet13physicallayer21ConfigureRadioCommandENS_7cObjectEEET_PT0_ @579
    _ZN7omnetpp14check_and_castIPN4inet13physicallayer6IRadioENS_7cModuleEEET_PT0_ @580
    _ZN7omnetpp14check_and_castIPN4inet15IInterfaceTableENS_7cModuleEEET_PT0_ @581
    _ZN7omnetpp14check_and_castIPN4inet18StationaryMobilityENS_7cModuleEEET_PT0_ @582
    _ZN7omnetpp14check_and_castIPN4inet6PacketENS_7cObjectEEET_PT0_ @583
    _ZN7omnetpp14check_and_castIPN4inet6PacketENS_8cMessageEEET_PT0_ @584
    _ZN7omnetpp14check_and_castIPN5flora10LoRaMediumEN4inet13physicallayer12IRadioMediumEEET_PT0_ @585
    _ZN7omnetpp14check_and_castIPN5flora10LoRaMediumENS_7cModuleEEET_PT0_ @586
    _ZN7omnetpp14check_and_castIPN5flora12LoRaMacFrameENS_7cObjectEEET_PT0_ @587
    _ZN7omnetpp14check_and_castIPN5flora13LoRaAppPacketENS_7cObjectEEET_PT0_ @588
    _ZN7omnetpp14check_and_castIPN5flora15LoRaPhyPreambleENS_7cObjectEEET_PT0_ @589
    _ZN7omnetpp14check_and_castIPN5flora22LoRaLogNormalShadowingENS_7cModuleEEET_PT0_ @590
    _ZN7omnetpp14check_and_castIPN5flora7LoRaMacENS_7cModuleEEET_PT0_ @591
    _ZN7omnetpp14check_and_castIPN5flora7LoRaTagENS_7cObjectEEET_PT0_ @592
    _ZN7omnetpp14check_and_castIPN5flora9LoRaGWMacENS_7cModuleEEET_PT0_ @593
    _ZN7omnetpp14check_and_castIPN5flora9LoRaRadioEN4inet13physicallayer6IRadioEEET_PT0_ @594
    _ZN7omnetpp14check_and_castIPN5flora9LoRaRadioENS_7cModuleEEET_PT0_ @595
    _ZN7omnetpp16checked_int_castIixEET_T0_PKNS_7cObjectEPKc @596
    _ZN7omnetpp16checked_int_castIixEET_T0_PKc @597
    _ZN7omnetpp17opp_component_ptrIN4inet13physicallayer6IRadioEE11registerPtrEv @598
    _ZN7omnetpp17opp_component_ptrIN4inet5power15IEpEnergySourceEE11registerPtrEv @599
    _ZN7omnetpp17opp_component_ptrIN4inet8queueing12IPacketQueueEE11registerPtrEv @600
    _ZN7omnetpp21cGenericReadonlyWatchIN4inet5CoordEED0Ev @601
    _ZN7omnetpp21cGenericReadonlyWatchIN4inet5units5valueIdNS2_5units1mEEEED0Ev @602
    _ZN7omnetpp21cGenericReadonlyWatchIN4inet5units5valueIdNS2_7composeINS2_5units1mENS2_3powINS5_1sELin1ELi1EEEEEEEED0Ev @603
    _ZN7omnetpp21cGenericReadonlyWatchIN4inet5units5valueIdNS2_7composeINS4_INS4_INS2_5units1mENS4_INS5_2kgENS2_3powINS5_1sELin2ELi1EEEEEEES6_EENS8_IS9_Lin1ELi1EEEEEEEED0Ev @604
    _ZN7omnetpp21cGenericReadonlyWatchINS_4cFSMEED0Ev @605
    _ZN7omnetpp21cGenericReadonlyWatchINS_7SimTimeEED0Ev @606
    _ZN7omnetpp22check_and_cast_failureIPKN4inet13physicallayer11ScalarNoiseEKNS2_6INoiseEEEvPT0_T_ @607
    _ZN7omnetpp22check_and_cast_failureIPKN4inet13physicallayer13IScalarSignalEKNS2_18ISignalAnalogModelEEEvPT0_T_ @608
    _ZN7omnetpp22check_and_cast_failureIPKN4inet13physicallayer13IScalarSignalEKNS2_24ITransmissionAnalogModelEEEvPT0_T_ @609
    _ZN7omnetpp22check_and_cast_failureIPKN4inet13physicallayer17INarrowbandSignalEKNS2_18ISignalAnalogModelEEEvPT0_T_ @610
    _ZN7omnetpp22check_and_cast_failureIPKN4inet13physicallayer17INarrowbandSignalEKNS2_24ITransmissionAnalogModelEEEvPT0_T_ @611
    _ZN7omnetpp22check_and_cast_failureIPKN5flora13LoRaReceptionEKN4inet13physicallayer10IReceptionEEEvPT0_T_ @612
    _ZN7omnetpp22check_and_cast_failureIPKN5flora13LoRaReceptionEKN4inet13physicallayer18ISignalAnalogModelEEEvPT0_T_ @613
    _ZN7omnetpp22check_and_cast_failureIPKN5flora16LoRaTransmissionEKN4inet13physicallayer13ITransmissionEEEvPT0_T_ @614
    _ZN7omnetpp22check_and_cast_failureIPKN5flora17LoRaBandListeningEKN4inet13physicallayer10IListeningEEEvPT0_T_ @615
    _ZN7omnetpp22check_and_cast_failureIPKNS_7cModuleEKN4inet13physicallayer6IRadioEEEvPT0_T_ @616
    _ZN7omnetpp22check_and_cast_failureIPKNS_7cObjectEKN4inet13physicallayer10IReceptionEEEvPT0_T_ @617
    _ZN7omnetpp22check_and_cast_failureIPKNS_7cObjectEKN4inet13physicallayer13ITransmissionEEEvPT0_T_ @618
    _ZN7omnetpp22check_and_cast_failureIPN4inet13physicallayer11RadioMediumENS2_12IRadioMediumEEEvPT0_T_ @619
    _ZN7omnetpp22check_and_cast_failureIPN4inet13physicallayer14WirelessSignalENS_8cMessageEEEvPT0_T_ @620
    _ZN7omnetpp22check_and_cast_failureIPN4inet13physicallayer21ConfigureRadioCommandENS_7cObjectEEEvPT0_T_ @621
    _ZN7omnetpp22check_and_cast_failureIPN4inet13physicallayer6IRadioENS_7cModuleEEEvPT0_T_ @622
    _ZN7omnetpp22check_and_cast_failureIPN4inet15IInterfaceTableENS_7cModuleEEEvPT0_T_ @623
    _ZN7omnetpp22check_and_cast_failureIPN4inet18StationaryMobilityENS_7cModuleEEEvPT0_T_ @624
    _ZN7omnetpp22check_and_cast_failureIPN4inet6PacketENS_7cObjectEEEvPT0_T_ @625
    _ZN7omnetpp22check_and_cast_failureIPN4inet6PacketENS_8cMessageEEEvPT0_T_ @626
    _ZN7omnetpp22check_and_cast_failureIPN5flora10LoRaMediumEN4inet13physicallayer12IRadioMediumEEEvPT0_T_ @627
    _ZN7omnetpp22check_and_cast_failureIPN5flora10LoRaMediumENS_7cModuleEEEvPT0_T_ @628
    _ZN7omnetpp22check_and_cast_failureIPN5flora12LoRaMacFrameENS_7cObjectEEEvPT0_T_ @629
    _ZN7omnetpp22check_and_cast_failureIPN5flora13LoRaAppPacketENS_7cObjectEEEvPT0_T_ @630
    _ZN7omnetpp22check_and_cast_failureIPN5flora15LoRaPhyPreambleENS_7cObjectEEEvPT0_T_ @631
    _ZN7omnetpp22check_and_cast_failureIPN5flora22LoRaLogNormalShadowingENS_7cModuleEEEvPT0_T_ @632
    _ZN7omnetpp22check_and_cast_failureIPN5flora7LoRaMacENS_7cModuleEEEvPT0_T_ @633
    _ZN7omnetpp22check_and_cast_failureIPN5flora7LoRaTagENS_7cObjectEEEvPT0_T_ @634
    _ZN7omnetpp22check_and_cast_failureIPN5flora9LoRaGWMacENS_7cModuleEEEvPT0_T_ @635
    _ZN7omnetpp22check_and_cast_failureIPN5flora9LoRaRadioEN4inet13physicallayer6IRadioEEEvPT0_T_ @636
    _ZN7omnetpp22check_and_cast_failureIPN5flora9LoRaRadioENS_7cModuleEEEvPT0_T_ @637
    _ZN7omnetpp23cGenericAssignableWatchIdE6assignEPKc @638
    _ZN7omnetpp23cGenericAssignableWatchIdED0Ev @639
    _ZN7omnetpp23cGenericAssignableWatchIiE6assignEPKc @640
    _ZN7omnetpp23cGenericAssignableWatchIiED0Ev @641
    _ZN7omnetpp23cGenericAssignableWatchIlE6assignEPKc @642
    _ZN7omnetpp23cGenericAssignableWatchIlED0Ev @643
    _ZN7omnetpp23cNoncopyableOwnedObject12parsimUnpackEPNS_11cCommBufferE @644
    _ZN7omnetpp23cNoncopyableOwnedObjectD2Ev @645
    _ZN7omnetpp7cModule27setBuiltinAnimationsAllowedEb @646
    _ZNK4inet11FieldsChunk12getChunkTypeEv @647
    _ZNK4inet11FieldsChunk14getChunkLengthEv @648
    _ZNK4inet12IntervalTree8Interval5printEv @649
    _ZNK4inet13physicallayer11RadioMedium11getMaterialEv @650
    _ZNK4inet13physicallayer11RadioMedium11getPathLossEv @651
    _ZNK4inet13physicallayer11RadioMedium13numInitStagesEv @652
    _ZNK4inet13physicallayer11RadioMedium14getAnalogModelEv @653
    _ZNK4inet13physicallayer11RadioMedium14getPropagationEv @654
    _ZNK4inet13physicallayer11RadioMedium15getObstacleLossEv @655
    _ZNK4inet13physicallayer11RadioMedium16getNeighborCacheEv @656
    _ZNK4inet13physicallayer11RadioMedium18getBackgroundNoiseEv @657
    _ZNK4inet13physicallayer11RadioMedium19getMediumLimitCacheEv @658
    _ZNK4inet13physicallayer11RadioMedium21getCommunicationCacheEv @659
    _ZNK4inet13physicallayer11RadioMedium22getPhysicalEnvironmentEv @660
    _ZNK4inet13physicallayer12ReceiverBase13numInitStagesEv @661
    _ZNK4inet13physicallayer12ReceiverBase20getMinReceptionPowerEv @662
    _ZNK4inet13physicallayer12ReceiverBase23getMinInterferencePowerEv @663
    _ZNK4inet13physicallayer13BandListening12getBandwidthEv @664
    _ZNK4inet13physicallayer13BandListening18getCenterFrequencyEv @665
    _ZNK4inet13physicallayer13ListeningBase10getEndTimeEv @666
    _ZNK4inet13physicallayer13ListeningBase11getReceiverEv @667
    _ZNK4inet13physicallayer13ListeningBase12getStartTimeEv @668
    _ZNK4inet13physicallayer13ListeningBase14getEndPositionEv @669
    _ZNK4inet13physicallayer13ListeningBase16getStartPositionEv @670
    _ZNK4inet13physicallayer13ReceptionBase10getEndTimeEv @671
    _ZNK4inet13physicallayer13ReceptionBase11getDurationEv @672
    _ZNK4inet13physicallayer13ReceptionBase11getReceiverEv @673
    _ZNK4inet13physicallayer13ReceptionBase12getStartTimeEv @674
    _ZNK4inet13physicallayer13ReceptionBase14getAnalogModelEv @675
    _ZNK4inet13physicallayer13ReceptionBase14getDataEndTimeEv @676
    _ZNK4inet13physicallayer13ReceptionBase14getEndPositionEv @677
    _ZNK4inet13physicallayer13ReceptionBase15getDataDurationEv @678
    _ZNK4inet13physicallayer13ReceptionBase15getTransmissionEv @679
    _ZNK4inet13physicallayer13ReceptionBase16getDataStartTimeEv @680
    _ZNK4inet13physicallayer13ReceptionBase16getHeaderEndTimeEv @681
    _ZNK4inet13physicallayer13ReceptionBase16getStartPositionEv @682
    _ZNK4inet13physicallayer13ReceptionBase17getEndOrientationEv @683
    _ZNK4inet13physicallayer13ReceptionBase17getHeaderDurationEv @684
    _ZNK4inet13physicallayer13ReceptionBase18getHeaderStartTimeEv @685
    _ZNK4inet13physicallayer13ReceptionBase18getPreambleEndTimeEv @686
    _ZNK4inet13physicallayer13ReceptionBase19getPreambleDurationEv @687
    _ZNK4inet13physicallayer13ReceptionBase19getStartOrientationEv @688
    _ZNK4inet13physicallayer13ReceptionBase20getPreambleStartTimeEv @689
    _ZNK4inet13physicallayer15ScalarReception15computeMinPowerEN7omnetpp7SimTimeES3_ @690
    _ZNK4inet13physicallayer15ScalarReception8getPowerEv @691
    _ZNK4inet13physicallayer15TransmitterBase11getMaxPowerEv @692
    _ZNK4inet13physicallayer15TransmitterBase13numInitStagesEv @693
    _ZNK4inet13physicallayer15TransmitterBase23getMaxInterferenceRangeEv @694
    _ZNK4inet13physicallayer15TransmitterBase24getMaxCommunicationRangeEv @695
    _ZNK4inet13physicallayer16FlatReceiverBase13getErrorModelEv @696
    _ZNK4inet13physicallayer16FlatReceiverBase14getSensitivityEv @697
    _ZNK4inet13physicallayer16FlatReceiverBase18getEnergyDetectionEv @698
    _ZNK4inet13physicallayer16FlatReceiverBase20getMinReceptionPowerEv @699
    _ZNK4inet13physicallayer16SnirReceiverBase16getSNIRThresholdEv @700
    _ZNK4inet13physicallayer16TransmissionBase10getEndTimeEv @701
    _ZNK4inet13physicallayer16TransmissionBase11getDurationEv @702
    _ZNK4inet13physicallayer16TransmissionBase12getStartTimeEv @703
    _ZNK4inet13physicallayer16TransmissionBase14getAnalogModelEv @704
    _ZNK4inet13physicallayer16TransmissionBase14getDataEndTimeEv @705
    _ZNK4inet13physicallayer16TransmissionBase14getEndPositionEv @706
    _ZNK4inet13physicallayer16TransmissionBase15getDataDurationEv @707
    _ZNK4inet13physicallayer16TransmissionBase16getDataStartTimeEv @708
    _ZNK4inet13physicallayer16TransmissionBase16getHeaderEndTimeEv @709
    _ZNK4inet13physicallayer16TransmissionBase16getStartPositionEv @710
    _ZNK4inet13physicallayer16TransmissionBase16getTransmitterIdEv @711
    _ZNK4inet13physicallayer16TransmissionBase17getEndOrientationEv @712
    _ZNK4inet13physicallayer16TransmissionBase17getHeaderDurationEv @713
    _ZNK4inet13physicallayer16TransmissionBase18getHeaderStartTimeEv @714
    _ZNK4inet13physicallayer16TransmissionBase18getPreambleEndTimeEv @715
    _ZNK4inet13physicallayer16TransmissionBase19getPreambleDurationEv @716
    _ZNK4inet13physicallayer16TransmissionBase19getStartOrientationEv @717
    _ZNK4inet13physicallayer16TransmissionBase20getPreambleStartTimeEv @718
    _ZNK4inet13physicallayer16TransmissionBase25getTransmitterAntennaGainEv @719
    _ZNK4inet13physicallayer16TransmissionBase5getIdEv @720
    _ZNK4inet13physicallayer16TransmissionBase9getMediumEv @721
    _ZNK4inet13physicallayer16TransmissionBase9getPacketEv @722
    _ZNK4inet13physicallayer17PhysicalLayerBase17isInitializeStageEi @723
    _ZNK4inet13physicallayer17PhysicalLayerBase17isModuleStopStageEi @724
    _ZNK4inet13physicallayer17PhysicalLayerBase18isModuleStartStageEi @725
    _ZNK4inet13physicallayer18ApskModulationBase15getCodeWordSizeEv @726
    _ZNK4inet13physicallayer18ApskModulationBase16getConstellationEv @727
    _ZNK4inet13physicallayer18ApskModulationBase20getConstellationSizeEv @728
    _ZNK4inet13physicallayer19FlatTransmitterBase10getBitrateEv @729
    _ZNK4inet13physicallayer19FlatTransmitterBase11getMaxPowerEv @730
    _ZNK4inet13physicallayer19FlatTransmitterBase15getHeaderLengthEv @731
    _ZNK4inet13physicallayer19FlatTransmitterBase8getPowerEv @732
    _ZNK4inet13physicallayer21ScalarAnalogModelBase13numInitStagesEv @733
    _ZNK4inet13physicallayer22NarrowbandReceiverBase12getBandwidthEv @734
    _ZNK4inet13physicallayer22NarrowbandReceiverBase13getModulationEv @735
    _ZNK4inet13physicallayer22NarrowbandReceiverBase18getCenterFrequencyEv @736
    _ZNK4inet13physicallayer23NarrowbandReceptionBase12getBandwidthEv @737
    _ZNK4inet13physicallayer23NarrowbandReceptionBase18getCenterFrequencyEv @738
    _ZNK4inet13physicallayer25NarrowbandTransmitterBase12getBandwidthEv @739
    _ZNK4inet13physicallayer25NarrowbandTransmitterBase13getModulationEv @740
    _ZNK4inet13physicallayer25NarrowbandTransmitterBase18getCenterFrequencyEv @741
    _ZNK4inet13physicallayer26StateBasedEpEnergyConsumer13numInitStagesEv @742
    _ZNK4inet13physicallayer26StateBasedEpEnergyConsumer15getEnergySourceEv @743
    _ZNK4inet13physicallayer26StateBasedEpEnergyConsumer19getPowerConsumptionEv @744
    _ZNK4inet13physicallayer5Radio10getAntennaEv @745
    _ZNK4inet13physicallayer5Radio11decapsulateEPNS_6PacketE @746
    _ZNK4inet13physicallayer5Radio11encapsulateEPNS_6PacketE @747
    _ZNK4inet13physicallayer5Radio11getReceiverEv @748
    _ZNK4inet13physicallayer5Radio12getRadioGateEv @749
    _ZNK4inet13physicallayer5Radio12getRadioModeEv @750
    _ZNK4inet13physicallayer5Radio14getTransmitterEv @751
    _ZNK4inet13physicallayer5Radio17getReceptionStateEv @752
    _ZNK4inet13physicallayer5Radio20getTransmissionStateEv @753
    _ZNK4inet13physicallayer5Radio5getIdEv @754
    _ZNK4inet13physicallayer5Radio9getMediumEv @755
    _ZNK4inet14ModuleRefByParINS_13physicallayer12IRadioMediumEEptEv @756
    _ZNK4inet15MacProtocolBase17isInitializeStageEi @757
    _ZNK4inet15MacProtocolBase17isModuleStopStageEi @758
    _ZNK4inet15MacProtocolBase18isModuleStartStageEi @759
    _ZNK4inet16IPrintableObject13printToStreamERSoii @760
    _ZNK4inet16IPrintableObject13printToStringB5cxx11Eii @761
    _ZNK4inet16IPrintableObject13printToStringB5cxx11Ev @762
    _ZNK4inet16IPrintableObject27getInfoStringRepresentationB5cxx11Ei @763
    _ZNK4inet16IPrintableObject28getDebugStringRepresentationB5cxx11Ei @764
    _ZNK4inet16IPrintableObject28getTraceStringRepresentationB5cxx11Ei @765
    _ZNK4inet16IPrintableObject29getDetailStringRepresentationB5cxx11Ei @766
    _ZNK4inet16IPrintableObject31getCompleteStringRepresentationB5cxx11Ei @767
    _ZNK4inet5Chunk10isCompleteEv @768
    _ZNK4inet5Chunk11canInsertAtERKNS_12IntrusivePtrIKS0_EENS_5units5valueIxNS6_5units1bEEE @769
    _ZNK4inet5Chunk11canRemoveAtENS_5units5valueIxNS1_5units1bEEES5_ @770
    _ZNK4inet5Chunk11isImmutableEv @771
    _ZNK4inet5Chunk11isIncorrectEv @772
    _ZNK4inet5Chunk12isIncompleteEv @773
    _ZNK4inet5Chunk13peekConvertedIN5flora12LoRaMacFrameEEEKNS_12IntrusivePtrIT_EERKNS0_8IteratorENS_5units5valueIxNSB_5units1bEEEi @774
    _ZNK4inet5Chunk13peekConvertedIN5flora13LoRaAppPacketEEEKNS_12IntrusivePtrIT_EERKNS0_8IteratorENS_5units5valueIxNSB_5units1bEEEi @775
    _ZNK4inet5Chunk13peekConvertedIN5flora15LoRaPhyPreambleEEEKNS_12IntrusivePtrIT_EERKNS0_8IteratorENS_5units5valueIxNSB_5units1bEEEi @776
    _ZNK4inet5Chunk13peekConvertedINS_11FieldsChunkEEEKNS_12IntrusivePtrIT_EERKNS0_8IteratorENS_5units5valueIxNSA_5units1bEEEi @777
    _ZNK4inet5Chunk15canInsertAtBackERKNS_12IntrusivePtrIKS0_EE @778
    _ZNK4inet5Chunk15canRemoveAtBackENS_5units5valueIxNS1_5units1bEEE @779
    _ZNK4inet5Chunk15checkPeekResultIN5flora12LoRaMacFrameEEEKNS_12IntrusivePtrIT_EERS7_i @780
    _ZNK4inet5Chunk15checkPeekResultIN5flora13LoRaAppPacketEEEKNS_12IntrusivePtrIT_EERS7_i @781
    _ZNK4inet5Chunk15checkPeekResultIN5flora15LoRaPhyPreambleEEEKNS_12IntrusivePtrIT_EERS7_i @782
    _ZNK4inet5Chunk15checkPeekResultINS_11FieldsChunkEEEKNS_12IntrusivePtrIT_EERS6_i @783
    _ZNK4inet5Chunk16canInsertAtFrontERKNS_12IntrusivePtrIKS0_EE @784
    _ZNK4inet5Chunk16canRemoveAtFrontENS_5units5valueIxNS1_5units1bEEE @785
    _ZNK4inet5Chunk21isProperlyRepresentedEv @786
    _ZNK4inet5Chunk23isImproperlyRepresentedEv @787
    _ZNK4inet5Chunk4peekIN5flora12LoRaMacFrameEEEKNS_12IntrusivePtrIT_EERKNS0_8IteratorENS_5units5valueIxNSB_5units1bEEEi @788
    _ZNK4inet5Chunk4peekIN5flora13LoRaAppPacketEEEKNS_12IntrusivePtrIT_EERKNS0_8IteratorENS_5units5valueIxNSB_5units1bEEEi @789
    _ZNK4inet5Chunk4peekIN5flora15LoRaPhyPreambleEEEKNS_12IntrusivePtrIT_EERKNS0_8IteratorENS_5units5valueIxNSB_5units1bEEEi @790
    _ZNK4inet5Chunk4peekINS_11FieldsChunkEEEKNS_12IntrusivePtrIT_EERKNS0_8IteratorENS_5units5valueIxNSA_5units1bEEEi @791
    _ZNK4inet5Chunk7isEmptyEv @792
    _ZNK4inet5Chunk9dupSharedEv @793
    _ZNK4inet5Chunk9isCorrectEv @794
    _ZNK4inet5Chunk9isMutableEv @795
    _ZNK4inet6Packet6getTagIN5flora7LoRaTagEEEKNS_12IntrusivePtrIKT_EEv @796
    _ZNK4inet6Packet6getTagINS_14SignalPowerIndEEEKNS_12IntrusivePtrIKT_EEv @797
    _ZNK4inet6Packet6getTagINS_7SnirIndEEEKNS_12IntrusivePtrIKT_EEv @798
    _ZNK4inet7TagBase12changeRegionENS_5units5valueIxNS1_5units1bEEES5_ @799
    _ZNK4inet7TagBase9dupSharedEv @800
    _ZNK5flora10LoRaMedium18getReceptionResultEPKN4inet13physicallayer6IRadioEPKNS2_10IListeningEPKNS2_13ITransmissionE @801
    _ZNK5flora10LoRaMedium23matchesMacAddressFilterEPKN4inet13physicallayer6IRadioEPKNS1_6PacketE @802
    _ZNK5flora11LoRaGWRadio16isReceptionTimerEPKN7omnetpp8cMessageE @803
    _ZNK5flora11LoRaGWRadio19isTransmissionTimerEPKN7omnetpp8cMessageE @804
    _ZNK5flora11LoRaOptions10parsimPackEPN7omnetpp11cCommBufferE @805
    _ZNK5flora11LoRaOptions12getADRACKReqEv @806
    _ZNK5flora11LoRaOptions12getUseHeaderEv @807
    _ZNK5flora11LoRaOptions9getLoRaBWEv @808
    _ZNK5flora11LoRaOptions9getLoRaCFEv @809
    _ZNK5flora11LoRaOptions9getLoRaCREv @810
    _ZNK5flora11LoRaOptions9getLoRaSFEv @811
    _ZNK5flora11LoRaOptions9getLoRaTPEv @812
    _ZNK5flora12LoRaMacFrame10parsimPackEPN7omnetpp11cCommBufferE @813
    _ZNK5flora12LoRaMacFrame16getLoRaUseHeaderEv @814
    _ZNK5flora12LoRaMacFrame17getSequenceNumberEv @815
    _ZNK5flora12LoRaMacFrame18getReceiverAddressEv @816
    _ZNK5flora12LoRaMacFrame21getTransmitterAddressEv @817
    _ZNK5flora12LoRaMacFrame3dupEv @818
    _ZNK5flora12LoRaMacFrame7getRSSIEv @819
    _ZNK5flora12LoRaMacFrame7getSNIREv @820
    _ZNK5flora12LoRaMacFrame9getLoRaBWEv @821
    _ZNK5flora12LoRaMacFrame9getLoRaCFEv @822
    _ZNK5flora12LoRaMacFrame9getLoRaCREv @823
    _ZNK5flora12LoRaMacFrame9getLoRaSFEv @824
    _ZNK5flora12LoRaMacFrame9getLoRaTPEv @825
    _ZNK5flora12LoRaReceiver14getSensitivityEPKNS_13LoRaReceptionE @826
    _ZNK5flora12LoRaReceiver15createListeningEPKN4inet13physicallayer6IRadioEN7omnetpp7SimTimeES7_RKNS1_5CoordESA_ @827
    _ZNK5flora12LoRaReceiver16getSNIRThresholdEv @828
    _ZNK5flora12LoRaReceiver16isPacketCollidedEPKN4inet13physicallayer10IReceptionENS2_12IRadioSignal10SignalPartEPKNS2_13IInterferenceE @829
    _ZNK5flora12LoRaReceiver20getMinReceptionPowerEv @830
    _ZNK5flora12LoRaReceiver21computeReceivedPacketEPKN4inet13physicallayer5ISnirEb @831
    _ZNK5flora12LoRaReceiver22computeReceptionResultEPKN4inet13physicallayer10IListeningEPKNS2_10IReceptionEPKNS2_13IInterferenceEPKNS2_5ISnirEPKSt6vectorIPKNS2_18IReceptionDecisionESaISI_EE @832
    _ZNK5flora12LoRaReceiver23getMinInterferencePowerEv @833
    _ZNK5flora12LoRaReceiver24computeListeningDecisionEPKN4inet13physicallayer10IListeningEPKNS2_13IInterferenceE @834
    _ZNK5flora12LoRaReceiver24computeReceptionDecisionEPKN4inet13physicallayer10IListeningEPKNS2_10IReceptionENS2_12IRadioSignal10SignalPartEPKNS2_13IInterferenceEPKNS2_5ISnirE @835
    _ZNK5flora12LoRaReceiver26computeIsReceptionPossibleEPKN4inet13physicallayer10IListeningEPKNS2_10IReceptionENS2_12IRadioSignal10SignalPartE @836
    _ZNK5flora12LoRaReceiver26computeIsReceptionPossibleEPKN4inet13physicallayer10IListeningEPKNS2_13ITransmissionE @837
    _ZNK5flora12LoRaReceiver27computeIsReceptionAttemptedEPKN4inet13physicallayer10IListeningEPKNS2_10IReceptionENS2_12IRadioSignal10SignalPartEPKNS2_13IInterferenceE @838
    _ZNK5flora12LoRaReceiver28computeIsReceptionSuccessfulEPKN4inet13physicallayer10IListeningEPKNS2_10IReceptionENS2_12IRadioSignal10SignalPartEPKNS2_13IInterferenceEPKNS2_5ISnirE @839
    _ZNK5flora13LoRaAppPacket10getMsgTypeEv @840
    _ZNK5flora13LoRaAppPacket10getOptionsEv @841
    _ZNK5flora13LoRaAppPacket10parsimPackEPN7omnetpp11cCommBufferE @842
    _ZNK5flora13LoRaAppPacket20getSampleMeasurementEv @843
    _ZNK5flora13LoRaAppPacket3dupEv @844
    _ZNK5flora13LoRaReception15computeMinPowerEN7omnetpp7SimTimeES2_ @845
    _ZNK5flora13LoRaReception8getPowerEv @846
    _ZNK5flora13SimpleLoRaApp13numInitStagesEv @847
    _ZNK5flora14LoRaModulation10getbitRateEv @848
    _ZNK5flora14LoRaModulation11getBandwithEv @849
    _ZNK5flora14LoRaModulation12calculateBEREdN4inet5units5valueIdNS2_3powINS2_5units1sELin1ELi1EEEEENS3_IdNS2_7composeINS5_1bES7_EEEE @850
    _ZNK5flora14LoRaModulation12calculateSEREdN4inet5units5valueIdNS2_3powINS2_5units1sELin1ELi1EEEEENS3_IdNS2_7composeINS5_1bES7_EEEE @851
    _ZNK5flora14LoRaModulation15getSpreadFactorEv @852
    _ZNK5flora15LoRaAnalogModel11computeSNIREPKN4inet13physicallayer10IReceptionEPKNS2_6INoiseE @853
    _ZNK5flora15LoRaAnalogModel12computeNoiseEPKN4inet13physicallayer10IListeningEPKNS2_13IInterferenceE @854
    _ZNK5flora15LoRaAnalogModel13printToStreamERSoii @855
    _ZNK5flora15LoRaAnalogModel16computeReceptionEPKN4inet13physicallayer6IRadioEPKNS2_13ITransmissionEPKNS2_8IArrivalE @856
    _ZNK5flora15LoRaAnalogModel21computeReceptionPowerEPKN4inet13physicallayer6IRadioEPKNS2_13ITransmissionEPKNS2_8IArrivalE @857
    _ZNK5flora15LoRaAnalogModel23getBackgroundNoisePowerEPKNS_17LoRaBandListeningE @858
    _ZNK5flora15LoRaHataOkumura13printToStreamERSoii @859
    _ZNK5flora15LoRaHataOkumura15computePathLossEN4inet5units5valueIdNS2_7composeINS2_5units1mENS2_3powINS5_1sELin1ELi1EEEEEEENS3_IdS9_EENS3_IdS6_EE @860
    _ZNK5flora15LoRaMediumCache11getMaxSpeedEv @861
    _ZNK5flora15LoRaMediumCache13numInitStagesEv @862
    _ZNK5flora15LoRaMediumCache13printToStreamERSoii @863
    _ZNK5flora15LoRaMediumCache15computeMaxRangeEN4inet5units5valueIdNS2_7composeINS4_INS4_INS2_5units1mENS4_INS5_2kgENS2_3powINS5_1sELin2ELi1EEEEEEES6_EENS8_IS9_Lin1ELi1EEEEEEESG_ @864
    _ZNK5flora15LoRaMediumCache15computeMaxSpeedEv @865
    _ZNK5flora15LoRaMediumCache17getMaxAntennaGainEv @866
    _ZNK5flora15LoRaMediumCache20getMaxConstraintAreaEv @867
    _ZNK5flora15LoRaMediumCache20getMinConstraintAreaEv @868
    _ZNK5flora15LoRaMediumCache20getMinReceptionPowerEv @869
    _ZNK5flora15LoRaMediumCache21computeMaxAntennaGainEv @870
    _ZNK5flora15LoRaMediumCache22getMinInterferenceTimeEv @871
    _ZNK5flora15LoRaMediumCache23getMaxInterferenceRangeEPKN4inet13physicallayer6IRadioE @872
    _ZNK5flora15LoRaMediumCache23getMaxInterferenceRangeEv @873
    _ZNK5flora15LoRaMediumCache23getMaxTransmissionPowerEv @874
    _ZNK5flora15LoRaMediumCache23getMinInterferencePowerEv @875
    _ZNK5flora15LoRaMediumCache24computeMinConstraintAreaEv @876
    _ZNK5flora15LoRaMediumCache24computeMinReceptionPowerEv @877
    _ZNK5flora15LoRaMediumCache24getMaxCommunicationRangeEPKN4inet13physicallayer6IRadioE @878
    _ZNK5flora15LoRaMediumCache24getMaxCommunicationRangeEv @879
    _ZNK5flora15LoRaMediumCache25computeMaxConstreaintAreaEv @880
    _ZNK5flora15LoRaMediumCache26computeMinInterferenceTimeEv @881
    _ZNK5flora15LoRaMediumCache26getMaxTransmissionDurationEv @882
    _ZNK5flora15LoRaMediumCache27computeMaxInterferenceRangeEv @883
    _ZNK5flora15LoRaMediumCache27computeMaxTransmissionPowerEv @884
    _ZNK5flora15LoRaMediumCache27computeMinInterferencePowerEv @885
    _ZNK5flora15LoRaMediumCache30computeMaxTransmissionDurationEv @886
    _ZNK5flora15LoRaPhyPreamble10parsimPackEPN7omnetpp11cCommBufferE @887
    _ZNK5flora15LoRaPhyPreamble12getBandwidthEv @888
    _ZNK5flora15LoRaPhyPreamble12getUseHeaderEv @889
    _ZNK5flora15LoRaPhyPreamble15getSpreadFactorEv @890
    _ZNK5flora15LoRaPhyPreamble18getCenterFrequencyEv @891
    _ZNK5flora15LoRaPhyPreamble18getCodeRendundanceEv @892
    _ZNK5flora15LoRaPhyPreamble18getReceiverAddressEv @893
    _ZNK5flora15LoRaPhyPreamble3dupEv @894
    _ZNK5flora15LoRaPhyPreamble8getPowerEv @895
    _ZNK5flora15LoRaTransmitter13printToStreamERSoii @896
    _ZNK5flora15LoRaTransmitter18createTransmissionEPKN4inet13physicallayer6IRadioEPKNS1_6PacketEN7omnetpp7SimTimeE @897
    _ZNK5flora15PacketForwarder13numInitStagesEv @898
    _ZNK5flora16LoRaPathLossOulu15computePathLossEN4inet5units5valueIdNS2_7composeINS2_5units1mENS2_3powINS5_1sELin1ELi1EEEEEEENS3_IdS9_EENS3_IdS6_EE @899
    _ZNK5flora16LoRaTransmission12getBandwidthEv @900
    _ZNK5flora16LoRaTransmission13printToStreamERSoii @901
    _ZNK5flora16LoRaTransmission15computeMinPowerEN7omnetpp7SimTimeES2_ @902
    _ZNK5flora16LoRaTransmission18getCenterFrequencyEv @903
    _ZNK5flora16LoRaTransmission8getPowerEv @904
    _ZNK5flora16NetworkServerApp13numInitStagesEv @905
    _ZNK5flora17LoRaBandListening13printToStreamERSoii @906
    _ZNK5flora17LoRaBandListening9getLoRaBWEv @907
    _ZNK5flora17LoRaBandListening9getLoRaCFEv @908
    _ZNK5flora17LoRaBandListening9getLoRaSFEv @909
    _ZNK5flora17LoRaNeighborCache13numInitStagesEv @910
    _ZNK5flora17LoRaNeighborCache13printToStreamERSoii @911
    _ZNK5flora17LoRaNeighborCache15sendToNeighborsEPN4inet13physicallayer6IRadioEPKNS2_15IWirelessSignalEd @912
    _ZNK5flora17LoRaTagDescriptor11doesSupportEPN7omnetpp7cObjectE @913
    _ZNK5flora17LoRaTagDescriptor11getPropertyEPKc @914
    _ZNK5flora17LoRaTagDescriptor12getFieldNameEi @915
    _ZNK5flora17LoRaTagDescriptor13getFieldCountEv @916
    _ZNK5flora17LoRaTagDescriptor13getFieldValueEN7omnetpp7any_ptrEii @917
    _ZNK5flora17LoRaTagDescriptor13setFieldValueEN7omnetpp7any_ptrEiiRKNS1_6cValueE @918
    _ZNK5flora17LoRaTagDescriptor16getFieldPropertyEiPKc @919
    _ZNK5flora17LoRaTagDescriptor16getPropertyNamesEv @920
    _ZNK5flora17LoRaTagDescriptor17getFieldArraySizeEN7omnetpp7any_ptrEi @921
    _ZNK5flora17LoRaTagDescriptor17getFieldTypeFlagsEi @922
    _ZNK5flora17LoRaTagDescriptor17setFieldArraySizeEN7omnetpp7any_ptrEii @923
    _ZNK5flora17LoRaTagDescriptor18getFieldStructNameEi @924
    _ZNK5flora17LoRaTagDescriptor18getFieldTypeStringEi @925
    _ZNK5flora17LoRaTagDescriptor21getFieldPropertyNamesEi @926
    _ZNK5flora17LoRaTagDescriptor21getFieldValueAsStringB5cxx11EN7omnetpp7any_ptrEii @927
    _ZNK5flora17LoRaTagDescriptor21setFieldValueAsStringEN7omnetpp7any_ptrEiiPKc @928
    _ZNK5flora17LoRaTagDescriptor25getFieldDynamicTypeStringEN7omnetpp7any_ptrEii @929
    _ZNK5flora17LoRaTagDescriptor26getFieldStructValuePointerEN7omnetpp7any_ptrEii @930
    _ZNK5flora17LoRaTagDescriptor26setFieldStructValuePointerEN7omnetpp7any_ptrEiiS2_ @931
    _ZNK5flora17LoRaTagDescriptor9findFieldEPKc @932
    _ZNK5flora18LoRaEnergyConsumer19getPowerConsumptionEv @933
    _ZNK5flora18LoRaMacControlInfo10parsimPackEPN7omnetpp11cCommBufferE @934
    _ZNK5flora18LoRaMacControlInfo16getLoRaUseHeaderEv @935
    _ZNK5flora18LoRaMacControlInfo6getSrcEv @936
    _ZNK5flora18LoRaMacControlInfo7getDestEv @937
    _ZNK5flora18LoRaMacControlInfo9getLoRaBWEv @938
    _ZNK5flora18LoRaMacControlInfo9getLoRaCFEv @939
    _ZNK5flora18LoRaMacControlInfo9getLoRaCREv @940
    _ZNK5flora18LoRaMacControlInfo9getLoRaSFEv @941
    _ZNK5flora18LoRaMacControlInfo9getLoRaTPEv @942
    _ZNK5flora20MobileGatewayLoRaApp13numInitStagesEv @943
    _ZNK5flora21LoRaOptionsDescriptor11doesSupportEPN7omnetpp7cObjectE @944
    _ZNK5flora21LoRaOptionsDescriptor11getPropertyEPKc @945
    _ZNK5flora21LoRaOptionsDescriptor12getFieldNameEi @946
    _ZNK5flora21LoRaOptionsDescriptor13getFieldCountEv @947
    _ZNK5flora21LoRaOptionsDescriptor13getFieldValueEN7omnetpp7any_ptrEii @948
    _ZNK5flora21LoRaOptionsDescriptor13setFieldValueEN7omnetpp7any_ptrEiiRKNS1_6cValueE @949
    _ZNK5flora21LoRaOptionsDescriptor16getFieldPropertyEiPKc @950
    _ZNK5flora21LoRaOptionsDescriptor16getPropertyNamesEv @951
    _ZNK5flora21LoRaOptionsDescriptor17getFieldArraySizeEN7omnetpp7any_ptrEi @952
    _ZNK5flora21LoRaOptionsDescriptor17getFieldTypeFlagsEi @953
    _ZNK5flora21LoRaOptionsDescriptor17setFieldArraySizeEN7omnetpp7any_ptrEii @954
    _ZNK5flora21LoRaOptionsDescriptor18getFieldStructNameEi @955
    _ZNK5flora21LoRaOptionsDescriptor18getFieldTypeStringEi @956
    _ZNK5flora21LoRaOptionsDescriptor21getFieldPropertyNamesEi @957
    _ZNK5flora21LoRaOptionsDescriptor21getFieldValueAsStringB5cxx11EN7omnetpp7any_ptrEii @958
    _ZNK5flora21LoRaOptionsDescriptor21setFieldValueAsStringEN7omnetpp7any_ptrEiiPKc @959
    _ZNK5flora21LoRaOptionsDescriptor25getFieldDynamicTypeStringEN7omnetpp7any_ptrEii @960
    _ZNK5flora21LoRaOptionsDescriptor26getFieldStructValuePointerEN7omnetpp7any_ptrEii @961
    _ZNK5flora21LoRaOptionsDescriptor26setFieldStructValuePointerEN7omnetpp7any_ptrEiiS2_ @962
    _ZNK5flora21LoRaOptionsDescriptor9findFieldEPKc @963
    _ZNK5flora22LoRaLogNormalShadowing12computeRangeEN4inet5units5valueIdNS2_7composeINS4_INS4_INS2_5units1mENS4_INS5_2kgENS2_3powINS5_1sELin2ELi1EEEEEEES6_EENS8_IS9_Lin1ELi1EEEEEEE @964
    _ZNK5flora22LoRaLogNormalShadowing13printToStreamERSoii @965
    _ZNK5flora22LoRaLogNormalShadowing15computePathLossEN4inet5units5valueIdNS2_7composeINS2_5units1mENS2_3powINS5_1sELin1ELi1EEEEEEENS3_IdS9_EENS3_IdS6_EE @966
    _ZNK5flora22LoRaMacFrameDescriptor11doesSupportEPN7omnetpp7cObjectE @967
    _ZNK5flora22LoRaMacFrameDescriptor11getPropertyEPKc @968
    _ZNK5flora22LoRaMacFrameDescriptor12getFieldNameEi @969
    _ZNK5flora22LoRaMacFrameDescriptor13getFieldCountEv @970
    _ZNK5flora22LoRaMacFrameDescriptor13getFieldValueEN7omnetpp7any_ptrEii @971
    _ZNK5flora22LoRaMacFrameDescriptor13setFieldValueEN7omnetpp7any_ptrEiiRKNS1_6cValueE @972
    _ZNK5flora22LoRaMacFrameDescriptor16getFieldPropertyEiPKc @973
    _ZNK5flora22LoRaMacFrameDescriptor16getPropertyNamesEv @974
    _ZNK5flora22LoRaMacFrameDescriptor17getFieldArraySizeEN7omnetpp7any_ptrEi @975
    _ZNK5flora22LoRaMacFrameDescriptor17getFieldTypeFlagsEi @976
    _ZNK5flora22LoRaMacFrameDescriptor17setFieldArraySizeEN7omnetpp7any_ptrEii @977
    _ZNK5flora22LoRaMacFrameDescriptor18getFieldStructNameEi @978
    _ZNK5flora22LoRaMacFrameDescriptor18getFieldTypeStringEi @979
    _ZNK5flora22LoRaMacFrameDescriptor21getFieldPropertyNamesEi @980
    _ZNK5flora22LoRaMacFrameDescriptor21getFieldValueAsStringB5cxx11EN7omnetpp7any_ptrEii @981
    _ZNK5flora22LoRaMacFrameDescriptor21setFieldValueAsStringEN7omnetpp7any_ptrEiiPKc @982
    _ZNK5flora22LoRaMacFrameDescriptor25getFieldDynamicTypeStringEN7omnetpp7any_ptrEii @983
    _ZNK5flora22LoRaMacFrameDescriptor26getFieldStructValuePointerEN7omnetpp7any_ptrEii @984
    _ZNK5flora22LoRaMacFrameDescriptor26setFieldStructValuePointerEN7omnetpp7any_ptrEiiS2_ @985
    _ZNK5flora22LoRaMacFrameDescriptor9findFieldEPKc @986
    _ZNK5flora23LoRaAppPacketDescriptor11doesSupportEPN7omnetpp7cObjectE @987
    _ZNK5flora23LoRaAppPacketDescriptor11getPropertyEPKc @988
    _ZNK5flora23LoRaAppPacketDescriptor12getFieldNameEi @989
    _ZNK5flora23LoRaAppPacketDescriptor13getFieldCountEv @990
    _ZNK5flora23LoRaAppPacketDescriptor13getFieldValueEN7omnetpp7any_ptrEii @991
    _ZNK5flora23LoRaAppPacketDescriptor13setFieldValueEN7omnetpp7any_ptrEiiRKNS1_6cValueE @992
    _ZNK5flora23LoRaAppPacketDescriptor16getFieldPropertyEiPKc @993
    _ZNK5flora23LoRaAppPacketDescriptor16getPropertyNamesEv @994
    _ZNK5flora23LoRaAppPacketDescriptor17getFieldArraySizeEN7omnetpp7any_ptrEi @995
    _ZNK5flora23LoRaAppPacketDescriptor17getFieldTypeFlagsEi @996
    _ZNK5flora23LoRaAppPacketDescriptor17setFieldArraySizeEN7omnetpp7any_ptrEii @997
    _ZNK5flora23LoRaAppPacketDescriptor18getFieldStructNameEi @998
    _ZNK5flora23LoRaAppPacketDescriptor18getFieldTypeStringEi @999
    _ZNK5flora23LoRaAppPacketDescriptor21getFieldPropertyNamesEi @1000
    _ZNK5flora23LoRaAppPacketDescriptor21getFieldValueAsStringB5cxx11EN7omnetpp7any_ptrEii @1001
    _ZNK5flora23LoRaAppPacketDescriptor21setFieldValueAsStringEN7omnetpp7any_ptrEiiPKc @1002
    _ZNK5flora23LoRaAppPacketDescriptor25getFieldDynamicTypeStringEN7omnetpp7any_ptrEii @1003
    _ZNK5flora23LoRaAppPacketDescriptor26getFieldStructValuePointerEN7omnetpp7any_ptrEii @1004
    _ZNK5flora23LoRaAppPacketDescriptor26setFieldStructValuePointerEN7omnetpp7any_ptrEiiS2_ @1005
    _ZNK5flora23LoRaAppPacketDescriptor9findFieldEPKc @1006
    _ZNK5flora23LoRaReceptionIndication10getMinRSSIEv @1007
    _ZNK5flora23LoRaReceptionIndication10getMinSNIREv @1008
    _ZNK5flora23LoRaReceptionIndication10parsimPackEPN7omnetpp11cCommBufferE @1009
    _ZNK5flora23LoRaReceptionIndication9getLoRaBWEv @1010
    _ZNK5flora23LoRaReceptionIndication9getLoRaCFEv @1011
    _ZNK5flora23LoRaReceptionIndication9getLoRaCREv @1012
    _ZNK5flora23LoRaReceptionIndication9getLoRaSFEv @1013
    _ZNK5flora23LoRaReceptionIndication9getLoRaTPEv @1014
    _ZNK5flora23LoRaTransmissionRequest10getBitrateEv @1015
    _ZNK5flora23LoRaTransmissionRequest10parsimPackEPN7omnetpp11cCommBufferE @1016
    _ZNK5flora23LoRaTransmissionRequest12getBandwidthEv @1017
    _ZNK5flora23LoRaTransmissionRequest19getCarrierFrequencyEv @1018
    _ZNK5flora23LoRaTransmissionRequest8getPowerEv @1019
    _ZNK5flora25LoRaConfigureRadioCommand10getBitrateEv @1020
    _ZNK5flora25LoRaConfigureRadioCommand10parsimPackEPN7omnetpp11cCommBufferE @1021
    _ZNK5flora25LoRaConfigureRadioCommand12getBandwidthEv @1022
    _ZNK5flora25LoRaConfigureRadioCommand12getRadioModeEv @1023
    _ZNK5flora25LoRaConfigureRadioCommand19getCarrierFrequencyEv @1024
    _ZNK5flora25LoRaConfigureRadioCommand8getPowerEv @1025
    _ZNK5flora25LoRaPhyPreambleDescriptor11doesSupportEPN7omnetpp7cObjectE @1026
    _ZNK5flora25LoRaPhyPreambleDescriptor11getPropertyEPKc @1027
    _ZNK5flora25LoRaPhyPreambleDescriptor12getFieldNameEi @1028
    _ZNK5flora25LoRaPhyPreambleDescriptor13getFieldCountEv @1029
    _ZNK5flora25LoRaPhyPreambleDescriptor13getFieldValueEN7omnetpp7any_ptrEii @1030
    _ZNK5flora25LoRaPhyPreambleDescriptor13setFieldValueEN7omnetpp7any_ptrEiiRKNS1_6cValueE @1031
    _ZNK5flora25LoRaPhyPreambleDescriptor16getFieldPropertyEiPKc @1032
    _ZNK5flora25LoRaPhyPreambleDescriptor16getPropertyNamesEv @1033
    _ZNK5flora25LoRaPhyPreambleDescriptor17getFieldArraySizeEN7omnetpp7any_ptrEi @1034
    _ZNK5flora25LoRaPhyPreambleDescriptor17getFieldTypeFlagsEi @1035
    _ZNK5flora25LoRaPhyPreambleDescriptor17setFieldArraySizeEN7omnetpp7any_ptrEii @1036
    _ZNK5flora25LoRaPhyPreambleDescriptor18getFieldStructNameEi @1037
    _ZNK5flora25LoRaPhyPreambleDescriptor18getFieldTypeStringEi @1038
    _ZNK5flora25LoRaPhyPreambleDescriptor21getFieldPropertyNamesEi @1039
    _ZNK5flora25LoRaPhyPreambleDescriptor21getFieldValueAsStringB5cxx11EN7omnetpp7any_ptrEii @1040
    _ZNK5flora25LoRaPhyPreambleDescriptor21setFieldValueAsStringEN7omnetpp7any_ptrEiiPKc @1041
    _ZNK5flora25LoRaPhyPreambleDescriptor25getFieldDynamicTypeStringEN7omnetpp7any_ptrEii @1042
    _ZNK5flora25LoRaPhyPreambleDescriptor26getFieldStructValuePointerEN7omnetpp7any_ptrEii @1043
    _ZNK5flora25LoRaPhyPreambleDescriptor26setFieldStructValuePointerEN7omnetpp7any_ptrEiiS2_ @1044
    _ZNK5flora25LoRaPhyPreambleDescriptor9findFieldEPKc @1045
    _ZNK5flora28LoRaMacControlInfoDescriptor11doesSupportEPN7omnetpp7cObjectE @1046
    _ZNK5flora28LoRaMacControlInfoDescriptor11getPropertyEPKc @1047
    _ZNK5flora28LoRaMacControlInfoDescriptor12getFieldNameEi @1048
    _ZNK5flora28LoRaMacControlInfoDescriptor13getFieldCountEv @1049
    _ZNK5flora28LoRaMacControlInfoDescriptor13getFieldValueEN7omnetpp7any_ptrEii @1050
    _ZNK5flora28LoRaMacControlInfoDescriptor13setFieldValueEN7omnetpp7any_ptrEiiRKNS1_6cValueE @1051
    _ZNK5flora28LoRaMacControlInfoDescriptor16getFieldPropertyEiPKc @1052
    _ZNK5flora28LoRaMacControlInfoDescriptor16getPropertyNamesEv @1053
    _ZNK5flora28LoRaMacControlInfoDescriptor17getFieldArraySizeEN7omnetpp7any_ptrEi @1054
    _ZNK5flora28LoRaMacControlInfoDescriptor17getFieldTypeFlagsEi @1055
    _ZNK5flora28LoRaMacControlInfoDescriptor17setFieldArraySizeEN7omnetpp7any_ptrEii @1056
    _ZNK5flora28LoRaMacControlInfoDescriptor18getFieldStructNameEi @1057
    _ZNK5flora28LoRaMacControlInfoDescriptor18getFieldTypeStringEi @1058
    _ZNK5flora28LoRaMacControlInfoDescriptor21getFieldPropertyNamesEi @1059
    _ZNK5flora28LoRaMacControlInfoDescriptor21getFieldValueAsStringB5cxx11EN7omnetpp7any_ptrEii @1060
    _ZNK5flora28LoRaMacControlInfoDescriptor21setFieldValueAsStringEN7omnetpp7any_ptrEiiPKc @1061
    _ZNK5flora28LoRaMacControlInfoDescriptor25getFieldDynamicTypeStringEN7omnetpp7any_ptrEii @1062
    _ZNK5flora28LoRaMacControlInfoDescriptor26getFieldStructValuePointerEN7omnetpp7any_ptrEii @1063
    _ZNK5flora28LoRaMacControlInfoDescriptor26setFieldStructValuePointerEN7omnetpp7any_ptrEiiS2_ @1064
    _ZNK5flora28LoRaMacControlInfoDescriptor9findFieldEPKc @1065
    _ZNK5flora33LoRaReceptionIndicationDescriptor11doesSupportEPN7omnetpp7cObjectE @1066
    _ZNK5flora33LoRaReceptionIndicationDescriptor11getPropertyEPKc @1067
    _ZNK5flora33LoRaReceptionIndicationDescriptor12getFieldNameEi @1068
    _ZNK5flora33LoRaReceptionIndicationDescriptor13getFieldCountEv @1069
    _ZNK5flora33LoRaReceptionIndicationDescriptor13getFieldValueEN7omnetpp7any_ptrEii @1070
    _ZNK5flora33LoRaReceptionIndicationDescriptor13setFieldValueEN7omnetpp7any_ptrEiiRKNS1_6cValueE @1071
    _ZNK5flora33LoRaReceptionIndicationDescriptor16getFieldPropertyEiPKc @1072
    _ZNK5flora33LoRaReceptionIndicationDescriptor16getPropertyNamesEv @1073
    _ZNK5flora33LoRaReceptionIndicationDescriptor17getFieldArraySizeEN7omnetpp7any_ptrEi @1074
    _ZNK5flora33LoRaReceptionIndicationDescriptor17getFieldTypeFlagsEi @1075
    _ZNK5flora33LoRaReceptionIndicationDescriptor17setFieldArraySizeEN7omnetpp7any_ptrEii @1076
    _ZNK5flora33LoRaReceptionIndicationDescriptor18getFieldStructNameEi @1077
    _ZNK5flora33LoRaReceptionIndicationDescriptor18getFieldTypeStringEi @1078
    _ZNK5flora33LoRaReceptionIndicationDescriptor21getFieldPropertyNamesEi @1079
    _ZNK5flora33LoRaReceptionIndicationDescriptor21getFieldValueAsStringB5cxx11EN7omnetpp7any_ptrEii @1080
    _ZNK5flora33LoRaReceptionIndicationDescriptor21setFieldValueAsStringEN7omnetpp7any_ptrEiiPKc @1081
    _ZNK5flora33LoRaReceptionIndicationDescriptor25getFieldDynamicTypeStringEN7omnetpp7any_ptrEii @1082
    _ZNK5flora33LoRaReceptionIndicationDescriptor26getFieldStructValuePointerEN7omnetpp7any_ptrEii @1083
    _ZNK5flora33LoRaReceptionIndicationDescriptor26setFieldStructValuePointerEN7omnetpp7any_ptrEiiS2_ @1084
    _ZNK5flora33LoRaReceptionIndicationDescriptor9findFieldEPKc @1085
    _ZNK5flora33LoRaTransmissionRequestDescriptor11doesSupportEPN7omnetpp7cObjectE @1086
    _ZNK5flora33LoRaTransmissionRequestDescriptor11getPropertyEPKc @1087
    _ZNK5flora33LoRaTransmissionRequestDescriptor12getFieldNameEi @1088
    _ZNK5flora33LoRaTransmissionRequestDescriptor13getFieldCountEv @1089
    _ZNK5flora33LoRaTransmissionRequestDescriptor13getFieldValueEN7omnetpp7any_ptrEii @1090
    _ZNK5flora33LoRaTransmissionRequestDescriptor13setFieldValueEN7omnetpp7any_ptrEiiRKNS1_6cValueE @1091
    _ZNK5flora33LoRaTransmissionRequestDescriptor16getFieldPropertyEiPKc @1092
    _ZNK5flora33LoRaTransmissionRequestDescriptor16getPropertyNamesEv @1093
    _ZNK5flora33LoRaTransmissionRequestDescriptor17getFieldArraySizeEN7omnetpp7any_ptrEi @1094
    _ZNK5flora33LoRaTransmissionRequestDescriptor17getFieldTypeFlagsEi @1095
    _ZNK5flora33LoRaTransmissionRequestDescriptor17setFieldArraySizeEN7omnetpp7any_ptrEii @1096
    _ZNK5flora33LoRaTransmissionRequestDescriptor18getFieldStructNameEi @1097
    _ZNK5flora33LoRaTransmissionRequestDescriptor18getFieldTypeStringEi @1098
    _ZNK5flora33LoRaTransmissionRequestDescriptor21getFieldPropertyNamesEi @1099
    _ZNK5flora33LoRaTransmissionRequestDescriptor21getFieldValueAsStringB5cxx11EN7omnetpp7any_ptrEii @1100
    _ZNK5flora33LoRaTransmissionRequestDescriptor21setFieldValueAsStringEN7omnetpp7any_ptrEiiPKc @1101
    _ZNK5flora33LoRaTransmissionRequestDescriptor25getFieldDynamicTypeStringEN7omnetpp7any_ptrEii @1102
    _ZNK5flora33LoRaTransmissionRequestDescriptor26getFieldStructValuePointerEN7omnetpp7any_ptrEii @1103
    _ZNK5flora33LoRaTransmissionRequestDescriptor26setFieldStructValuePointerEN7omnetpp7any_ptrEiiS2_ @1104
    _ZNK5flora33LoRaTransmissionRequestDescriptor9findFieldEPKc @1105
    _ZNK5flora35LoRaConfigureRadioCommandDescriptor11doesSupportEPN7omnetpp7cObjectE @1106
    _ZNK5flora35LoRaConfigureRadioCommandDescriptor11getPropertyEPKc @1107
    _ZNK5flora35LoRaConfigureRadioCommandDescriptor12getFieldNameEi @1108
    _ZNK5flora35LoRaConfigureRadioCommandDescriptor13getFieldCountEv @1109
    _ZNK5flora35LoRaConfigureRadioCommandDescriptor13getFieldValueEN7omnetpp7any_ptrEii @1110
    _ZNK5flora35LoRaConfigureRadioCommandDescriptor13setFieldValueEN7omnetpp7any_ptrEiiRKNS1_6cValueE @1111
    _ZNK5flora35LoRaConfigureRadioCommandDescriptor16getFieldPropertyEiPKc @1112
    _ZNK5flora35LoRaConfigureRadioCommandDescriptor16getPropertyNamesEv @1113
    _ZNK5flora35LoRaConfigureRadioCommandDescriptor17getFieldArraySizeEN7omnetpp7any_ptrEi @1114
    _ZNK5flora35LoRaConfigureRadioCommandDescriptor17getFieldTypeFlagsEi @1115
    _ZNK5flora35LoRaConfigureRadioCommandDescriptor17setFieldArraySizeEN7omnetpp7any_ptrEii @1116
    _ZNK5flora35LoRaConfigureRadioCommandDescriptor18getFieldStructNameEi @1117
    _ZNK5flora35LoRaConfigureRadioCommandDescriptor18getFieldTypeStringEi @1118
    _ZNK5flora35LoRaConfigureRadioCommandDescriptor21getFieldPropertyNamesEi @1119
    _ZNK5flora35LoRaConfigureRadioCommandDescriptor21getFieldValueAsStringB5cxx11EN7omnetpp7any_ptrEii @1120
    _ZNK5flora35LoRaConfigureRadioCommandDescriptor21setFieldValueAsStringEN7omnetpp7any_ptrEiiPKc @1121
    _ZNK5flora35LoRaConfigureRadioCommandDescriptor25getFieldDynamicTypeStringEN7omnetpp7any_ptrEii @1122
    _ZNK5flora35LoRaConfigureRadioCommandDescriptor26getFieldStructValuePointerEN7omnetpp7any_ptrEii @1123
    _ZNK5flora35LoRaConfigureRadioCommandDescriptor26setFieldStructValuePointerEN7omnetpp7any_ptrEiiS2_ @1124
    _ZNK5flora35LoRaConfigureRadioCommandDescriptor9findFieldEPKc @1125
    _ZNK5flora7LoRaTag10parsimPackEPN7omnetpp11cCommBufferE @1126
    _ZNK5flora7LoRaTag12getBandwidthEv @1127
    _ZNK5flora7LoRaTag12getUseHeaderEv @1128
    _ZNK5flora7LoRaTag15getSpreadFactorEv @1129
    _ZNK5flora7LoRaTag18getCenterFrequencyEv @1130
    _ZNK5flora7LoRaTag18getCodeRendundanceEv @1131
    _ZNK5flora7LoRaTag3dupEv @1132
    _ZNK5flora7LoRaTag8getPowerEv @1133
    _ZNK5flora9LoRaRadio10getAntennaEv @1134
    _ZNK5flora9LoRaRadio11decapsulateEPN4inet6PacketE @1135
    _ZNK5flora9LoRaRadio11getReceiverEv @1136
    _ZNK5flora9LoRaRadio12createSignalEPN4inet6PacketE @1137
    _ZNK5flora9LoRaRadio12getRadioGateEv @1138
    _ZNK5flora9LoRaRadio12getRadioModeEv @1139
    _ZNK5flora9LoRaRadio13printToStreamERSoii @1140
    _ZNK5flora9LoRaRadio14getTransmitterEv @1141
    _ZNK5flora9LoRaRadio17getReceptionStateEv @1142
    _ZNK5flora9LoRaRadio20getTransmissionStateEv @1143
    _ZNK5flora9LoRaRadio21getReceivedSignalPartEv @1144
    _ZNK5flora9LoRaRadio22getReceptionInProgressEv @1145
    _ZNK5flora9LoRaRadio24getTransmittedSignalPartEv @1146
    _ZNK5flora9LoRaRadio25getTransmissionInProgressEv @1147
    _ZNK5flora9LoRaRadio5getIdEv @1148
    _ZNK5flora9LoRaRadio9getMediumEv @1149
    _ZNK7omnetpp10cComponent10chi_squareEji @1150
    _ZNK7omnetpp10cComponent10intuniformEiii @1151
    _ZNK7omnetpp10cComponent11exponentialENS_7SimTimeEi @1152
    _ZNK7omnetpp10cComponent11exponentialEdi @1153
    _ZNK7omnetpp10cComponent11negbinomialEidi @1154
    _ZNK7omnetpp10cComponent11truncnormalENS_7SimTimeES1_i @1155
    _ZNK7omnetpp10cComponent11truncnormalEddi @1156
    _ZNK7omnetpp10cComponent12getNumParamsEv @1157
    _ZNK7omnetpp10cComponent13numInitStagesEv @1158
    _ZNK7omnetpp10cComponent14getDisplayNameEv @1159
    _ZNK7omnetpp10cComponent14intuniformexclEiii @1160
    _ZNK7omnetpp10cComponent14pareto_shiftedEdddi @1161
    _ZNK7omnetpp10cComponent4betaEddi @1162
    _ZNK7omnetpp10cComponent6cauchyEddi @1163
    _ZNK7omnetpp10cComponent6normalENS_7SimTimeES1_i @1164
    _ZNK7omnetpp10cComponent6normalEddi @1165
    _ZNK7omnetpp10cComponent6triangEdddi @1166
    _ZNK7omnetpp10cComponent7dblrandEi @1167
    _ZNK7omnetpp10cComponent7gamma_dEddi @1168
    _ZNK7omnetpp10cComponent7intrandEji @1169
    _ZNK7omnetpp10cComponent7poissonEdi @1170
    _ZNK7omnetpp10cComponent7uniformENS_7SimTimeES1_i @1171
    _ZNK7omnetpp10cComponent7uniformEddi @1172
    _ZNK7omnetpp10cComponent7weibullEddi @1173
    _ZNK7omnetpp10cComponent8binomialEidi @1174
    _ZNK7omnetpp10cComponent8erlang_kEjdi @1175
    _ZNK7omnetpp10cComponent9bernoulliEdi @1176
    _ZNK7omnetpp10cComponent9geometricEdi @1177
    _ZNK7omnetpp10cComponent9lognormalEddi @1178
    _ZNK7omnetpp10cComponent9student_tEji @1179
    _ZNK7omnetpp10cIListener17getSubscribeCountEv @1180
    _ZNK7omnetpp10cSoftOwner11isSoftOwnerEv @1181
    _ZNK7omnetpp12cNamedObject7getNameEv @1182
    _ZNK7omnetpp12cOwnedObject13isOwnedObjectEv @1183
    _ZNK7omnetpp12cOwnedObject8getOwnerEv @1184
    _ZNK7omnetpp21cGenericReadonlyWatchIN4inet5CoordEE12getClassNameEv @1185
    _ZNK7omnetpp21cGenericReadonlyWatchIN4inet5CoordEE18supportsAssignmentEv @1186
    _ZNK7omnetpp21cGenericReadonlyWatchIN4inet5CoordEE3strB5cxx11Ev @1187
    _ZNK7omnetpp21cGenericReadonlyWatchIN4inet5units5valueIdNS2_5units1mEEEE12getClassNameEv @1188
    _ZNK7omnetpp21cGenericReadonlyWatchIN4inet5units5valueIdNS2_5units1mEEEE18supportsAssignmentEv @1189
    _ZNK7omnetpp21cGenericReadonlyWatchIN4inet5units5valueIdNS2_5units1mEEEE3strB5cxx11Ev @1190
    _ZNK7omnetpp21cGenericReadonlyWatchIN4inet5units5valueIdNS2_7composeINS2_5units1mENS2_3powINS5_1sELin1ELi1EEEEEEEE12getClassNameEv @1191
    _ZNK7omnetpp21cGenericReadonlyWatchIN4inet5units5valueIdNS2_7composeINS2_5units1mENS2_3powINS5_1sELin1ELi1EEEEEEEE18supportsAssignmentEv @1192
    _ZNK7omnetpp21cGenericReadonlyWatchIN4inet5units5valueIdNS2_7composeINS2_5units1mENS2_3powINS5_1sELin1ELi1EEEEEEEE3strB5cxx11Ev @1193
    _ZNK7omnetpp21cGenericReadonlyWatchIN4inet5units5valueIdNS2_7composeINS4_INS4_INS2_5units1mENS4_INS5_2kgENS2_3powINS5_1sELin2ELi1EEEEEEES6_EENS8_IS9_Lin1ELi1EEEEEEEE12getClassNameEv @1194
    _ZNK7omnetpp21cGenericReadonlyWatchIN4inet5units5valueIdNS2_7composeINS4_INS4_INS2_5units1mENS4_INS5_2kgENS2_3powINS5_1sELin2ELi1EEEEEEES6_EENS8_IS9_Lin1ELi1EEEEEEEE18supportsAssignmentEv @1195
    _ZNK7omnetpp21cGenericReadonlyWatchIN4inet5units5valueIdNS2_7composeINS4_INS4_INS2_5units1mENS4_INS5_2kgENS2_3powINS5_1sELin2ELi1EEEEEEES6_EENS8_IS9_Lin1ELi1EEEEEEEE3strB5cxx11Ev @1196
    _ZNK7omnetpp21cGenericReadonlyWatchINS_4cFSMEE12getClassNameEv @1197
    _ZNK7omnetpp21cGenericReadonlyWatchINS_4cFSMEE18supportsAssignmentEv @1198
    _ZNK7omnetpp21cGenericReadonlyWatchINS_4cFSMEE3strB5cxx11Ev @1199
    _ZNK7omnetpp21cGenericReadonlyWatchINS_7SimTimeEE12getClassNameEv @1200
    _ZNK7omnetpp21cGenericReadonlyWatchINS_7SimTimeEE18supportsAssignmentEv @1201
    _ZNK7omnetpp21cGenericReadonlyWatchINS_7SimTimeEE3strB5cxx11Ev @1202
    _ZNK7omnetpp23cGenericAssignableWatchIdE12getClassNameEv @1203
    _ZNK7omnetpp23cGenericAssignableWatchIdE18supportsAssignmentEv @1204
    _ZNK7omnetpp23cGenericAssignableWatchIdE3strB5cxx11Ev @1205
    _ZNK7omnetpp23cGenericAssignableWatchIiE12getClassNameEv @1206
    _ZNK7omnetpp23cGenericAssignableWatchIiE18supportsAssignmentEv @1207
    _ZNK7omnetpp23cGenericAssignableWatchIiE3strB5cxx11Ev @1208
    _ZNK7omnetpp23cGenericAssignableWatchIlE12getClassNameEv @1209
    _ZNK7omnetpp23cGenericAssignableWatchIlE18supportsAssignmentEv @1210
    _ZNK7omnetpp23cGenericAssignableWatchIlE3strB5cxx11Ev @1211
    _ZNK7omnetpp23cNoncopyableOwnedObject10parsimPackEPNS_11cCommBufferE @1212
    _ZNK7omnetpp7cModule13isPlaceholderEv @1213
    _ZNK7omnetpp7cModule15getParentModuleEv @1214
    _ZNK7omnetpp7cModule16getComponentKindEv @1215
    _ZNK7omnetpp7cModule27getBuiltinAnimationsAllowedEv @1216
    _ZNK7omnetpp7cObject11getFullNameEv @1217
    _ZNK7omnetpp7cObject11isSoftOwnerEv @1218
    _ZNK7omnetpp7cObject13isOwnedObjectEv @1219
    _ZNK7omnetpp7cObject7getNameEv @1220
    _ZNK7omnetpp7cObject8getOwnerEv @1221
    _ZNSt10_HashtableIPPvS1_SaIS1_ENSt8__detail9_IdentityESt8equal_toIS1_ESt4hashIS1_ENS3_18_Mod_range_hashingENS3_20_Default_ranged_hashENS3_20_Prime_rehash_policyENS3_17_Hashtable_traitsILb0ELb1ELb1EEEE13_M_rehash_auxEySt17integral_constantIbLb1EE @1222
    _ZNSt10_HashtableIPPvS1_SaIS1_ENSt8__detail9_IdentityESt8equal_toIS1_ESt4hashIS1_ENS3_18_Mod_range_hashingENS3_20_Default_ranged_hashENS3_20_Prime_rehash_policyENS3_17_Hashtable_traitsILb0ELb1ELb1EEEE16_M_insert_uniqueIS1_S1_NS3_10_AllocNodeISaINS3_10_Hash_nodeIS1_Lb0EEEEEEEESt4pairINS3_14_Node_iteratorIS1_Lb1ELb0EEEbEOT_OT0_RKT1_ @1223
    _ZNSt10_HashtableIPPvS1_SaIS1_ENSt8__detail9_IdentityESt8equal_toIS1_ESt4hashIS1_ENS3_18_Mod_range_hashingENS3_20_Default_ranged_hashENS3_20_Prime_rehash_policyENS3_17_Hashtable_traitsILb0ELb1ELb1EEEE21_M_insert_unique_nodeEyyPNS3_10_Hash_nodeIS1_Lb0EEEy @1224
    _ZNSt10_HashtableIPPvS1_SaIS1_ENSt8__detail9_IdentityESt8equal_toIS1_ESt4hashIS1_ENS3_18_Mod_range_hashingENS3_20_Default_ranged_hashENS3_20_Prime_rehash_policyENS3_17_Hashtable_traitsILb0ELb1ELb1EEEE8_M_eraseESt17integral_constantIbLb1EERKS1_ @1225
    _ZNSt3mapIPKN4inet13physicallayer6IRadioEPN5flora17LoRaNeighborCache10RadioEntryESt4lessIS4_ESaISt4pairIKS4_S8_EEED2Ev @1226
    _ZNSt3mapIiiSt4lessIiESaISt4pairIKiiEEED2Ev @1227
    _ZNSt6vectorIN4inet9L3AddressESaIS1_EE17_M_realloc_insertIJRKS1_EEEvN9__gnu_cxx17__normal_iteratorIPS1_S3_EEDpOT_ @1228
    _ZNSt6vectorIN5flora14receivedPacketESaIS1_EE17_M_realloc_insertIJRKS1_EEEvN9__gnu_cxx17__normal_iteratorIPS1_S3_EEDpOT_ @1229
    _ZNSt6vectorIN5flora14receivedPacketESaIS1_EED2Ev @1230
    _ZNSt6vectorIN5flora9knownNodeESaIS1_EE17_M_realloc_insertIJRKS1_EEEvN9__gnu_cxx17__normal_iteratorIPS1_S3_EEDpOT_ @1231
    _ZNSt6vectorIN5flora9knownNodeESaIS1_EE9push_backERKS1_ @1232
    _ZNSt6vectorIN5flora9knownNodeESaIS1_EED2Ev @1233
    _ZNSt6vectorIPN5flora17LoRaNeighborCache10RadioEntryESaIS3_EED2Ev @1234
    _ZNSt6vectorISt5tupleIJN4inet9L3AddressEddEESaIS3_EE17_M_realloc_insertIJRKS2_ddEEEvN9__gnu_cxx17__normal_iteratorIPS3_S5_EEDpOT_ @1235
    _ZNSt7__cxx114listIPN7omnetpp8cMessageESaIS3_EE6removeERKS3_ @1236
    _ZNSt8_Rb_treeIPKN4inet13physicallayer6IRadioESt4pairIKS4_PN5flora17LoRaNeighborCache10RadioEntryEESt10_Select1stISB_ESt4lessIS4_ESaISB_EE22_M_emplace_hint_uniqueIJRKSt21piecewise_construct_tSt5tupleIJRS6_EESM_IJEEEEESt17_Rb_tree_iteratorISB_ESt23_Rb_tree_const_iteratorISB_EDpOT_ @1237
    _ZNSt8_Rb_treeIPKN4inet13physicallayer6IRadioESt4pairIKS4_PN5flora17LoRaNeighborCache10RadioEntryEESt10_Select1stISB_ESt4lessIS4_ESaISB_EE29_M_get_insert_hint_unique_posESt23_Rb_tree_const_iteratorISB_ERS6_ @1238
    _ZNSt8_Rb_treeIPKN4inet13physicallayer6IRadioESt4pairIKS4_PN5flora17LoRaNeighborCache10RadioEntryEESt10_Select1stISB_ESt4lessIS4_ESaISB_EE8_M_eraseEPSt13_Rb_tree_nodeISB_E @1239
    _ZNSt8_Rb_treeIdSt4pairIKddESt10_Select1stIS2_ESt4lessIdESaIS2_EE22_M_emplace_hint_uniqueIJRKSt21piecewise_construct_tSt5tupleIJOdEESD_IJEEEEESt17_Rb_tree_iteratorIS2_ESt23_Rb_tree_const_iteratorIS2_EDpOT_ @1240
    _ZNSt8_Rb_treeIdSt4pairIKddESt10_Select1stIS2_ESt4lessIdESaIS2_EE29_M_get_insert_hint_unique_posESt23_Rb_tree_const_iteratorIS2_ERS1_ @1241
    _ZNSt8_Rb_treeIdSt4pairIKddESt10_Select1stIS2_ESt4lessIdESaIS2_EE8_M_eraseEPSt13_Rb_tree_nodeIS2_E @1242
    _ZNSt8_Rb_treeIiSt4pairIKiiESt10_Select1stIS2_ESt4lessIiESaIS2_EE22_M_emplace_hint_uniqueIJRKSt21piecewise_construct_tSt5tupleIJOiEESD_IJEEEEESt17_Rb_tree_iteratorIS2_ESt23_Rb_tree_const_iteratorIS2_EDpOT_ @1243
    _ZNSt8_Rb_treeIiSt4pairIKiiESt10_Select1stIS2_ESt4lessIiESaIS2_EE29_M_get_insert_hint_unique_posESt23_Rb_tree_const_iteratorIS2_ERS1_ @1244
    _ZNSt8_Rb_treeIiSt4pairIKiiESt10_Select1stIS2_ESt4lessIiESaIS2_EE8_M_eraseEPSt13_Rb_tree_nodeIS2_E @1245
    _ZSt16__do_uninit_copyIPKN5flora9knownNodeEPS1_ET0_T_S6_S5_ @1246
    _ZSt8_DestroyIPN5flora9knownNodeEEvT_S3_ @1247
    _ZTCN5flora11LoRaGWRadioE0_N4inet13physicallayer13FlatRadioBaseE @1248 DATA
    _ZTCN5flora11LoRaGWRadioE0_N4inet13physicallayer19NarrowbandRadioBaseE @1249 DATA
    _ZTCN5flora11LoRaGWRadioE0_N4inet13physicallayer5RadioE @1250 DATA
    _ZTCN5flora12LoRaReceiverE0_N4inet13physicallayer12ReceiverBaseE @1251 DATA
    _ZTCN5flora12LoRaReceiverE0_N4inet13physicallayer16FlatReceiverBaseE @1252 DATA
    _ZTCN5flora12LoRaReceiverE0_N4inet13physicallayer16SnirReceiverBaseE @1253 DATA
    _ZTCN5flora12LoRaReceiverE0_N4inet13physicallayer22NarrowbandReceiverBaseE @1254 DATA
    _ZTCN5flora13LoRaReceptionE0_N4inet13physicallayer13ReceptionBaseE @1255 DATA
    _ZTCN5flora13LoRaReceptionE0_N4inet13physicallayer15ScalarReceptionE @1256 DATA
    _ZTCN5flora13LoRaReceptionE0_N4inet13physicallayer17FlatReceptionBaseE @1257 DATA
    _ZTCN5flora13LoRaReceptionE0_N4inet13physicallayer23NarrowbandReceptionBaseE @1258 DATA
    _ZTCN5flora13LoRaReceptionE248_N4inet13physicallayer21IReceptionAnalogModelE @1259 DATA
    _ZTCN5flora15LoRaAnalogModelE0_N4inet13physicallayer15AnalogModelBaseE @1260 DATA
    _ZTCN5flora15LoRaAnalogModelE0_N4inet13physicallayer21ScalarAnalogModelBaseE @1261 DATA
    _ZTCN5flora15LoRaTransmitterE0_N4inet13physicallayer15TransmitterBaseE @1262 DATA
    _ZTCN5flora15LoRaTransmitterE0_N4inet13physicallayer19FlatTransmitterBaseE @1263 DATA
    _ZTCN5flora15LoRaTransmitterE0_N4inet13physicallayer25NarrowbandTransmitterBaseE @1264 DATA
    _ZTCN5flora16LoRaTransmissionE0_N4inet13physicallayer16TransmissionBaseE @1265 DATA
    _ZTCN5flora16LoRaTransmissionE248_N4inet13physicallayer24ITransmissionAnalogModelE @1266 DATA
    _ZTCN5flora18LoRaEnergyConsumerE0_N4inet13physicallayer26StateBasedEpEnergyConsumerE @1267 DATA
    _ZTCN5flora18LoRaEnergyConsumerE216_N4inet5power17IEpEnergyConsumerE @1268 DATA
    _ZTCN5flora9LoRaRadioE0_N4inet13physicallayer19NarrowbandRadioBaseE @1269 DATA
    _ZTCN5flora9LoRaRadioE0_N4inet13physicallayer5RadioE @1270 DATA
    _ZTIN4inet10ILifecycleE @1271 DATA
    _ZTIN4inet10MacAddressE @1272 DATA
    _ZTIN4inet10NodeStatusE @1273 DATA
    _ZTIN4inet11FieldsChunkE @1274 DATA
    _ZTIN4inet12ErrorRateIndE @1275 DATA
    _ZTIN4inet12IMacProtocolE @1276 DATA
    _ZTIN4inet12InterfaceIndE @1277 DATA
    _ZTIN4inet12IntervalTree8IntervalE @1278 DATA
    _ZTIN4inet12MobilityBaseE @1279 DATA
    _ZTIN4inet12StringFormat18IDirectiveResolverE @1280 DATA
    _ZTIN4inet13ITaggedObjectE @1281 DATA
    _ZTIN4inet13MacAddressIndE @1282 DATA
    _ZTIN4inet13MacAddressReqE @1283 DATA
    _ZTIN4inet13SignalTagBaseE @1284 DATA
    _ZTIN4inet13SignalTimeIndE @1285 DATA
    _ZTIN4inet13physicallayer10IListeningE @1286 DATA
    _ZTIN4inet13physicallayer10IReceptionE @1287 DATA
    _ZTIN4inet13physicallayer11IErrorModelE @1288 DATA
    _ZTIN4inet13physicallayer11IModulationE @1289 DATA
    _ZTIN4inet13physicallayer11RadioMediumE @1290 DATA
    _ZTIN4inet13physicallayer11ScalarNoiseE @1291 DATA
    _ZTIN4inet13physicallayer12IAnalogModelE @1292 DATA
    _ZTIN4inet13physicallayer12IRadioMediumE @1293 DATA
    _ZTIN4inet13physicallayer12ITransmitterE @1294 DATA
    _ZTIN4inet13physicallayer12PathLossBaseE @1295 DATA
    _ZTIN4inet13physicallayer12ReceiverBaseE @1296 DATA
    _ZTIN4inet13physicallayer13BandListeningE @1297 DATA
    _ZTIN4inet13physicallayer13FlatRadioBaseE @1298 DATA
    _ZTIN4inet13physicallayer13IScalarSignalE @1299 DATA
    _ZTIN4inet13physicallayer13ITransmissionE @1300 DATA
    _ZTIN4inet13physicallayer13ListeningBaseE @1301 DATA
    _ZTIN4inet13physicallayer13ReceptionBaseE @1302 DATA
    _ZTIN4inet13physicallayer14INeighborCacheE @1303 DATA
    _ZTIN4inet13physicallayer14WirelessSignalE @1304 DATA
    _ZTIN4inet13physicallayer15AnalogModelBaseE @1305 DATA
    _ZTIN4inet13physicallayer15IApskModulationE @1306 DATA
    _ZTIN4inet13physicallayer15IWirelessSignalE @1307 DATA
    _ZTIN4inet13physicallayer15ScalarReceptionE @1308 DATA
    _ZTIN4inet13physicallayer15TransmitterBaseE @1309 DATA
    _ZTIN4inet13physicallayer16FlatReceiverBaseE @1310 DATA
    _ZTIN4inet13physicallayer16SnirReceiverBaseE @1311 DATA
    _ZTIN4inet13physicallayer16TransmissionBaseE @1312 DATA
    _ZTIN4inet13physicallayer17FlatReceptionBaseE @1313 DATA
    _ZTIN4inet13physicallayer17FreeSpacePathLossE @1314 DATA
    _ZTIN4inet13physicallayer17IMediumLimitCacheE @1315 DATA
    _ZTIN4inet13physicallayer17INarrowbandSignalE @1316 DATA
    _ZTIN4inet13physicallayer17PhysicalLayerBaseE @1317 DATA
    _ZTIN4inet13physicallayer18ApskModulationBaseE @1318 DATA
    _ZTIN4inet13physicallayer18ISignalAnalogModelE @1319 DATA
    _ZTIN4inet13physicallayer19FlatTransmitterBaseE @1320 DATA
    _ZTIN4inet13physicallayer19NarrowbandNoiseBaseE @1321 DATA
    _ZTIN4inet13physicallayer19NarrowbandRadioBaseE @1322 DATA
    _ZTIN4inet13physicallayer21ConfigureRadioCommandE @1323 DATA
    _ZTIN4inet13physicallayer21IReceptionAnalogModelE @1324 DATA
    _ZTIN4inet13physicallayer21ScalarAnalogModelBaseE @1325 DATA
    _ZTIN4inet13physicallayer22NarrowbandReceiverBaseE @1326 DATA
    _ZTIN4inet13physicallayer23NarrowbandReceptionBaseE @1327 DATA
    _ZTIN4inet13physicallayer24ITransmissionAnalogModelE @1328 DATA
    _ZTIN4inet13physicallayer25NarrowbandTransmitterBaseE @1329 DATA
    _ZTIN4inet13physicallayer26StateBasedEpEnergyConsumerE @1330 DATA
    _ZTIN4inet13physicallayer5RadioE @1331 DATA
    _ZTIN4inet13physicallayer6INoiseE @1332 DATA
    _ZTIN4inet13physicallayer6IRadioE @1333 DATA
    _ZTIN4inet13physicallayer6SignalE @1334 DATA
    _ZTIN4inet13physicallayer9IPathLossE @1335 DATA
    _ZTIN4inet13physicallayer9IReceiverE @1336 DATA
    _ZTIN4inet13physicallayer9NoiseBaseE @1337 DATA
    _ZTIN4inet14IPhysicalLayerE @1338 DATA
    _ZTIN4inet14SignalPowerIndE @1339 DATA
    _ZTIN4inet14SignalPowerReqE @1340 DATA
    _ZTIN4inet15IInterfaceTableE @1341 DATA
    _ZTIN4inet15MacProtocolBaseE @1342 DATA
    _ZTIN4inet15OperationalBaseE @1343 DATA
    _ZTIN4inet15ProtocolTagBaseE @1344 DATA
    _ZTIN4inet16IPrintableObjectE @1345 DATA
    _ZTIN4inet16InterfaceTagBaseE @1346 DATA
    _ZTIN4inet16NetworkInterfaceE @1347 DATA
    _ZTIN4inet16OperationalMixinIN7omnetpp13cSimpleModuleEEE @1348 DATA
    _ZTIN4inet17MacAddressTagBaseE @1349 DATA
    _ZTIN4inet17PacketProtocolTagE @1350 DATA
    _ZTIN4inet18SignalPowerTagBaseE @1351 DATA
    _ZTIN4inet18StationaryMobilityE @1352 DATA
    _ZTIN4inet19IPhysicalLayerFrameE @1353 DATA
    _ZTIN4inet19IRegionTaggedObjectE @1354 DATA
    _ZTIN4inet19IntrusivePtrCounterINS_5ChunkEEE @1355 DATA
    _ZTIN4inet19IntrusivePtrCounterINS_7TagBaseEEE @1356 DATA
    _ZTIN4inet19LayeredProtocolBaseE @1357 DATA
    _ZTIN4inet22StationaryMobilityBaseE @1358 DATA
    _ZTIN4inet5ChunkE @1359 DATA
    _ZTIN4inet5CoordE @1360 DATA
    _ZTIN4inet5power13IEnergySourceE @1361 DATA
    _ZTIN4inet5power15IEnergyConsumerE @1362 DATA
    _ZTIN4inet5power15IEpEnergySourceE @1363 DATA
    _ZTIN4inet5power17IEpEnergyConsumerE @1364 DATA
    _ZTIN4inet5units5valueIdNS0_5units1mEEE @1365 DATA
    _ZTIN4inet5units5valueIdNS0_7composeINS0_5units1mENS0_3powINS3_1sELin1ELi1EEEEEEE @1366 DATA
    _ZTIN4inet5units5valueIdNS0_7composeINS2_INS2_INS0_5units1mENS2_INS3_2kgENS0_3powINS3_1sELin2ELi1EEEEEEES4_EENS6_IS7_Lin1ELi1EEEEEEE @1367 DATA
    _ZTIN4inet6PacketE @1368 DATA
    _ZTIN4inet7SnirIndE @1369 DATA
    _ZTIN4inet7TagBaseE @1370 DATA
    _ZTIN4inet8queueing12IPacketQueueE @1371 DATA
    _ZTIN4inet8queueing16IPacketProcessorE @1372 DATA
    _ZTIN4inet8queueing17IActivePacketSinkE @1373 DATA
    _ZTIN4inet8queueing17IPacketCollectionE @1374 DATA
    _ZTIN4inet8queueing18IPassivePacketSinkE @1375 DATA
    _ZTIN4inet8queueing19PacketProcessorBaseE @1376 DATA
    _ZTIN4inet8queueing20IPassivePacketSourceE @1377 DATA
    _ZTIN4inet9IMobilityE @1378 DATA
    _ZTIN5flora10LoRaMediumE @1379 DATA
    _ZTIN5flora11LoRaGWRadioE @1380 DATA
    _ZTIN5flora11LoRaOptionsE @1381 DATA
    _ZTIN5flora12LoRaMacFrameE @1382 DATA
    _ZTIN5flora12LoRaReceiverE @1383 DATA
    _ZTIN5flora13AppPacketTypeE @1384 DATA
    _ZTIN5flora13LoRaAppPacketE @1385 DATA
    _ZTIN5flora13LoRaReceptionE @1386 DATA
    _ZTIN5flora13SimpleLoRaAppE @1387 DATA
    _ZTIN5flora14LoRaModulationE @1388 DATA
    _ZTIN5flora15LoRaAnalogModelE @1389 DATA
    _ZTIN5flora15LoRaHataOkumuraE @1390 DATA
    _ZTIN5flora15LoRaMediumCacheE @1391 DATA
    _ZTIN5flora15LoRaPhyPreambleE @1392 DATA
    _ZTIN5flora15LoRaTransmitterE @1393 DATA
    _ZTIN5flora15PacketForwarderE @1394 DATA
    _ZTIN5flora16LoRaPathLossOuluE @1395 DATA
    _ZTIN5flora16LoRaTransmissionE @1396 DATA
    _ZTIN5flora16NetworkServerAppE @1397 DATA
    _ZTIN5flora17LoRaBandListeningE @1398 DATA
    _ZTIN5flora17LoRaNeighborCacheE @1399 DATA
    _ZTIN5flora17LoRaTagDescriptorE @1400 DATA
    _ZTIN5flora18LoRaEnergyConsumerE @1401 DATA
    _ZTIN5flora18LoRaMacControlInfoE @1402 DATA
    _ZTIN5flora20LoRaRadioCommandCodeE @1403 DATA
    _ZTIN5flora20MobileGatewayLoRaAppE @1404 DATA
    _ZTIN5flora21LoRaOptionsDescriptorE @1405 DATA
    _ZTIN5flora22LoRaLogNormalShadowingE @1406 DATA
    _ZTIN5flora22LoRaMacFrameDescriptorE @1407 DATA
    _ZTIN5flora23LoRaAppPacketDescriptorE @1408 DATA
    _ZTIN5flora23LoRaReceptionIndicationE @1409 DATA
    _ZTIN5flora23LoRaTransmissionRequestE @1410 DATA
    _ZTIN5flora25LoRaConfigureRadioCommandE @1411 DATA
    _ZTIN5flora25LoRaPhyPreambleDescriptorE @1412 DATA
    _ZTIN5flora28LoRaMacControlInfoDescriptorE @1413 DATA
    _ZTIN5flora33LoRaReceptionIndicationDescriptorE @1414 DATA
    _ZTIN5flora33LoRaTransmissionRequestDescriptorE @1415 DATA
    _ZTIN5flora35LoRaConfigureRadioCommandDescriptorE @1416 DATA
    _ZTIN5flora7LoRaMacE @1417 DATA
    _ZTIN5flora7LoRaTagE @1418 DATA
    _ZTIN5flora9LoRaGWMacE @1419 DATA
    _ZTIN5flora9LoRaRadioE @1420 DATA
    _ZTIN7omnetpp10cComponentE @1421 DATA
    _ZTIN7omnetpp10cExceptionE @1422 DATA
    _ZTIN7omnetpp10cIListenerE @1423 DATA
    _ZTIN7omnetpp10cSoftOwnerE @1424 DATA
    _ZTIN7omnetpp10cWatchBaseE @1425 DATA
    _ZTIN7omnetpp11noncopyableE @1426 DATA
    _ZTIN7omnetpp12cNamedObjectE @1427 DATA
    _ZTIN7omnetpp12cOwnedObjectE @1428 DATA
    _ZTIN7omnetpp13cRuntimeErrorE @1429 DATA
    _ZTIN7omnetpp13cSimpleModuleE @1430 DATA
    _ZTIN7omnetpp16cClassDescriptorE @1431 DATA
    _ZTIN7omnetpp21cGenericReadonlyWatchIN4inet5CoordEEE @1432 DATA
    _ZTIN7omnetpp21cGenericReadonlyWatchIN4inet5units5valueIdNS2_5units1mEEEEE @1433 DATA
    _ZTIN7omnetpp21cGenericReadonlyWatchIN4inet5units5valueIdNS2_7composeINS2_5units1mENS2_3powINS5_1sELin1ELi1EEEEEEEEE @1434 DATA
    _ZTIN7omnetpp21cGenericReadonlyWatchIN4inet5units5valueIdNS2_7composeINS4_INS4_INS2_5units1mENS4_INS5_2kgENS2_3powINS5_1sELin2ELi1EEEEEEES6_EENS8_IS9_Lin1ELi1EEEEEEEEE @1435 DATA
    _ZTIN7omnetpp21cGenericReadonlyWatchINS_4cFSMEEE @1436 DATA
    _ZTIN7omnetpp21cGenericReadonlyWatchINS_7SimTimeEEE @1437 DATA
    _ZTIN7omnetpp23cGenericAssignableWatchIdEE @1438 DATA
    _ZTIN7omnetpp23cGenericAssignableWatchIiEE @1439 DATA
    _ZTIN7omnetpp23cGenericAssignableWatchIlEE @1440 DATA
    _ZTIN7omnetpp23cNoncopyableOwnedObjectE @1441 DATA
    _ZTIN7omnetpp4cFSME @1442 DATA
    _ZTIN7omnetpp6cEventE @1443 DATA
    _ZTIN7omnetpp7SimTimeE @1444 DATA
    _ZTIN7omnetpp7cModuleE @1445 DATA
    _ZTIN7omnetpp7cObjectE @1446 DATA
    _ZTIN7omnetpp7cPacketE @1447 DATA
    _ZTIN7omnetpp8cMessageE @1448 DATA
    _ZTIN7omnetpp9cListenerE @1449 DATA
    _ZTIPKN4inet13physicallayer11ScalarNoiseE @1450 DATA
    _ZTIPKN4inet13physicallayer13IScalarSignalE @1451 DATA
    _ZTIPKN4inet13physicallayer17INarrowbandSignalE @1452 DATA
    _ZTIPKN5flora13LoRaReceptionE @1453 DATA
    _ZTIPKN5flora16LoRaTransmissionE @1454 DATA
    _ZTIPKN5flora17LoRaBandListeningE @1455 DATA
    _ZTIPKN7omnetpp7cModuleE @1456 DATA
    _ZTIPKN7omnetpp7cObjectE @1457 DATA
    _ZTIPN4inet10MacAddressE @1458 DATA
    _ZTIPN4inet13physicallayer11RadioMediumE @1459 DATA
    _ZTIPN4inet13physicallayer14WirelessSignalE @1460 DATA
    _ZTIPN4inet13physicallayer21ConfigureRadioCommandE @1461 DATA
    _ZTIPN4inet13physicallayer6IRadioE @1462 DATA
    _ZTIPN4inet15IInterfaceTableE @1463 DATA
    _ZTIPN4inet18StationaryMobilityE @1464 DATA
    _ZTIPN4inet6PacketE @1465 DATA
    _ZTIPN5flora10LoRaMediumE @1466 DATA
    _ZTIPN5flora11LoRaOptionsE @1467 DATA
    _ZTIPN5flora12LoRaMacFrameE @1468 DATA
    _ZTIPN5flora13LoRaAppPacketE @1469 DATA
    _ZTIPN5flora15LoRaPhyPreambleE @1470 DATA
    _ZTIPN5flora18LoRaMacControlInfoE @1471 DATA
    _ZTIPN5flora22LoRaLogNormalShadowingE @1472 DATA
    _ZTIPN5flora23LoRaReceptionIndicationE @1473 DATA
    _ZTIPN5flora23LoRaTransmissionRequestE @1474 DATA
    _ZTIPN5flora25LoRaConfigureRadioCommandE @1475 DATA
    _ZTIPN5flora7LoRaMacE @1476 DATA
    _ZTIPN5flora7LoRaTagE @1477 DATA
    _ZTIPN5flora9LoRaGWMacE @1478 DATA
    _ZTIPN5flora9LoRaRadioE @1479 DATA
    _ZTIPN7omnetpp7cObjectE @1480 DATA
    _ZTSN4inet10ILifecycleE @1481 DATA
    _ZTSN4inet10MacAddressE @1482 DATA
    _ZTSN4inet10NodeStatusE @1483 DATA
    _ZTSN4inet11FieldsChunkE @1484 DATA
    _ZTSN4inet12ErrorRateIndE @1485 DATA
    _ZTSN4inet12IMacProtocolE @1486 DATA
    _ZTSN4inet12InterfaceIndE @1487 DATA
    _ZTSN4inet12IntervalTree8IntervalE @1488 DATA
    _ZTSN4inet12MobilityBaseE @1489 DATA
    _ZTSN4inet12StringFormat18IDirectiveResolverE @1490 DATA
    _ZTSN4inet13ITaggedObjectE @1491 DATA
    _ZTSN4inet13MacAddressIndE @1492 DATA
    _ZTSN4inet13MacAddressReqE @1493 DATA
    _ZTSN4inet13SignalTagBaseE @1494 DATA
    _ZTSN4inet13SignalTimeIndE @1495 DATA
    _ZTSN4inet13physicallayer10IListeningE @1496 DATA
    _ZTSN4inet13physicallayer10IReceptionE @1497 DATA
    _ZTSN4inet13physicallayer11IErrorModelE @1498 DATA
    _ZTSN4inet13physicallayer11IModulationE @1499 DATA
    _ZTSN4inet13physicallayer11RadioMediumE @1500 DATA
    _ZTSN4inet13physicallayer11ScalarNoiseE @1501 DATA
    _ZTSN4inet13physicallayer12IAnalogModelE @1502 DATA
    _ZTSN4inet13physicallayer12IRadioMediumE @1503 DATA
    _ZTSN4inet13physicallayer12ITransmitterE @1504 DATA
    _ZTSN4inet13physicallayer12PathLossBaseE @1505 DATA
    _ZTSN4inet13physicallayer12ReceiverBaseE @1506 DATA
    _ZTSN4inet13physicallayer13BandListeningE @1507 DATA
    _ZTSN4inet13physicallayer13FlatRadioBaseE @1508 DATA
    _ZTSN4inet13physicallayer13IScalarSignalE @1509 DATA
    _ZTSN4inet13physicallayer13ITransmissionE @1510 DATA
    _ZTSN4inet13physicallayer13ListeningBaseE @1511 DATA
    _ZTSN4inet13physicallayer13ReceptionBaseE @1512 DATA
    _ZTSN4inet13physicallayer14INeighborCacheE @1513 DATA
    _ZTSN4inet13physicallayer14WirelessSignalE @1514 DATA
    _ZTSN4inet13physicallayer15AnalogModelBaseE @1515 DATA
    _ZTSN4inet13physicallayer15IApskModulationE @1516 DATA
    _ZTSN4inet13physicallayer15IWirelessSignalE @1517 DATA
    _ZTSN4inet13physicallayer15ScalarReceptionE @1518 DATA
    _ZTSN4inet13physicallayer15TransmitterBaseE @1519 DATA
    _ZTSN4inet13physicallayer16FlatReceiverBaseE @1520 DATA
    _ZTSN4inet13physicallayer16SnirReceiverBaseE @1521 DATA
    _ZTSN4inet13physicallayer16TransmissionBaseE @1522 DATA
    _ZTSN4inet13physicallayer17FlatReceptionBaseE @1523 DATA
    _ZTSN4inet13physicallayer17FreeSpacePathLossE @1524 DATA
    _ZTSN4inet13physicallayer17IMediumLimitCacheE @1525 DATA
    _ZTSN4inet13physicallayer17INarrowbandSignalE @1526 DATA
    _ZTSN4inet13physicallayer17PhysicalLayerBaseE @1527 DATA
    _ZTSN4inet13physicallayer18ApskModulationBaseE @1528 DATA
    _ZTSN4inet13physicallayer18ISignalAnalogModelE @1529 DATA
    _ZTSN4inet13physicallayer19FlatTransmitterBaseE @1530 DATA
    _ZTSN4inet13physicallayer19NarrowbandNoiseBaseE @1531 DATA
    _ZTSN4inet13physicallayer19NarrowbandRadioBaseE @1532 DATA
    _ZTSN4inet13physicallayer21ConfigureRadioCommandE @1533 DATA
    _ZTSN4inet13physicallayer21IReceptionAnalogModelE @1534 DATA
    _ZTSN4inet13physicallayer21ScalarAnalogModelBaseE @1535 DATA
    _ZTSN4inet13physicallayer22NarrowbandReceiverBaseE @1536 DATA
    _ZTSN4inet13physicallayer23NarrowbandReceptionBaseE @1537 DATA
    _ZTSN4inet13physicallayer24ITransmissionAnalogModelE @1538 DATA
    _ZTSN4inet13physicallayer25NarrowbandTransmitterBaseE @1539 DATA
    _ZTSN4inet13physicallayer26StateBasedEpEnergyConsumerE @1540 DATA
    _ZTSN4inet13physicallayer5RadioE @1541 DATA
    _ZTSN4inet13physicallayer6INoiseE @1542 DATA
    _ZTSN4inet13physicallayer6IRadioE @1543 DATA
    _ZTSN4inet13physicallayer6SignalE @1544 DATA
    _ZTSN4inet13physicallayer9IPathLossE @1545 DATA
    _ZTSN4inet13physicallayer9IReceiverE @1546 DATA
    _ZTSN4inet13physicallayer9NoiseBaseE @1547 DATA
    _ZTSN4inet14IPhysicalLayerE @1548 DATA
    _ZTSN4inet14SignalPowerIndE @1549 DATA
    _ZTSN4inet14SignalPowerReqE @1550 DATA
    _ZTSN4inet15IInterfaceTableE @1551 DATA
    _ZTSN4inet15MacProtocolBaseE @1552 DATA
    _ZTSN4inet15OperationalBaseE @1553 DATA
    _ZTSN4inet15ProtocolTagBaseE @1554 DATA
    _ZTSN4inet16IPrintableObjectE @1555 DATA
    _ZTSN4inet16InterfaceTagBaseE @1556 DATA
    _ZTSN4inet16NetworkInterfaceE @1557 DATA
    _ZTSN4inet16OperationalMixinIN7omnetpp13cSimpleModuleEEE @1558 DATA
    _ZTSN4inet17MacAddressTagBaseE @1559 DATA
    _ZTSN4inet17PacketProtocolTagE @1560 DATA
    _ZTSN4inet18SignalPowerTagBaseE @1561 DATA
    _ZTSN4inet18StationaryMobilityE @1562 DATA
    _ZTSN4inet19IPhysicalLayerFrameE @1563 DATA
    _ZTSN4inet19IRegionTaggedObjectE @1564 DATA
    _ZTSN4inet19IntrusivePtrCounterINS_5ChunkEEE @1565 DATA
    _ZTSN4inet19IntrusivePtrCounterINS_7TagBaseEEE @1566 DATA
    _ZTSN4inet19LayeredProtocolBaseE @1567 DATA
    _ZTSN4inet22StationaryMobilityBaseE @1568 DATA
    _ZTSN4inet5ChunkE @1569 DATA
    _ZTSN4inet5CoordE @1570 DATA
    _ZTSN4inet5power13IEnergySourceE @1571 DATA
    _ZTSN4inet5power15IEnergyConsumerE @1572 DATA
    _ZTSN4inet5power15IEpEnergySourceE @1573 DATA
    _ZTSN4inet5power17IEpEnergyConsumerE @1574 DATA
    _ZTSN4inet5units5valueIdNS0_5units1mEEE @1575 DATA
    _ZTSN4inet5units5valueIdNS0_7composeINS0_5units1mENS0_3powINS3_1sELin1ELi1EEEEEEE @1576 DATA
    _ZTSN4inet5units5valueIdNS0_7composeINS2_INS2_INS0_5units1mENS2_INS3_2kgENS0_3powINS3_1sELin2ELi1EEEEEEES4_EENS6_IS7_Lin1ELi1EEEEEEE @1577 DATA
    _ZTSN4inet6PacketE @1578 DATA
    _ZTSN4inet7SnirIndE @1579 DATA
    _ZTSN4inet7TagBaseE @1580 DATA
    _ZTSN4inet8queueing12IPacketQueueE @1581 DATA
    _ZTSN4inet8queueing16IPacketProcessorE @1582 DATA
    _ZTSN4inet8queueing17IActivePacketSinkE @1583 DATA
    _ZTSN4inet8queueing17IPacketCollectionE @1584 DATA
    _ZTSN4inet8queueing18IPassivePacketSinkE @1585 DATA
    _ZTSN4inet8queueing19PacketProcessorBaseE @1586 DATA
    _ZTSN4inet8queueing20IPassivePacketSourceE @1587 DATA
    _ZTSN4inet9IMobilityE @1588 DATA
    _ZTSN5flora10LoRaMediumE @1589 DATA
    _ZTSN5flora11LoRaGWRadioE @1590 DATA
    _ZTSN5flora11LoRaOptionsE @1591 DATA
    _ZTSN5flora12LoRaMacFrameE @1592 DATA
    _ZTSN5flora12LoRaReceiverE @1593 DATA
    _ZTSN5flora13AppPacketTypeE @1594 DATA
    _ZTSN5flora13LoRaAppPacketE @1595 DATA
    _ZTSN5flora13LoRaReceptionE @1596 DATA
    _ZTSN5flora13SimpleLoRaAppE @1597 DATA
    _ZTSN5flora14LoRaModulationE @1598 DATA
    _ZTSN5flora15LoRaAnalogModelE @1599 DATA
    _ZTSN5flora15LoRaHataOkumuraE @1600 DATA
    _ZTSN5flora15LoRaMediumCacheE @1601 DATA
    _ZTSN5flora15LoRaPhyPreambleE @1602 DATA
    _ZTSN5flora15LoRaTransmitterE @1603 DATA
    _ZTSN5flora15PacketForwarderE @1604 DATA
    _ZTSN5flora16LoRaPathLossOuluE @1605 DATA
    _ZTSN5flora16LoRaTransmissionE @1606 DATA
    _ZTSN5flora16NetworkServerAppE @1607 DATA
    _ZTSN5flora17LoRaBandListeningE @1608 DATA
    _ZTSN5flora17LoRaNeighborCacheE @1609 DATA
    _ZTSN5flora17LoRaTagDescriptorE @1610 DATA
    _ZTSN5flora18LoRaEnergyConsumerE @1611 DATA
    _ZTSN5flora18LoRaMacControlInfoE @1612 DATA
    _ZTSN5flora20LoRaRadioCommandCodeE @1613 DATA
    _ZTSN5flora20MobileGatewayLoRaAppE @1614 DATA
    _ZTSN5flora21LoRaOptionsDescriptorE @1615 DATA
    _ZTSN5flora22LoRaLogNormalShadowingE @1616 DATA
    _ZTSN5flora22LoRaMacFrameDescriptorE @1617 DATA
    _ZTSN5flora23LoRaAppPacketDescriptorE @1618 DATA
    _ZTSN5flora23LoRaReceptionIndicationE @1619 DATA
    _ZTSN5flora23LoRaTransmissionRequestE @1620 DATA
    _ZTSN5flora25LoRaConfigureRadioCommandE @1621 DATA
    _ZTSN5flora25LoRaPhyPreambleDescriptorE @1622 DATA
    _ZTSN5flora28LoRaMacControlInfoDescriptorE @1623 DATA
    _ZTSN5flora33LoRaReceptionIndicationDescriptorE @1624 DATA
    _ZTSN5flora33LoRaTransmissionRequestDescriptorE @1625 DATA
    _ZTSN5flora35LoRaConfigureRadioCommandDescriptorE @1626 DATA
    _ZTSN5flora7LoRaMacE @1627 DATA
    _ZTSN5flora7LoRaTagE @1628 DATA
    _ZTSN5flora9LoRaGWMacE @1629 DATA
    _ZTSN5flora9LoRaRadioE @1630 DATA
    _ZTSN7omnetpp10cComponentE @1631 DATA
    _ZTSN7omnetpp10cExceptionE @1632 DATA
    _ZTSN7omnetpp10cIListenerE @1633 DATA
    _ZTSN7omnetpp10cSoftOwnerE @1634 DATA
    _ZTSN7omnetpp10cWatchBaseE @1635 DATA
    _ZTSN7omnetpp11noncopyableE @1636 DATA
    _ZTSN7omnetpp12cNamedObjectE @1637 DATA
    _ZTSN7omnetpp12cOwnedObjectE @1638 DATA
    _ZTSN7omnetpp13cRuntimeErrorE @1639 DATA
    _ZTSN7omnetpp13cSimpleModuleE @1640 DATA
    _ZTSN7omnetpp16cClassDescriptorE @1641 DATA
    _ZTSN7omnetpp21cGenericReadonlyWatchIN4inet5CoordEEE @1642 DATA
    _ZTSN7omnetpp21cGenericReadonlyWatchIN4inet5units5valueIdNS2_5units1mEEEEE @1643 DATA
    _ZTSN7omnetpp21cGenericReadonlyWatchIN4inet5units5valueIdNS2_7composeINS2_5units1mENS2_3powINS5_1sELin1ELi1EEEEEEEEE @1644 DATA
    _ZTSN7omnetpp21cGenericReadonlyWatchIN4inet5units5valueIdNS2_7composeINS4_INS4_INS2_5units1mENS4_INS5_2kgENS2_3powINS5_1sELin2ELi1EEEEEEES6_EENS8_IS9_Lin1ELi1EEEEEEEEE @1645 DATA
    _ZTSN7omnetpp21cGenericReadonlyWatchINS_4cFSMEEE @1646 DATA
    _ZTSN7omnetpp21cGenericReadonlyWatchINS_7SimTimeEEE @1647 DATA
    _ZTSN7omnetpp23cGenericAssignableWatchIdEE @1648 DATA
    _ZTSN7omnetpp23cGenericAssignableWatchIiEE @1649 DATA
    _ZTSN7omnetpp23cGenericAssignableWatchIlEE @1650 DATA
    _ZTSN7omnetpp23cNoncopyableOwnedObjectE @1651 DATA
    _ZTSN7omnetpp4cFSME @1652 DATA
    _ZTSN7omnetpp6cEventE @1653 DATA
    _ZTSN7omnetpp7SimTimeE @1654 DATA
    _ZTSN7omnetpp7cModuleE @1655 DATA
    _ZTSN7omnetpp7cObjectE @1656 DATA
    _ZTSN7omnetpp7cPacketE @1657 DATA
    _ZTSN7omnetpp8cMessageE @1658 DATA
    _ZTSN7omnetpp9cListenerE @1659 DATA
    _ZTSPKN4inet13physicallayer11ScalarNoiseE @1660 DATA
    _ZTSPKN4inet13physicallayer13IScalarSignalE @1661 DATA
    _ZTSPKN4inet13physicallayer17INarrowbandSignalE @1662 DATA
    _ZTSPKN5flora13LoRaReceptionE @1663 DATA
    _ZTSPKN5flora16LoRaTransmissionE @1664 DATA
    _ZTSPKN5flora17LoRaBandListeningE @1665 DATA
    _ZTSPKN7omnetpp7cModuleE @1666 DATA
    _ZTSPKN7omnetpp7cObjectE @1667 DATA
    _ZTSPN4inet10MacAddressE @1668 DATA
    _ZTSPN4inet13physicallayer11RadioMediumE @1669 DATA
    _ZTSPN4inet13physicallayer14WirelessSignalE @1670 DATA
    _ZTSPN4inet13physicallayer21ConfigureRadioCommandE @1671 DATA
    _ZTSPN4inet13physicallayer6IRadioE @1672 DATA
    _ZTSPN4inet15IInterfaceTableE @1673 DATA
    _ZTSPN4inet18StationaryMobilityE @1674 DATA
    _ZTSPN4inet6PacketE @1675 DATA
    _ZTSPN5flora10LoRaMediumE @1676 DATA
    _ZTSPN5flora11LoRaOptionsE @1677 DATA
    _ZTSPN5flora12LoRaMacFrameE @1678 DATA
    _ZTSPN5flora13LoRaAppPacketE @1679 DATA
    _ZTSPN5flora15LoRaPhyPreambleE @1680 DATA
    _ZTSPN5flora18LoRaMacControlInfoE @1681 DATA
    _ZTSPN5flora22LoRaLogNormalShadowingE @1682 DATA
    _ZTSPN5flora23LoRaReceptionIndicationE @1683 DATA
    _ZTSPN5flora23LoRaTransmissionRequestE @1684 DATA
    _ZTSPN5flora25LoRaConfigureRadioCommandE @1685 DATA
    _ZTSPN5flora7LoRaMacE @1686 DATA
    _ZTSPN5flora7LoRaTagE @1687 DATA
    _ZTSPN5flora9LoRaGWMacE @1688 DATA
    _ZTSPN5flora9LoRaRadioE @1689 DATA
    _ZTSPN7omnetpp7cObjectE @1690 DATA
    _ZTTN5flora11LoRaGWRadioE @1691 DATA
    _ZTTN5flora12LoRaReceiverE @1692 DATA
    _ZTTN5flora13LoRaReceptionE @1693 DATA
    _ZTTN5flora15LoRaAnalogModelE @1694 DATA
    _ZTTN5flora15LoRaTransmitterE @1695 DATA
    _ZTTN5flora16LoRaTransmissionE @1696 DATA
    _ZTTN5flora18LoRaEnergyConsumerE @1697 DATA
    _ZTTN5flora9LoRaRadioE @1698 DATA
    _ZTVN4inet12IntervalTree8IntervalE @1699 DATA
    _ZTVN5flora10LoRaMediumE @1700 DATA
    _ZTVN5flora11LoRaGWRadioE @1701 DATA
    _ZTVN5flora11LoRaOptionsE @1702 DATA
    _ZTVN5flora12LoRaMacFrameE @1703 DATA
    _ZTVN5flora12LoRaReceiverE @1704 DATA
    _ZTVN5flora13LoRaAppPacketE @1705 DATA
    _ZTVN5flora13LoRaReceptionE @1706 DATA
    _ZTVN5flora13SimpleLoRaAppE @1707 DATA
    _ZTVN5flora14LoRaModulationE @1708 DATA
    _ZTVN5flora15LoRaAnalogModelE @1709 DATA
    _ZTVN5flora15LoRaHataOkumuraE @1710 DATA
    _ZTVN5flora15LoRaMediumCacheE @1711 DATA
    _ZTVN5flora15LoRaPhyPreambleE @1712 DATA
    _ZTVN5flora15LoRaTransmitterE @1713 DATA
    _ZTVN5flora15PacketForwarderE @1714 DATA
    _ZTVN5flora16LoRaPathLossOuluE @1715 DATA
    _ZTVN5flora16LoRaTransmissionE @1716 DATA
    _ZTVN5flora16NetworkServerAppE @1717 DATA
    _ZTVN5flora17LoRaBandListeningE @1718 DATA
    _ZTVN5flora17LoRaNeighborCacheE @1719 DATA
    _ZTVN5flora17LoRaTagDescriptorE @1720 DATA
    _ZTVN5flora18LoRaEnergyConsumerE @1721 DATA
    _ZTVN5flora18LoRaMacControlInfoE @1722 DATA
    _ZTVN5flora20MobileGatewayLoRaAppE @1723 DATA
    _ZTVN5flora21LoRaOptionsDescriptorE @1724 DATA
    _ZTVN5flora22LoRaLogNormalShadowingE @1725 DATA
    _ZTVN5flora22LoRaMacFrameDescriptorE @1726 DATA
    _ZTVN5flora23LoRaAppPacketDescriptorE @1727 DATA
    _ZTVN5flora23LoRaReceptionIndicationE @1728 DATA
    _ZTVN5flora23LoRaTransmissionRequestE @1729 DATA
    _ZTVN5flora25LoRaConfigureRadioCommandE @1730 DATA
    _ZTVN5flora25LoRaPhyPreambleDescriptorE @1731 DATA
    _ZTVN5flora28LoRaMacControlInfoDescriptorE @1732 DATA
    _ZTVN5flora33LoRaReceptionIndicationDescriptorE @1733 DATA
    _ZTVN5flora33LoRaTransmissionRequestDescriptorE @1734 DATA
    _ZTVN5flora35LoRaConfigureRadioCommandDescriptorE @1735 DATA
    _ZTVN5flora7LoRaMacE @1736 DATA
    _ZTVN5flora7LoRaTagE @1737 DATA
    _ZTVN5flora9LoRaGWMacE @1738 DATA
    _ZTVN5flora9LoRaRadioE @1739 DATA
    _ZTVN7omnetpp21cGenericReadonlyWatchIN4inet5CoordEEE @1740 DATA
    _ZTVN7omnetpp21cGenericReadonlyWatchIN4inet5units5valueIdNS2_5units1mEEEEE @1741 DATA
    _ZTVN7omnetpp21cGenericReadonlyWatchIN4inet5units5valueIdNS2_7composeINS2_5units1mENS2_3powINS5_1sELin1ELi1EEEEEEEEE @1742 DATA
    _ZTVN7omnetpp21cGenericReadonlyWatchIN4inet5units5valueIdNS2_7composeINS4_INS4_INS2_5units1mENS4_INS5_2kgENS2_3powINS5_1sELin2ELi1EEEEEEES6_EENS8_IS9_Lin1ELi1EEEEEEEEE @1743 DATA
    _ZTVN7omnetpp21cGenericReadonlyWatchINS_4cFSMEEE @1744 DATA
    _ZTVN7omnetpp21cGenericReadonlyWatchINS_7SimTimeEEE @1745 DATA
    _ZTVN7omnetpp23cGenericAssignableWatchIdEE @1746 DATA
    _ZTVN7omnetpp23cGenericAssignableWatchIiEE @1747 DATA
    _ZTVN7omnetpp23cGenericAssignableWatchIlEE @1748 DATA
    _ZThn16_N5flora12LoRaMacFrameD0Ev @1749
    _ZThn16_N5flora12LoRaMacFrameD1Ev @1750
    _ZThn16_N5flora13LoRaAppPacketD0Ev @1751
    _ZThn16_N5flora13LoRaAppPacketD1Ev @1752
    _ZThn16_N5flora15LoRaPhyPreambleD0Ev @1753
    _ZThn16_N5flora15LoRaPhyPreambleD1Ev @1754
    _ZThn16_N5flora7LoRaTagD0Ev @1755
    _ZThn16_N5flora7LoRaTagD1Ev @1756
    _ZThn200_N5flora15LoRaHataOkumuraD0Ev @1757
    _ZThn200_N5flora15LoRaHataOkumuraD1Ev @1758
    _ZThn200_N5flora15LoRaMediumCache11removeRadioEPKN4inet13physicallayer6IRadioE @1759
    _ZThn200_N5flora15LoRaMediumCache8addRadioEPKN4inet13physicallayer6IRadioE @1760
    _ZThn200_N5flora15LoRaMediumCacheD0Ev @1761
    _ZThn200_N5flora15LoRaMediumCacheD1Ev @1762
    _ZThn200_N5flora16LoRaPathLossOuluD0Ev @1763
    _ZThn200_N5flora16LoRaPathLossOuluD1Ev @1764
    _ZThn200_N5flora22LoRaLogNormalShadowingD0Ev @1765
    _ZThn200_N5flora22LoRaLogNormalShadowingD1Ev @1766
    _ZThn200_NK5flora15LoRaHataOkumura13printToStreamERSoii @1767
    _ZThn200_NK5flora15LoRaHataOkumura15computePathLossEN4inet5units5valueIdNS2_7composeINS2_5units1mENS2_3powINS5_1sELin1ELi1EEEEEEENS3_IdS9_EENS3_IdS6_EE @1768
    _ZThn200_NK5flora15LoRaMediumCache11getMaxSpeedEv @1769
    _ZThn200_NK5flora15LoRaMediumCache13printToStreamERSoii @1770
    _ZThn200_NK5flora15LoRaMediumCache17getMaxAntennaGainEv @1771
    _ZThn200_NK5flora15LoRaMediumCache20getMaxConstraintAreaEv @1772
    _ZThn200_NK5flora15LoRaMediumCache20getMinConstraintAreaEv @1773
    _ZThn200_NK5flora15LoRaMediumCache20getMinReceptionPowerEv @1774
    _ZThn200_NK5flora15LoRaMediumCache22getMinInterferenceTimeEv @1775
    _ZThn200_NK5flora15LoRaMediumCache23getMaxInterferenceRangeEPKN4inet13physicallayer6IRadioE @1776
    _ZThn200_NK5flora15LoRaMediumCache23getMaxInterferenceRangeEv @1777
    _ZThn200_NK5flora15LoRaMediumCache23getMaxTransmissionPowerEv @1778
    _ZThn200_NK5flora15LoRaMediumCache23getMinInterferencePowerEv @1779
    _ZThn200_NK5flora15LoRaMediumCache24getMaxCommunicationRangeEPKN4inet13physicallayer6IRadioE @1780
    _ZThn200_NK5flora15LoRaMediumCache24getMaxCommunicationRangeEv @1781
    _ZThn200_NK5flora15LoRaMediumCache26getMaxTransmissionDurationEv @1782
    _ZThn200_NK5flora16LoRaPathLossOulu15computePathLossEN4inet5units5valueIdNS2_7composeINS2_5units1mENS2_3powINS5_1sELin1ELi1EEEEEEENS3_IdS9_EENS3_IdS6_EE @1783
    _ZThn200_NK5flora22LoRaLogNormalShadowing13printToStreamERSoii @1784
    _ZThn200_NK5flora22LoRaLogNormalShadowing15computePathLossEN4inet5units5valueIdNS2_7composeINS2_5units1mENS2_3powINS5_1sELin1ELi1EEEEEEENS3_IdS9_EENS3_IdS6_EE @1785
    _ZThn216_N4inet13physicallayer26StateBasedEpEnergyConsumerD0Ev @1786
    _ZThn216_N4inet13physicallayer26StateBasedEpEnergyConsumerD1Ev @1787
    _ZThn216_N5flora10LoRaMediumD0Ev @1788
    _ZThn216_N5flora10LoRaMediumD1Ev @1789
    _ZThn216_N5flora11LoRaGWRadioD0Ev @1790
    _ZThn216_N5flora11LoRaGWRadioD1Ev @1791
    _ZThn216_N5flora13SimpleLoRaApp20handleOperationStageEPN4inet18LifecycleOperationEPNS1_13IDoneCallbackE @1792
    _ZThn216_N5flora13SimpleLoRaAppD0Ev @1793
    _ZThn216_N5flora13SimpleLoRaAppD1Ev @1794
    _ZThn216_N5flora15PacketForwarder13receiveSignalEPN7omnetpp10cComponentEixPNS1_7cObjectE @1795
    _ZThn216_N5flora15PacketForwarderD0Ev @1796
    _ZThn216_N5flora15PacketForwarderD1Ev @1797
    _ZThn216_N5flora16NetworkServerApp13receiveSignalEPN7omnetpp10cComponentEixPNS1_7cObjectE @1798
    _ZThn216_N5flora16NetworkServerAppD0Ev @1799
    _ZThn216_N5flora16NetworkServerAppD1Ev @1800
    _ZThn216_N5flora17LoRaNeighborCache11removeRadioEPKN4inet13physicallayer6IRadioE @1801
    _ZThn216_N5flora17LoRaNeighborCache8addRadioEPKN4inet13physicallayer6IRadioE @1802
    _ZThn216_N5flora17LoRaNeighborCacheD0Ev @1803
    _ZThn216_N5flora17LoRaNeighborCacheD1Ev @1804
    _ZThn216_N5flora18LoRaEnergyConsumerD0Ev @1805
    _ZThn216_N5flora18LoRaEnergyConsumerD1Ev @1806
    _ZThn216_N5flora20MobileGatewayLoRaApp13receiveSignalEPN7omnetpp10cComponentEixPNS1_7cObjectE @1807
    _ZThn216_N5flora20MobileGatewayLoRaAppD0Ev @1808
    _ZThn216_N5flora20MobileGatewayLoRaAppD1Ev @1809
    _ZThn216_N5flora7LoRaMacD0Ev @1810
    _ZThn216_N5flora7LoRaMacD1Ev @1811
    _ZThn216_N5flora9LoRaGWMacD0Ev @1812
    _ZThn216_N5flora9LoRaGWMacD1Ev @1813
    _ZThn216_N5flora9LoRaRadioD0Ev @1814
    _ZThn216_N5flora9LoRaRadioD1Ev @1815
    _ZThn216_NK4inet13physicallayer26StateBasedEpEnergyConsumer19getPowerConsumptionEv @1816
    _ZThn216_NK5flora17LoRaNeighborCache13printToStreamERSoii @1817
    _ZThn216_NK5flora17LoRaNeighborCache15sendToNeighborsEPN4inet13physicallayer6IRadioEPKNS2_15IWirelessSignalEd @1818
    _ZThn216_NK5flora18LoRaEnergyConsumer19getPowerConsumptionEv @1819
    _ZThn224_N5flora18LoRaEnergyConsumer13receiveSignalEPN7omnetpp10cComponentEixPNS1_7cObjectE @1820
    _ZThn224_N5flora18LoRaEnergyConsumerD0Ev @1821
    _ZThn224_N5flora18LoRaEnergyConsumerD1Ev @1822
    _ZThn248_N5flora10LoRaMediumD0Ev @1823
    _ZThn248_N5flora10LoRaMediumD1Ev @1824
    _ZThn248_NK4inet13physicallayer11RadioMedium11getMaterialEv @1825
    _ZThn248_NK4inet13physicallayer11RadioMedium11getPathLossEv @1826
    _ZThn248_NK4inet13physicallayer11RadioMedium14getAnalogModelEv @1827
    _ZThn248_NK4inet13physicallayer11RadioMedium14getPropagationEv @1828
    _ZThn248_NK4inet13physicallayer11RadioMedium15getObstacleLossEv @1829
    _ZThn248_NK4inet13physicallayer11RadioMedium16getNeighborCacheEv @1830
    _ZThn248_NK4inet13physicallayer11RadioMedium18getBackgroundNoiseEv @1831
    _ZThn248_NK4inet13physicallayer11RadioMedium19getMediumLimitCacheEv @1832
    _ZThn248_NK4inet13physicallayer11RadioMedium21getCommunicationCacheEv @1833
    _ZThn248_NK4inet13physicallayer11RadioMedium22getPhysicalEnvironmentEv @1834
    _ZThn248_NK5flora10LoRaMedium18getReceptionResultEPKN4inet13physicallayer6IRadioEPKNS2_10IListeningEPKNS2_13ITransmissionE @1835
    _ZThn24_N4inet5Chunk13getRegionTagsEv @1836
    _ZThn280_N5flora11LoRaGWRadioD0Ev @1837
    _ZThn280_N5flora11LoRaGWRadioD1Ev @1838
    _ZThn280_N5flora7LoRaMac13receiveSignalEPN7omnetpp10cComponentEixPNS1_7cObjectE @1839
    _ZThn280_N5flora7LoRaMacD0Ev @1840
    _ZThn280_N5flora7LoRaMacD1Ev @1841
    _ZThn280_N5flora9LoRaGWMac13receiveSignalEPN7omnetpp10cComponentEixPNS1_7cObjectE @1842
    _ZThn280_N5flora9LoRaGWMacD0Ev @1843
    _ZThn280_N5flora9LoRaGWMacD1Ev @1844
    _ZThn280_N5flora9LoRaRadioD0Ev @1845
    _ZThn280_N5flora9LoRaRadioD1Ev @1846
    _ZThn360_N5flora7LoRaMacD0Ev @1847
    _ZThn360_N5flora7LoRaMacD1Ev @1848
    _ZThn368_N5flora7LoRaMac11getProviderEPN7omnetpp5cGateE @1849
    _ZThn368_N5flora7LoRaMac25handlePullPacketProcessedEPN4inet6PacketEPN7omnetpp5cGateEb @1850
    _ZThn368_N5flora7LoRaMac26handleCanPullPacketChangedEPN7omnetpp5cGateE @1851
    _ZThn368_N5flora7LoRaMacD0Ev @1852
    _ZThn368_N5flora7LoRaMacD1Ev @1853
    _ZTv0_n104_NK4inet13physicallayer12ReceiverBase20getMinReceptionPowerEv @1854
    _ZTv0_n104_NK4inet13physicallayer13ReceptionBase15getTransmissionEv @1855
    _ZTv0_n104_NK4inet13physicallayer15TransmitterBase24getMaxCommunicationRangeEv @1856
    _ZTv0_n104_NK4inet13physicallayer16FlatReceiverBase20getMinReceptionPowerEv @1857
    _ZTv0_n104_NK4inet13physicallayer5Radio9getMediumEv @1858
    _ZTv0_n104_NK5flora12LoRaReceiver20getMinReceptionPowerEv @1859
    _ZTv0_n104_NK5flora15LoRaAnalogModel12computeNoiseEPKN4inet13physicallayer10IListeningEPKNS2_13IInterferenceE @1860
    _ZTv0_n104_NK5flora9LoRaRadio9getMediumEv @1861
    _ZTv0_n112_NK4inet13physicallayer13ReceptionBase12getStartTimeEv @1862
    _ZTv0_n112_NK4inet13physicallayer15TransmitterBase23getMaxInterferenceRangeEv @1863
    _ZTv0_n112_NK4inet13physicallayer16TransmissionBase16getTransmitterIdEv @1864
    _ZTv0_n112_NK5flora12LoRaReceiver15createListeningEPKN4inet13physicallayer6IRadioEN7omnetpp7SimTimeES7_RKNS1_5CoordESA_ @1865
    _ZTv0_n112_NK5flora9LoRaRadio25getTransmissionInProgressEv @1866
    _ZTv0_n120_NK4inet13physicallayer13ReceptionBase10getEndTimeEv @1867
    _ZTv0_n120_NK4inet13physicallayer16TransmissionBase25getTransmitterAntennaGainEv @1868
    _ZTv0_n120_NK5flora12LoRaReceiver24computeListeningDecisionEPKN4inet13physicallayer10IListeningEPKNS2_13IInterferenceE @1869
    _ZTv0_n120_NK5flora15LoRaAnalogModel11computeSNIREPKN4inet13physicallayer10IReceptionEPKNS2_6INoiseE @1870
    _ZTv0_n120_NK5flora15LoRaTransmitter18createTransmissionEPKN4inet13physicallayer6IRadioEPKNS1_6PacketEN7omnetpp7SimTimeE @1871
    _ZTv0_n120_NK5flora9LoRaRadio22getReceptionInProgressEv @1872
    _ZTv0_n128_NK4inet13physicallayer16TransmissionBase9getMediumEv @1873
    _ZTv0_n128_NK5flora12LoRaReceiver26computeIsReceptionPossibleEPKN4inet13physicallayer10IListeningEPKNS2_13ITransmissionE @1874
    _ZTv0_n128_NK5flora9LoRaRadio24getTransmittedSignalPartEv @1875
    _ZTv0_n136_NK4inet13physicallayer16TransmissionBase9getPacketEv @1876
    _ZTv0_n136_NK5flora12LoRaReceiver26computeIsReceptionPossibleEPKN4inet13physicallayer10IListeningEPKNS2_10IReceptionENS2_12IRadioSignal10SignalPartE @1877
    _ZTv0_n136_NK5flora9LoRaRadio21getReceivedSignalPartEv @1878
    _ZTv0_n144_NK4inet13physicallayer13ReceptionBase20getPreambleStartTimeEv @1879
    _ZTv0_n144_NK4inet13physicallayer16TransmissionBase12getStartTimeEv @1880
    _ZTv0_n144_NK5flora12LoRaReceiver27computeIsReceptionAttemptedEPKN4inet13physicallayer10IListeningEPKNS2_10IReceptionENS2_12IRadioSignal10SignalPartEPKNS2_13IInterferenceE @1881
    _ZTv0_n152_NK4inet13physicallayer13ReceptionBase18getPreambleEndTimeEv @1882
    _ZTv0_n152_NK4inet13physicallayer16TransmissionBase10getEndTimeEv @1883
    _ZTv0_n152_NK5flora12LoRaReceiver28computeIsReceptionSuccessfulEPKN4inet13physicallayer10IListeningEPKNS2_10IReceptionENS2_12IRadioSignal10SignalPartEPKNS2_13IInterferenceEPKNS2_5ISnirE @1884
    _ZTv0_n160_NK4inet13physicallayer13ReceptionBase18getHeaderStartTimeEv @1885
    _ZTv0_n160_NK5flora12LoRaReceiver24computeReceptionDecisionEPKN4inet13physicallayer10IListeningEPKNS2_10IReceptionENS2_12IRadioSignal10SignalPartEPKNS2_13IInterferenceEPKNS2_5ISnirE @1886
    _ZTv0_n168_NK4inet13physicallayer13ReceptionBase16getHeaderEndTimeEv @1887
    _ZTv0_n168_NK5flora12LoRaReceiver22computeReceptionResultEPKN4inet13physicallayer10IListeningEPKNS2_10IReceptionEPKNS2_13IInterferenceEPKNS2_5ISnirEPKSt6vectorIPKNS2_18IReceptionDecisionESaISI_EE @1888
    _ZTv0_n176_NK4inet13physicallayer13ReceptionBase16getDataStartTimeEv @1889
    _ZTv0_n176_NK4inet13physicallayer16TransmissionBase20getPreambleStartTimeEv @1890
    _ZTv0_n184_NK4inet13physicallayer13ReceptionBase14getDataEndTimeEv @1891
    _ZTv0_n184_NK4inet13physicallayer16TransmissionBase18getPreambleEndTimeEv @1892
    _ZTv0_n192_NK4inet13physicallayer13ReceptionBase11getDurationEv @1893
    _ZTv0_n192_NK4inet13physicallayer16TransmissionBase18getHeaderStartTimeEv @1894
    _ZTv0_n200_NK4inet13physicallayer16TransmissionBase16getHeaderEndTimeEv @1895
    _ZTv0_n208_NK4inet13physicallayer13ReceptionBase19getPreambleDurationEv @1896
    _ZTv0_n208_NK4inet13physicallayer16TransmissionBase16getDataStartTimeEv @1897
    _ZTv0_n216_NK4inet13physicallayer13ReceptionBase17getHeaderDurationEv @1898
    _ZTv0_n216_NK4inet13physicallayer16TransmissionBase14getDataEndTimeEv @1899
    _ZTv0_n224_NK4inet13physicallayer13ReceptionBase15getDataDurationEv @1900
    _ZTv0_n224_NK4inet13physicallayer16TransmissionBase11getDurationEv @1901
    _ZTv0_n232_NK4inet13physicallayer13ReceptionBase16getStartPositionEv @1902
    _ZTv0_n240_NK4inet13physicallayer13ReceptionBase14getEndPositionEv @1903
    _ZTv0_n240_NK4inet13physicallayer16TransmissionBase19getPreambleDurationEv @1904
    _ZTv0_n248_NK4inet13physicallayer13ReceptionBase19getStartOrientationEv @1905
    _ZTv0_n248_NK4inet13physicallayer16TransmissionBase17getHeaderDurationEv @1906
    _ZTv0_n24_N4inet13physicallayer12ReceiverBaseD0Ev @1907
    _ZTv0_n24_N4inet13physicallayer12ReceiverBaseD1Ev @1908
    _ZTv0_n24_N4inet13physicallayer13FlatRadioBaseD0Ev @1909
    _ZTv0_n24_N4inet13physicallayer13FlatRadioBaseD1Ev @1910
    _ZTv0_n24_N4inet13physicallayer13ReceptionBaseD0Ev @1911
    _ZTv0_n24_N4inet13physicallayer13ReceptionBaseD1Ev @1912
    _ZTv0_n24_N4inet13physicallayer15AnalogModelBaseD0Ev @1913
    _ZTv0_n24_N4inet13physicallayer15AnalogModelBaseD1Ev @1914
    _ZTv0_n24_N4inet13physicallayer15ScalarReceptionD0Ev @1915
    _ZTv0_n24_N4inet13physicallayer15ScalarReceptionD1Ev @1916
    _ZTv0_n24_N4inet13physicallayer15TransmitterBaseD0Ev @1917
    _ZTv0_n24_N4inet13physicallayer15TransmitterBaseD1Ev @1918
    _ZTv0_n24_N4inet13physicallayer16FlatReceiverBaseD0Ev @1919
    _ZTv0_n24_N4inet13physicallayer16FlatReceiverBaseD1Ev @1920
    _ZTv0_n24_N4inet13physicallayer16SnirReceiverBaseD0Ev @1921
    _ZTv0_n24_N4inet13physicallayer16SnirReceiverBaseD1Ev @1922
    _ZTv0_n24_N4inet13physicallayer16TransmissionBaseD0Ev @1923
    _ZTv0_n24_N4inet13physicallayer16TransmissionBaseD1Ev @1924
    _ZTv0_n24_N4inet13physicallayer17FlatReceptionBaseD0Ev @1925
    _ZTv0_n24_N4inet13physicallayer17FlatReceptionBaseD1Ev @1926
    _ZTv0_n24_N4inet13physicallayer19FlatTransmitterBaseD0Ev @1927
    _ZTv0_n24_N4inet13physicallayer19FlatTransmitterBaseD1Ev @1928
    _ZTv0_n24_N4inet13physicallayer19NarrowbandRadioBaseD0Ev @1929
    _ZTv0_n24_N4inet13physicallayer19NarrowbandRadioBaseD1Ev @1930
    _ZTv0_n24_N4inet13physicallayer21ScalarAnalogModelBaseD0Ev @1931
    _ZTv0_n24_N4inet13physicallayer21ScalarAnalogModelBaseD1Ev @1932
    _ZTv0_n24_N4inet13physicallayer22NarrowbandReceiverBaseD0Ev @1933
    _ZTv0_n24_N4inet13physicallayer22NarrowbandReceiverBaseD1Ev @1934
    _ZTv0_n24_N4inet13physicallayer23NarrowbandReceptionBaseD0Ev @1935
    _ZTv0_n24_N4inet13physicallayer23NarrowbandReceptionBaseD1Ev @1936
    _ZTv0_n24_N4inet13physicallayer25NarrowbandTransmitterBaseD0Ev @1937
    _ZTv0_n24_N4inet13physicallayer25NarrowbandTransmitterBaseD1Ev @1938
    _ZTv0_n24_N5flora11LoRaGWRadioD0Ev @1939
    _ZTv0_n24_N5flora11LoRaGWRadioD1Ev @1940
    _ZTv0_n24_N5flora12LoRaReceiverD0Ev @1941
    _ZTv0_n24_N5flora12LoRaReceiverD1Ev @1942
    _ZTv0_n24_N5flora13LoRaReceptionD0Ev @1943
    _ZTv0_n24_N5flora13LoRaReceptionD1Ev @1944
    _ZTv0_n24_N5flora15LoRaAnalogModelD0Ev @1945
    _ZTv0_n24_N5flora15LoRaAnalogModelD1Ev @1946
    _ZTv0_n24_N5flora15LoRaTransmitterD0Ev @1947
    _ZTv0_n24_N5flora15LoRaTransmitterD1Ev @1948
    _ZTv0_n24_N5flora16LoRaTransmissionD0Ev @1949
    _ZTv0_n24_N5flora16LoRaTransmissionD1Ev @1950
    _ZTv0_n24_N5flora9LoRaRadioD0Ev @1951
    _ZTv0_n24_N5flora9LoRaRadioD1Ev @1952
    _ZTv0_n24_NK4inet13physicallayer15ScalarReception8getPowerEv @1953
    _ZTv0_n24_NK4inet13physicallayer23NarrowbandReceptionBase18getCenterFrequencyEv @1954
    _ZTv0_n24_NK5flora13LoRaReception8getPowerEv @1955
    _ZTv0_n24_NK5flora16LoRaTransmission18getCenterFrequencyEv @1956
    _ZTv0_n24_NK5flora16LoRaTransmission8getPowerEv @1957
    _ZTv0_n256_NK4inet13physicallayer13ReceptionBase17getEndOrientationEv @1958
    _ZTv0_n256_NK4inet13physicallayer16TransmissionBase15getDataDurationEv @1959
    _ZTv0_n264_NK4inet13physicallayer13ReceptionBase14getAnalogModelEv @1960
    _ZTv0_n264_NK4inet13physicallayer16TransmissionBase16getStartPositionEv @1961
    _ZTv0_n272_NK4inet13physicallayer16TransmissionBase14getEndPositionEv @1962
    _ZTv0_n280_NK4inet13physicallayer16TransmissionBase19getStartOrientationEv @1963
    _ZTv0_n288_NK4inet13physicallayer16TransmissionBase17getEndOrientationEv @1964
    _ZTv0_n296_NK4inet13physicallayer16TransmissionBase14getAnalogModelEv @1965
    _ZTv0_n32_NK4inet13physicallayer23NarrowbandReceptionBase12getBandwidthEv @1966
    _ZTv0_n32_NK4inet13physicallayer26StateBasedEpEnergyConsumer15getEnergySourceEv @1967
    _ZTv0_n32_NK4inet13physicallayer5Radio12getRadioGateEv @1968
    _ZTv0_n32_NK5flora15LoRaAnalogModel13printToStreamERSoii @1969
    _ZTv0_n32_NK5flora15LoRaTransmitter13printToStreamERSoii @1970
    _ZTv0_n32_NK5flora16LoRaTransmission12getBandwidthEv @1971
    _ZTv0_n32_NK5flora16LoRaTransmission13printToStreamERSoii @1972
    _ZTv0_n32_NK5flora9LoRaRadio12getRadioGateEv @1973
    _ZTv0_n40_NK4inet13physicallayer15ScalarReception15computeMinPowerEN7omnetpp7SimTimeES3_ @1974
    _ZTv0_n40_NK4inet13physicallayer5Radio12getRadioModeEv @1975
    _ZTv0_n40_NK5flora13LoRaReception15computeMinPowerEN7omnetpp7SimTimeES2_ @1976
    _ZTv0_n40_NK5flora16LoRaTransmission15computeMinPowerEN7omnetpp7SimTimeES2_ @1977
    _ZTv0_n40_NK5flora9LoRaRadio12getRadioModeEv @1978
    _ZTv0_n56_NK4inet13physicallayer5Radio17getReceptionStateEv @1979
    _ZTv0_n56_NK5flora9LoRaRadio17getReceptionStateEv @1980
    _ZTv0_n64_NK4inet13physicallayer5Radio20getTransmissionStateEv @1981
    _ZTv0_n64_NK5flora9LoRaRadio20getTransmissionStateEv @1982
    _ZTv0_n72_NK4inet13physicallayer5Radio5getIdEv @1983
    _ZTv0_n72_NK5flora9LoRaRadio5getIdEv @1984
    _ZTv0_n80_NK4inet13physicallayer5Radio10getAntennaEv @1985
    _ZTv0_n80_NK5flora9LoRaRadio10getAntennaEv @1986
    _ZTv0_n88_NK4inet13physicallayer5Radio14getTransmitterEv @1987
    _ZTv0_n88_NK5flora9LoRaRadio14getTransmitterEv @1988
    _ZTv0_n96_NK4inet13physicallayer12ReceiverBase23getMinInterferencePowerEv @1989
    _ZTv0_n96_NK4inet13physicallayer13ReceptionBase11getDurationEv @1990
    _ZTv0_n96_NK4inet13physicallayer13ReceptionBase11getReceiverEv @1991
    _ZTv0_n96_NK4inet13physicallayer15TransmitterBase11getMaxPowerEv @1992
    _ZTv0_n96_NK4inet13physicallayer16TransmissionBase11getDurationEv @1993
    _ZTv0_n96_NK4inet13physicallayer16TransmissionBase5getIdEv @1994
    _ZTv0_n96_NK4inet13physicallayer19FlatTransmitterBase11getMaxPowerEv @1995
    _ZTv0_n96_NK4inet13physicallayer5Radio11getReceiverEv @1996
    _ZTv0_n96_NK5flora12LoRaReceiver23getMinInterferencePowerEv @1997
    _ZTv0_n96_NK5flora15LoRaAnalogModel16computeReceptionEPKN4inet13physicallayer6IRadioEPKNS2_13ITransmissionEPKNS2_8IArrivalE @1998
    _ZTv0_n96_NK5flora9LoRaRadio11getReceiverEv @1999
    _ZTvn8_n144_NK5flora9LoRaRadio13printToStreamERSoii @2000
    _ZTvn8_n24_N4inet13physicallayer13FlatRadioBaseD0Ev @2001
    _ZTvn8_n24_N4inet13physicallayer13FlatRadioBaseD1Ev @2002
    _ZTvn8_n24_N4inet13physicallayer19NarrowbandRadioBaseD0Ev @2003
    _ZTvn8_n24_N4inet13physicallayer19NarrowbandRadioBaseD1Ev @2004
    _ZTvn8_n24_N5flora11LoRaGWRadioD0Ev @2005
    _ZTvn8_n24_N5flora11LoRaGWRadioD1Ev @2006
    _ZTvn8_n24_N5flora9LoRaRadioD0Ev @2007
    _ZTvn8_n24_N5flora9LoRaRadioD1Ev @2008
    _ZZNK4inet5Chunk4peekIN5flora12LoRaMacFrameEEEKNS_12IntrusivePtrIT_EERKNS0_8IteratorENS_5units5valueIxNSB_5units1bEEEiENUlRKNS4_IS0_EEE_8__invokeESI_ @2009
    _ZZNK4inet5Chunk4peekIN5flora12LoRaMacFrameEEEKNS_12IntrusivePtrIT_EERKNS0_8IteratorENS_5units5valueIxNSB_5units1bEEEiENUlRKNS4_IS0_EESA_SF_iE_8__invokeESI_SA_SF_i @2010
    _ZZNK4inet5Chunk4peekIN5flora13LoRaAppPacketEEEKNS_12IntrusivePtrIT_EERKNS0_8IteratorENS_5units5valueIxNSB_5units1bEEEiENUlRKNS4_IS0_EEE_8__invokeESI_ @2011
    _ZZNK4inet5Chunk4peekIN5flora13LoRaAppPacketEEEKNS_12IntrusivePtrIT_EERKNS0_8IteratorENS_5units5valueIxNSB_5units1bEEEiENUlRKNS4_IS0_EESA_SF_iE_8__invokeESI_SA_SF_i @2012
    _ZZNK4inet5Chunk4peekIN5flora15LoRaPhyPreambleEEEKNS_12IntrusivePtrIT_EERKNS0_8IteratorENS_5units5valueIxNSB_5units1bEEEiENUlRKNS4_IS0_EEE_8__invokeESI_ @2013
    _ZZNK4inet5Chunk4peekIN5flora15LoRaPhyPreambleEEEKNS_12IntrusivePtrIT_EERKNS0_8IteratorENS_5units5valueIxNSB_5units1bEEEiENUlRKNS4_IS0_EESA_SF_iE_8__invokeESI_SA_SF_i @2014
    _ZZNK4inet5Chunk4peekINS_11FieldsChunkEEEKNS_12IntrusivePtrIT_EERKNS0_8IteratorENS_5units5valueIxNSA_5units1bEEEiENUlRKNS3_IS0_EEE_8__invokeESH_ @2015
    _ZZNK4inet5Chunk4peekINS_11FieldsChunkEEEKNS_12IntrusivePtrIT_EERKNS0_8IteratorENS_5units5valueIxNSA_5units1bEEEiENUlRKNS3_IS0_EES9_SE_iE_8__invokeESH_S9_SE_i @2016
    __clang_call_terminate @2017
