EXPORTS
    _ZN10EigrpTimer12parsimUnpackEPN7omnetpp11cCommBufferE @1
    _ZN10EigrpTimer12setTimerKindEc @2
    _ZN10EigrpTimer4copyERKS_ @3
    _ZN10EigrpTimerC1EPKcs @4
    _ZN10EigrpTimerC1ERKS_ @5
    _ZN10EigrpTimerC2EPKcs @6
    _ZN10EigrpTimerC2ERKS_ @7
    _ZN10EigrpTimerD0Ev @8
    _ZN10EigrpTimerD1Ev @9
    _ZN10EigrpTimerD2Ev @10
    _ZN10EigrpTimeraSERKS_ @11
    _ZN14InstrumentUtil14ComputeOutCodeEdddddd @12
    _ZN14InstrumentUtil23CohenSutherlandLineClipERdS0_S0_S0_dddd @13
    _ZN4inet10BytesChunk10doInsertAtERKNS_12IntrusivePtrIKNS_5ChunkEEENS_5units5valueIxNS7_5units1bEEE @14
    _ZN4inet10BytesChunk10doRemoveAtENS_5units5valueIxNS1_5units1bEEES5_ @15
    _ZN4inet10BytesChunk12convertChunkERKSt9type_infoRKNS_12IntrusivePtrINS_5ChunkEEENS_5units5valueIxNS9_5units1bEEESD_i @16
    _ZN4inet10BytesChunk12parsimUnpackEPN7omnetpp11cCommBufferE @17
    _ZN4inet10BytesChunk14copyFromBufferEPKhy @18
    _ZN4inet10BytesChunk14doInsertAtBackERKNS_12IntrusivePtrIKNS_5ChunkEEE @19
    _ZN4inet10BytesChunk14doRemoveAtBackENS_5units5valueIxNS1_5units1bEEE @20
    _ZN4inet10BytesChunk15doInsertAtFrontERKNS_12IntrusivePtrIKNS_5ChunkEEE @21
    _ZN4inet10BytesChunk15doRemoveAtFrontENS_5units5valueIxNS1_5units1bEEE @22
    _ZN4inet10BytesChunk7setByteEih @23
    _ZN4inet10BytesChunk8setBytesERKSt6vectorIhSaIhEE @24
    _ZN4inet10BytesChunkC1ERKSt6vectorIhSaIhEE @25
    _ZN4inet10BytesChunkC1Ev @26
    _ZN4inet10BytesChunkC2ERKSt6vectorIhSaIhEE @27
    _ZN4inet10BytesChunkC2Ev @28
    _ZN4inet10CareOfTest12parsimUnpackEPN7omnetpp11cCommBufferE @29
    _ZN4inet10CareOfTest19setCareOfInitCookieEj @30
    _ZN4inet10CareOfTest20setCareOfKeyGenTokenEj @31
    _ZN4inet10CareOfTest4copyERKS0_ @32
    _ZN4inet10CareOfTestC1ERKS0_ @33
    _ZN4inet10CareOfTestC1Ev @34
    _ZN4inet10CareOfTestC2ERKS0_ @35
    _ZN4inet10CareOfTestC2Ev @36
    _ZN4inet10CareOfTestD0Ev @37
    _ZN4inet10CareOfTestD1Ev @38
    _ZN4inet10CareOfTestD2Ev @39
    _ZN4inet10CareOfTestaSERKS0_ @40
    _ZN4inet10ChunkQueue20moveIteratorOrRemoveENS_5units5valueIxNS1_5units1bEEE @41
    _ZN4inet10ChunkQueue3popENS_5units5valueIxNS1_5units1bEEEi @42
    _ZN4inet10ChunkQueue4pushERKNS_12IntrusivePtrIKNS_5ChunkEEE @43
    _ZN4inet10ChunkQueue5clearEv @44
    _ZN4inet10ChunkQueue6removeENS_5units5valueIxNS1_5units1bEEE @45
    _ZN4inet10ChunkQueueC1EPKcRKNS_12IntrusivePtrIKNS_5ChunkEEE @46
    _ZN4inet10ChunkQueueC1ERKS0_ @47
    _ZN4inet10ChunkQueueC2EPKcRKNS_12IntrusivePtrIKNS_5ChunkEEE @48
    _ZN4inet10ChunkQueueC2ERKS0_ @49
    _ZN4inet10ClockEvent7executeEv @50
    _ZN4inet10DhcpClient10initClientEv @51
    _ZN4inet10DhcpClient10initializeEi @52
    _ZN4inet10DhcpClient10openSocketEv @53
    _ZN4inet10DhcpClient11handleTimerEPN7omnetpp8cMessageE @54
    _ZN4inet10DhcpClient11recordLeaseERKNS_12IntrusivePtrIKNS_11DhcpMessageEEE @55
    _ZN4inet10DhcpClient11recordOfferERKNS_12IntrusivePtrIKNS_11DhcpMessageEEE @56
    _ZN4inet10DhcpClient11sendDeclineENS_11Ipv4AddressE @57
    _ZN4inet10DhcpClient11sendRequestEv @58
    _ZN4inet10DhcpClient11unbindLeaseEv @59
    _ZN4inet10DhcpClient12getStateNameENS0_11ClientStateE @60
    _ZN4inet10DhcpClient12sendDiscoverEv @61
    _ZN4inet10DhcpClient12socketClosedEPNS_9UdpSocketE @62
    _ZN4inet10DhcpClient13handleDhcpAckERKNS_12IntrusivePtrIKNS_11DhcpMessageEEE @63
    _ZN4inet10DhcpClient13receiveSignalEPN7omnetpp10cComponentEiPNS1_7cObjectES5_ @64
    _ZN4inet10DhcpClient15chooseInterfaceEv @65
    _ZN4inet10DhcpClient15scheduleTimerT1Ev @66
    _ZN4inet10DhcpClient15scheduleTimerT2Ev @67
    _ZN4inet10DhcpClient15scheduleTimerTOENS_13DhcpTimerTypeE @68
    _ZN4inet10DhcpClient17handleDhcpMessageEPNS_6PacketE @69
    _ZN4inet10DhcpClient17socketDataArrivedEPNS_9UdpSocketEPNS_6PacketE @70
    _ZN4inet10DhcpClient18initRebootedClientEv @71
    _ZN4inet10DhcpClient18socketErrorArrivedEPNS_9UdpSocketEPNS_10IndicationE @72
    _ZN4inet10DhcpClient19handleMessageWhenUpEPN7omnetpp8cMessageE @73
    _ZN4inet10DhcpClient19handleStopOperationEPNS_18LifecycleOperationE @74
    _ZN4inet10DhcpClient20handleCrashOperationEPNS_18LifecycleOperationE @75
    _ZN4inet10DhcpClient20handleStartOperationEPNS_18LifecycleOperationE @76
    _ZN4inet10DhcpClient26getAndCheckMessageTypeNameENS_15DhcpMessageTypeE @77
    _ZN4inet10DhcpClient6finishEv @78
    _ZN4inet10DhcpClient9bindLeaseEv @79
    _ZN4inet10DhcpClient9sendToUdpEPNS_6PacketEiRKNS_9L3AddressEi @80
    _ZN4inet10DhcpClientD0Ev @81
    _ZN4inet10DhcpClientD1Ev @82
    _ZN4inet10DhcpClientD2Ev @83
    _ZN4inet10DhcpServer10initializeEi @84
    _ZN4inet10DhcpServer10openSocketEv @85
    _ZN4inet10DhcpServer12socketClosedEPNS_9UdpSocketE @86
    _ZN4inet10DhcpServer13getLeaseByMacENS_10MacAddressE @87
    _ZN4inet10DhcpServer13receiveSignalEPN7omnetpp10cComponentEiPNS1_7cObjectES5_ @88
    _ZN4inet10DhcpServer15chooseInterfaceEv @89
    _ZN4inet10DhcpServer17getAvailableLeaseENS_11Ipv4AddressERKNS_10MacAddressE @90
    _ZN4inet10DhcpServer17socketDataArrivedEPNS_9UdpSocketEPNS_6PacketE @91
    _ZN4inet10DhcpServer18handleSelfMessagesEPN7omnetpp8cMessageE @92
    _ZN4inet10DhcpServer18processDhcpMessageEPNS_6PacketE @93
    _ZN4inet10DhcpServer18socketErrorArrivedEPNS_9UdpSocketEPNS_10IndicationE @94
    _ZN4inet10DhcpServer19handleMessageWhenUpEPN7omnetpp8cMessageE @95
    _ZN4inet10DhcpServer19handleStopOperationEPNS_18LifecycleOperationE @96
    _ZN4inet10DhcpServer20handleCrashOperationEPNS_18LifecycleOperationE @97
    _ZN4inet10DhcpServer20handleStartOperationEPNS_18LifecycleOperationE @98
    _ZN4inet10DhcpServer7sendAckEPNS_9DhcpLeaseERKNS_12IntrusivePtrIKNS_11DhcpMessageEEE @99
    _ZN4inet10DhcpServer7sendNakERKNS_12IntrusivePtrIKNS_11DhcpMessageEEE @100
    _ZN4inet10DhcpServer9sendOfferEPNS_9DhcpLeaseERKNS_12IntrusivePtrIKNS_11DhcpMessageEEE @101
    _ZN4inet10DhcpServer9sendToUDPEPNS_6PacketEiRKNS_9L3AddressEi @102
    _ZN4inet10DhcpServerC1Ev @103
    _ZN4inet10DhcpServerC2Ev @104
    _ZN4inet10DhcpServerD0Ev @105
    _ZN4inet10DhcpServerD1Ev @106
    _ZN4inet10DhcpServerD2Ev @107
    _ZN4inet10DscpMarker10initializeEi @108
    _ZN4inet10DscpMarker10markPacketEPNS_6PacketEi @109
    _ZN4inet10DscpMarker10pushPacketEPNS_6PacketEPN7omnetpp5cGateE @110
    _ZN4inet10DscpMarker13handleMessageEPN7omnetpp8cMessageE @111
    _ZN4inet10DscpMarker18packetMarkedSignalE @112 DATA
    _ZN4inet10EchoPacket12parsimUnpackEPN7omnetpp11cCommBufferE @113
    _ZN4inet10EchoPacket12setSeqNumberEi @114
    _ZN4inet10EchoPacket13setIdentifierEi @115
    _ZN4inet10EchoPacket4copyERKS0_ @116
    _ZN4inet10EchoPacket7setTypeENS_16EchoProtocolTypeE @117
    _ZN4inet10EchoPacketC1ERKS0_ @118
    _ZN4inet10EchoPacketC1Ev @119
    _ZN4inet10EchoPacketC2ERKS0_ @120
    _ZN4inet10EchoPacketC2Ev @121
    _ZN4inet10EchoPacketD0Ev @122
    _ZN4inet10EchoPacketD1Ev @123
    _ZN4inet10EchoPacketD2Ev @124
    _ZN4inet10EchoPacketaSERKS0_ @125
    _ZN4inet10EcnTagBase12parsimUnpackEPN7omnetpp11cCommBufferE @126
    _ZN4inet10EcnTagBase33setExplicitCongestionNotificationEi @127
    _ZN4inet10EcnTagBase4copyERKS0_ @128
    _ZN4inet10EcnTagBaseC1ERKS0_ @129
    _ZN4inet10EcnTagBaseC1Ev @130
    _ZN4inet10EcnTagBaseC2ERKS0_ @131
    _ZN4inet10EcnTagBaseC2Ev @132
    _ZN4inet10EcnTagBaseD0Ev @133
    _ZN4inet10EcnTagBaseD1Ev @134
    _ZN4inet10EcnTagBaseD2Ev @135
    _ZN4inet10EcnTagBaseaSERKS0_ @136
    _ZN4inet10EigrpRouteINS_11Ipv4AddressEE16unsetReplyStatusEi @137
    _ZN4inet10EigrpRouteINS_11Ipv4AddressEEC1ERKS1_S4_ @138
    _ZN4inet10EigrpRouteINS_11Ipv4AddressEEC2ERKS1_S4_ @139
    _ZN4inet10EigrpRouteINS_11Ipv4AddressEED0Ev @140
    _ZN4inet10EigrpRouteINS_11Ipv4AddressEED1Ev @141
    _ZN4inet10EigrpRouteINS_11Ipv4AddressEED2Ev @142
    _ZN4inet10EigrpRouteINS_11Ipv6AddressEE16unsetReplyStatusEi @143
    _ZN4inet10EigrpRouteINS_11Ipv6AddressEEC1ERKS1_S4_ @144
    _ZN4inet10EigrpRouteINS_11Ipv6AddressEEC2ERKS1_S4_ @145
    _ZN4inet10EigrpRouteINS_11Ipv6AddressEED0Ev @146
    _ZN4inet10EigrpRouteINS_11Ipv6AddressEED1Ev @147
    _ZN4inet10EigrpRouteINS_11Ipv6AddressEED2Ev @148
    _ZN4inet10EmptyChunk12convertChunkERKSt9type_infoRKNS_12IntrusivePtrINS_5ChunkEEENS_5units5valueIxNS9_5units1bEEESD_i @149
    _ZN4inet10EmptyChunk9singletonE @150 DATA
    _ZN4inet10EmptyChunkC1ERKS0_ @151
    _ZN4inet10EmptyChunkC1Ev @152
    _ZN4inet10EmptyChunkC2ERKS0_ @153
    _ZN4inet10EmptyChunkC2Ev @154
    _ZN4inet10Forwarding10initializeEi @155
    _ZN4inet10Forwarding10pushPacketEPNS_6PacketEPN7omnetpp5cGateE @156
    _ZN4inet10Forwarding11findNextHopERKNS_9L3AddressE @157
    _ZN4inet10GateFigure11addScheduleEddb @158
    _ZN4inet10GateFigure11setPositionEd @159
    _ZN4inet10GateFigure13clearScheduleEv @160
    _ZN4inet10GateFigure8setLabelEPKc @161
    _ZN4inet10GateFigure9setBoundsERKN7omnetpp7cFigure9RectangleE @162
    _ZN4inet10GateFigureC1EPKc @163
    _ZN4inet10GateFigureC2EPKc @164
    _ZN4inet10GpsrBeacon10setAddressERKNS_9L3AddressE @165
    _ZN4inet10GpsrBeacon11setPositionERKNS_5CoordE @166
    _ZN4inet10GpsrBeacon12parsimUnpackEPN7omnetpp11cCommBufferE @167
    _ZN4inet10GpsrBeacon4copyERKS0_ @168
    _ZN4inet10GpsrBeaconC1ERKS0_ @169
    _ZN4inet10GpsrBeaconC1Ev @170
    _ZN4inet10GpsrBeaconC2ERKS0_ @171
    _ZN4inet10GpsrBeaconC2Ev @172
    _ZN4inet10GpsrBeaconD0Ev @173
    _ZN4inet10GpsrBeaconD1Ev @174
    _ZN4inet10GpsrBeaconD2Ev @175
    _ZN4inet10GpsrBeaconaSERKS0_ @176
    _ZN4inet10GpsrOption12parsimUnpackEPN7omnetpp11cCommBufferE @177
    _ZN4inet10GpsrOption14setRoutingModeENS_18GpsrForwardingModeE @178
    _ZN4inet10GpsrOption16setSenderAddressERKNS_9L3AddressE @179
    _ZN4inet10GpsrOption22setDestinationPositionERKNS_5CoordE @180
    _ZN4inet10GpsrOption32setCurrentFaceFirstSenderAddressERKNS_9L3AddressE @181
    _ZN4inet10GpsrOption32setPerimeterRoutingStartPositionERKNS_5CoordE @182
    _ZN4inet10GpsrOption34setCurrentFaceFirstReceiverAddressERKNS_9L3AddressE @183
    _ZN4inet10GpsrOption34setPerimeterRoutingForwardPositionERKNS_5CoordE @184
    _ZN4inet10GpsrOption4copyERKS0_ @185
    _ZN4inet10GpsrOptionC1ERKS0_ @186
    _ZN4inet10GpsrOptionC1Ev @187
    _ZN4inet10GpsrOptionC2ERKS0_ @188
    _ZN4inet10GpsrOptionC2Ev @189
    _ZN4inet10GpsrOptionD0Ev @190
    _ZN4inet10GpsrOptionD1Ev @191
    _ZN4inet10GpsrOptionD2Ev @192
    _ZN4inet10GpsrOptionaSERKS0_ @193
    _ZN4inet10IcmpHeader10setCrcModeENS_7CrcModeE @194
    _ZN4inet10IcmpHeader12parsimUnpackEPN7omnetpp11cCommBufferE @195
    _ZN4inet10IcmpHeader4copyERKS0_ @196
    _ZN4inet10IcmpHeader7setCodeEi @197
    _ZN4inet10IcmpHeader7setTypeENS_8IcmpTypeE @198
    _ZN4inet10IcmpHeader9setChksumEi @199
    _ZN4inet10IcmpHeaderC1ERKS0_ @200
    _ZN4inet10IcmpHeaderC1Ev @201
    _ZN4inet10IcmpHeaderC2ERKS0_ @202
    _ZN4inet10IcmpHeaderC2Ev @203
    _ZN4inet10IcmpHeaderD0Ev @204
    _ZN4inet10IcmpHeaderD1Ev @205
    _ZN4inet10IcmpHeaderD2Ev @206
    _ZN4inet10IcmpHeaderaSERKS0_ @207
    _ZN4inet10IdealClock10initializeEi @208
    _ZN4inet10IdealClock6finishEv @209
    _ZN4inet10IndicationC1EPKcs @210
    _ZN4inet10IndicationC1ERKS0_ @211
    _ZN4inet10IndicationC2EPKcs @212
    _ZN4inet10IndicationC2ERKS0_ @213
    _ZN4inet10Ipv4Header10setCrcModeENS_7CrcModeE @214
    _ZN4inet10Ipv4Header10setOptionsERKNS_10TlvOptionsE @215
    _ZN4inet10Ipv4Header10setVersionEs @216
    _ZN4inet10Ipv4Header12parsimUnpackEPN7omnetpp11cCommBufferE @217
    _ZN4inet10Ipv4Header13setProtocolIdENS_12IpProtocolIdE @218
    _ZN4inet10Ipv4Header13setSrcAddressERKNS_11Ipv4AddressE @219
    _ZN4inet10Ipv4Header13setTimeToLiveEs @220
    _ZN4inet10Ipv4Header14setDestAddressERKNS_11Ipv4AddressE @221
    _ZN4inet10Ipv4Header14setReservedBitEb @222
    _ZN4inet10Ipv4Header15setDontFragmentEb @223
    _ZN4inet10Ipv4Header15setHeaderLengthENS_5units5valueIxNS1_8intscaleINS1_5units1bELi1ELi8EEEEE @224
    _ZN4inet10Ipv4Header16setMoreFragmentsEb @225
    _ZN4inet10Ipv4Header16setTypeOfServiceEs @226
    _ZN4inet10Ipv4Header17setFragmentOffsetEt @227
    _ZN4inet10Ipv4Header17setIdentificationEt @228
    _ZN4inet10Ipv4Header19setTotalLengthFieldENS_5units5valueIxNS1_8intscaleINS1_5units1bELi1ELi8EEEEE @229
    _ZN4inet10Ipv4Header23findMutableOptionByTypeEsi @230
    _ZN4inet10Ipv4Header4copyERKS0_ @231
    _ZN4inet10Ipv4Header6setCrcEt @232
    _ZN4inet10Ipv4Header6setEcnEs @233
    _ZN4inet10Ipv4Header7setDscpEs @234
    _ZN4inet10Ipv4Header9addOptionEPNS_13TlvOptionBaseE @235
    _ZN4inet10Ipv4Header9addOptionEPNS_13TlvOptionBaseEi @236
    _ZN4inet10Ipv4HeaderC1ERKS0_ @237
    _ZN4inet10Ipv4HeaderC1Ev @238
    _ZN4inet10Ipv4HeaderC2ERKS0_ @239
    _ZN4inet10Ipv4HeaderC2Ev @240
    _ZN4inet10Ipv4HeaderD0Ev @241
    _ZN4inet10Ipv4HeaderD1Ev @242
    _ZN4inet10Ipv4HeaderD2Ev @243
    _ZN4inet10Ipv4HeaderaSERKS0_ @244
    _ZN4inet10Ipv4Option12parsimUnpackEPN7omnetpp11cCommBufferE @245
    _ZN4inet10Ipv4Option4copyERKS0_ @246
    _ZN4inet10Ipv4OptionC1ERKS0_ @247
    _ZN4inet10Ipv4OptionC1Ev @248
    _ZN4inet10Ipv4OptionC2ERKS0_ @249
    _ZN4inet10Ipv4OptionC2Ev @250
    _ZN4inet10Ipv4OptionD0Ev @251
    _ZN4inet10Ipv4OptionD1Ev @252
    _ZN4inet10Ipv4OptionD2Ev @253
    _ZN4inet10Ipv4OptionaSERKS0_ @254
    _ZN4inet10Ipv4Socket11setCallbackEPNS_14INetworkSocket9ICallbackE @255
    _ZN4inet10Ipv4Socket12sendToOutputEPN7omnetpp8cMessageE @256
    _ZN4inet10Ipv4Socket14processMessageEPN7omnetpp8cMessageE @257
    _ZN4inet10Ipv4Socket4bindEPKNS_8ProtocolENS_11Ipv4AddressE @258
    _ZN4inet10Ipv4Socket4sendEPNS_6PacketE @259
    _ZN4inet10Ipv4Socket5closeEv @260
    _ZN4inet10Ipv4Socket6sendToEPNS_6PacketENS_11Ipv4AddressE @261
    _ZN4inet10Ipv4Socket7connectENS_11Ipv4AddressE @262
    _ZN4inet10Ipv4Socket7destroyEv @263
    _ZN4inet10Ipv4SocketC1EPN7omnetpp5cGateE @264
    _ZN4inet10Ipv4SocketC2EPN7omnetpp5cGateE @265
    _ZN4inet10Ipv6Header10setVersionEh @266
    _ZN4inet10Ipv6Header11setHopLimitEs @267
    _ZN4inet10Ipv6Header12parsimUnpackEPN7omnetpp11cCommBufferE @268
    _ZN4inet10Ipv6Header12setFlowLabelEj @269
    _ZN4inet10Ipv6Header13setProtocolIdENS_12IpProtocolIdE @270
    _ZN4inet10Ipv6Header13setSrcAddressERKNS_11Ipv6AddressE @271
    _ZN4inet10Ipv6Header14setDestAddressERKNS_11Ipv6AddressE @272
    _ZN4inet10Ipv6Header15setTrafficClassEs @273
    _ZN4inet10Ipv6Header16setPayloadLengthENS_5units5valueIxNS1_8intscaleINS1_5units1bELi1ELi8EEEEE @274
    _ZN4inet10Ipv6Header18addExtensionHeaderEPNS_19Ipv6ExtensionHeaderE @275
    _ZN4inet10Ipv6Header18setExtensionHeaderEyPNS_19Ipv6ExtensionHeaderE @276
    _ZN4inet10Ipv6Header20eraseExtensionHeaderEy @277
    _ZN4inet10Ipv6Header21appendExtensionHeaderEPNS_19Ipv6ExtensionHeaderE @278
    _ZN4inet10Ipv6Header21insertExtensionHeaderEyPNS_19Ipv6ExtensionHeaderE @279
    _ZN4inet10Ipv6Header21removeExtensionHeaderENS_12IpProtocolIdE @280
    _ZN4inet10Ipv6Header21removeExtensionHeaderEy @281
    _ZN4inet10Ipv6Header26removeFirstExtensionHeaderEv @282
    _ZN4inet10Ipv6Header27setExtensionHeaderArraySizeEy @283
    _ZN4inet10Ipv6Header34findExtensionHeaderByTypeForUpdateENS_12IpProtocolIdEi @284
    _ZN4inet10Ipv6Header4copyERKS0_ @285
    _ZN4inet10Ipv6Header6setEcnEs @286
    _ZN4inet10Ipv6Header7setDscpEs @287
    _ZN4inet10Ipv6HeaderC1ERKS0_ @288
    _ZN4inet10Ipv6HeaderC1Ev @289
    _ZN4inet10Ipv6HeaderC2ERKS0_ @290
    _ZN4inet10Ipv6HeaderC2Ev @291
    _ZN4inet10Ipv6HeaderD0Ev @292
    _ZN4inet10Ipv6HeaderD1Ev @293
    _ZN4inet10Ipv6HeaderD2Ev @294
    _ZN4inet10Ipv6HeaderaSERKS0_ @295
    _ZN4inet10Ipv6Socket11setCallbackEPNS_14INetworkSocket9ICallbackE @296
    _ZN4inet10Ipv6Socket12sendToOutputEPN7omnetpp8cMessageE @297
    _ZN4inet10Ipv6Socket14processMessageEPN7omnetpp8cMessageE @298
    _ZN4inet10Ipv6Socket4bindEPKNS_8ProtocolENS_11Ipv6AddressE @299
    _ZN4inet10Ipv6Socket4sendEPNS_6PacketE @300
    _ZN4inet10Ipv6Socket5closeEv @301
    _ZN4inet10Ipv6Socket6sendToEPNS_6PacketENS_11Ipv6AddressE @302
    _ZN4inet10Ipv6Socket7connectENS_11Ipv6AddressE @303
    _ZN4inet10Ipv6Socket7destroyEv @304
    _ZN4inet10Ipv6SocketC1EPN7omnetpp5cGateE @305
    _ZN4inet10Ipv6SocketC2EPN7omnetpp5cGateE @306
    _ZN4inet10LdpAddress12parsimUnpackEPN7omnetpp11cCommBufferE @307
    _ZN4inet10LdpAddress12setAddressesEyPKc @308
    _ZN4inet10LdpAddress13setIsWithdrawEb @309
    _ZN4inet10LdpAddress14eraseAddressesEy @310
    _ZN4inet10LdpAddress15appendAddressesEPKc @311
    _ZN4inet10LdpAddress15insertAddressesEyPKc @312
    _ZN4inet10LdpAddress21setAddressesArraySizeEy @313
    _ZN4inet10LdpAddress4copyERKS0_ @314
    _ZN4inet10LdpAddress9setFamilyEPKc @315
    _ZN4inet10LdpAddressC1ERKS0_ @316
    _ZN4inet10LdpAddressC1Ev @317
    _ZN4inet10LdpAddressC2ERKS0_ @318
    _ZN4inet10LdpAddressC2Ev @319
    _ZN4inet10LdpAddressD0Ev @320
    _ZN4inet10LdpAddressD1Ev @321
    _ZN4inet10LdpAddressD2Ev @322
    _ZN4inet10LdpAddressaSERKS0_ @323
    _ZN4inet10MacAddress10setAddressEPKc @324
    _ZN4inet10MacAddress14setAddressByteEjh @325
    _ZN4inet10MacAddress15setAddressBytesEPh @326
    _ZN4inet10MacAddress17BROADCAST_ADDRESSE @327 DATA
    _ZN4inet10MacAddress19UNSPECIFIED_ADDRESSE @328 DATA
    _ZN4inet10MacAddress19generateAutoAddressEv @329
    _ZN4inet10MacAddress21CDP_MULTICAST_ADDRESSE @330 DATA
    _ZN4inet10MacAddress21STP_MULTICAST_ADDRESSE @331 DATA
    _ZN4inet10MacAddress22LLDP_MULTICAST_ADDRESSE @332 DATA
    _ZN4inet10MacAddress23MULTICAST_PAUSE_ADDRESSE @333 DATA
    _ZN4inet10MacAddress8tryParseEPKc @334
    _ZN4inet10MoBanLocal10initializeEi @335
    _ZN4inet10MoBanLocal15computeMaxSpeedEv @336
    _ZN4inet10MoBanLocal17setTargetPositionEv @337
    _ZN4inet10MoBanLocal18getCurrentPositionEv @338
    _ZN4inet10MoBanLocal18getCurrentVelocityEv @339
    _ZN4inet10MoBanLocal18setInitialPositionEv @340
    _ZN4inet10MoBanLocal18setMoBANParametersENS_5CoordEdd @341
    _ZN4inet10MoBanLocalC1Ev @342
    _ZN4inet10MoBanLocalC2Ev @343
    _ZN4inet10MplsHeader12parsimUnpackEPN7omnetpp11cCommBufferE @344
    _ZN4inet10MplsHeader4copyERKS0_ @345
    _ZN4inet10MplsHeader4setSEb @346
    _ZN4inet10MplsHeader5setTcEh @347
    _ZN4inet10MplsHeader6setTtlEh @348
    _ZN4inet10MplsHeader8setLabelEj @349
    _ZN4inet10MplsHeaderC1ERKS0_ @350
    _ZN4inet10MplsHeaderC1Ev @351
    _ZN4inet10MplsHeaderC2ERKS0_ @352
    _ZN4inet10MplsHeaderC2Ev @353
    _ZN4inet10MplsHeaderD0Ev @354
    _ZN4inet10MplsHeaderD1Ev @355
    _ZN4inet10MplsHeaderD2Ev @356
    _ZN4inet10MplsHeaderaSERKS0_ @357
    _ZN4inet10MultiClock10initializeEi @358
    _ZN4inet10MultiClock13receiveSignalEPN7omnetpp10cComponentEiRKNS1_7SimTimeEPNS1_7cObjectE @359
    _ZN4inet10MultiClock21handleParameterChangeEPKc @360
    _ZN4inet10NodeStatus10initializeEi @361
    _ZN4inet10NodeStatus14getStateByNameEPKc @362
    _ZN4inet10NodeStatus20handleOperationStageEPNS_18LifecycleOperationEPNS_13IDoneCallbackE @363
    _ZN4inet10NodeStatus23nodeStatusChangedSignalE @364 DATA
    _ZN4inet10NodeStatus8setStateENS0_5StateE @365
    _ZN4inet10PcapReader10readPacketEv @366
    _ZN4inet10PcapReader8openPcapEPKcS2_ @367
    _ZN4inet10PcapReader9closePcapEv @368
    _ZN4inet10PcapWriter11writeHeaderENS_12PcapLinkTypeE @369
    _ZN4inet10PcapWriter11writePacketEN7omnetpp7SimTimeEPKNS_6PacketENS_9DirectionEPNS_16NetworkInterfaceENS_12PcapLinkTypeE @370
    _ZN4inet10PcapWriter4openEPKcj @371
    _ZN4inet10PcapWriter5closeEv @372
    _ZN4inet10PcapWriterD0Ev @373
    _ZN4inet10PcapWriterD1Ev @374
    _ZN4inet10PcapWriterD2Ev @375
    _ZN4inet10PcpTagBase12parsimUnpackEPN7omnetpp11cCommBufferE @376
    _ZN4inet10PcpTagBase4copyERKS0_ @377
    _ZN4inet10PcpTagBase6setPcpEi @378
    _ZN4inet10PcpTagBaseC1ERKS0_ @379
    _ZN4inet10PcpTagBaseC1Ev @380
    _ZN4inet10PcpTagBaseC2ERKS0_ @381
    _ZN4inet10PcpTagBaseC2Ev @382
    _ZN4inet10PcpTagBaseD0Ev @383
    _ZN4inet10PcpTagBaseD1Ev @384
    _ZN4inet10PcpTagBaseD2Ev @385
    _ZN4inet10PcpTagBaseaSERKS0_ @386
    _ZN4inet10PlotFigure11addChildrenEv @387
    _ZN4inet10PlotFigure11setPlotSizeERKN7omnetpp7cFigure5PointE @388
    _ZN4inet10PlotFigure12redrawXTicksEv @389
    _ZN4inet10PlotFigure12redrawYTicksEv @390
    _ZN4inet10PlotFigure12setLabelFontERKN7omnetpp7cFigure4FontE @391
    _ZN4inet10PlotFigure12setLineColorEiRKN7omnetpp7cFigure5ColorE @392
    _ZN4inet10PlotFigure12setNumSeriesEi @393
    _ZN4inet10PlotFigure12setXTickSizeEd @394
    _ZN4inet10PlotFigure12setYTickSizeEd @395
    _ZN4inet10PlotFigure13setLabelColorERKN7omnetpp7cFigure5ColorE @396
    _ZN4inet10PlotFigure13setTimeWindowEd @397
    _ZN4inet10PlotFigure13setXTickCountEi @398
    _ZN4inet10PlotFigure13setYTickCountEi @399
    _ZN4inet10PlotFigure14refreshDisplayEv @400
    _ZN4inet10PlotFigure14setLabelOffsetEi @401
    _ZN4inet10PlotFigure18setBackgroundColorERKN7omnetpp7cFigure5ColorE @402
    _ZN4inet10PlotFigure4plotEv @403
    _ZN4inet10PlotFigure5parseEPN7omnetpp9cPropertyE @404
    _ZN4inet10PlotFigure6layoutEv @405
    _ZN4inet10PlotFigure7setMaxXEd @406
    _ZN4inet10PlotFigure7setMaxYEd @407
    _ZN4inet10PlotFigure7setMinXEd @408
    _ZN4inet10PlotFigure7setMinYEd @409
    _ZN4inet10PlotFigure8setValueEidd @410
    _ZN4inet10PlotFigure9setBoundsERKN7omnetpp7cFigure9RectangleE @411
    _ZN4inet10PlotFigureC1EPKc @412
    _ZN4inet10PlotFigureC2EPKc @413
    _ZN4inet10Polyhedron10mergeFacesEPNS_14PolyhedronFaceES2_PNS_15PolyhedronPointE @414
    _ZN4inet10Polyhedron12connectFacesEPNS_14PolyhedronFaceE @415
    _ZN4inet10Polyhedron15buildConvexHullEv @416
    _ZN4inet10Polyhedron17purgeWrappedFacesEv @417
    _ZN4inet10Polyhedron18cleanConflictGraphERKSt6vectorIPNS_14PolyhedronFaceESaIS3_EE @418
    _ZN4inet10Polyhedron18purgeConflictFacesERKSt6vectorIPNS_14PolyhedronFaceESaIS3_EE @419
    _ZN4inet10Polyhedron23initializeConflictGraphEv @420
    _ZN4inet10Polyhedron24createInitialTetrahedronEv @421
    _ZN4inet10Polyhedron25setContlictListForNewFaceEPNS_14PolyhedronFaceEPKS1_S4_ @422
    _ZN4inet10Polyhedron30generateAndAddTetrahedronFacesERKSt6vectorIPNS_15PolyhedronPointESaIS3_EE @423
    _ZN4inet10Polyhedron7addFaceEPNS_14PolyhedronFaceE @424
    _ZN4inet10PolyhedronC1ERKSt6vectorINS_5CoordESaIS2_EE @425
    _ZN4inet10PolyhedronC2ERKSt6vectorINS_5CoordESaIS2_EE @426
    _ZN4inet10PolyhedronD0Ev @427
    _ZN4inet10PolyhedronD1Ev @428
    _ZN4inet10PolyhedronD2Ev @429
    _ZN4inet10PppTrailer12parsimUnpackEPN7omnetpp11cCommBufferE @430
    _ZN4inet10PppTrailer4copyERKS0_ @431
    _ZN4inet10PppTrailer6setFcsEs @432
    _ZN4inet10PppTrailer7setFlagEs @433
    _ZN4inet10PppTrailerC1ERKS0_ @434
    _ZN4inet10PppTrailerC1Ev @435
    _ZN4inet10PppTrailerC2ERKS0_ @436
    _ZN4inet10PppTrailerC2Ev @437
    _ZN4inet10PppTrailerD0Ev @438
    _ZN4inet10PppTrailerD1Ev @439
    _ZN4inet10PppTrailerD2Ev @440
    _ZN4inet10PppTraileraSERKS0_ @441
    _ZN4inet10Quaternion14rotationFromToERKNS_5CoordES3_ @442
    _ZN4inet10Quaternion3NILE @443 DATA
    _ZN4inet10Quaternion5slerpERKS0_S2_d @444
    _ZN4inet10Quaternion8IDENTITYE @445 DATA
    _ZN4inet10QuaternionC1ERKNS_11EulerAnglesE @446
    _ZN4inet10QuaternionC1ERKNS_5CoordEd @447
    _ZN4inet10QuaternionC2ERKNS_11EulerAnglesE @448
    _ZN4inet10QuaternionC2ERKNS_5CoordEd @449
    _ZN4inet10QuaternionmLERKS0_ @450
    _ZN4inet10Reordering10initializeEi @451
    _ZN4inet10Reordering10pushPacketEPNS_6PacketEPN7omnetpp5cGateE @452
    _ZN4inet10ReorderingD0Ev @453
    _ZN4inet10ReorderingD1Ev @454
    _ZN4inet10ReorderingD2Ev @455
    _ZN4inet10RsvpHopObjC1Ev @456
    _ZN4inet10RsvpHopObjC2Ev @457
    _ZN4inet10RsvpPacket10setSessionERKNS_10SessionObjE @458
    _ZN4inet10RsvpPacket12parsimUnpackEPN7omnetpp11cCommBufferE @459
    _ZN4inet10RsvpPacket16setChecksumValidEb @460
    _ZN4inet10RsvpPacket4copyERKS0_ @461
    _ZN4inet10RsvpPacketC1ERKS0_ @462
    _ZN4inet10RsvpPacketC1Ev @463
    _ZN4inet10RsvpPacketC2ERKS0_ @464
    _ZN4inet10RsvpPacketC2Ev @465
    _ZN4inet10RsvpPacketD0Ev @466
    _ZN4inet10RsvpPacketD1Ev @467
    _ZN4inet10RsvpPacketD2Ev @468
    _ZN4inet10RsvpPacketaSERKS0_ @469
    _ZN4inet10SctpClient10initializeEi @470
    _ZN4inet10SctpClient11handleTimerEPN7omnetpp8cMessageE @471
    _ZN4inet10SctpClient11sendRequestEb @472
    _ZN4inet10SctpClient12socketClosedEPNS_10SctpSocketE @473
    _ZN4inet10SctpClient13handleMessageEPN7omnetpp8cMessageE @474
    _ZN4inet10SctpClient13socketFailureEPNS_10SctpSocketEi @475
    _ZN4inet10SctpClient14echoedPkSignalE @476 DATA
    _ZN4inet10SctpClient14setPrimaryPathEPKc @477
    _ZN4inet10SctpClient16sendQueueRequestEv @478
    _ZN4inet10SctpClient16socketPeerClosedEPNS_10SctpSocketE @479
    _ZN4inet10SctpClient17socketDataArrivedEPNS_10SctpSocketEPNS_6PacketEb @480
    _ZN4inet10SctpClient17socketEstablishedEPNS_10SctpSocketEm @481
    _ZN4inet10SctpClient18sendRequestArrivedEPNS_10SctpSocketE @482
    _ZN4inet10SctpClient19msgAbandonedArrivedEPNS_10SctpSocketE @483
    _ZN4inet10SctpClient19socketStatusArrivedEPNS_10SctpSocketEPNS_13SctpStatusReqE @484
    _ZN4inet10SctpClient22sendqueueAbatedArrivedEPNS_10SctpSocketEm @485
    _ZN4inet10SctpClient23shutdownReceivedArrivedEPNS_10SctpSocketE @486
    _ZN4inet10SctpClient27sendStreamResetNotificationEv @487
    _ZN4inet10SctpClient29socketDataNotificationArrivedEPNS_10SctpSocketEPNS_7MessageE @488
    _ZN4inet10SctpClient5closeEv @489
    _ZN4inet10SctpClient6finishEv @490
    _ZN4inet10SctpClient7connectEv @491
    _ZN4inet10SctpClientC1Ev @492
    _ZN4inet10SctpClientC2Ev @493
    _ZN4inet10SctpClientD0Ev @494
    _ZN4inet10SctpClientD1Ev @495
    _ZN4inet10SctpClientD2Ev @496
    _ZN4inet10SctpRcvReq12parsimUnpackEPN7omnetpp11cCommBufferE @497
    _ZN4inet10SctpRcvReq4copyERKS0_ @498
    _ZN4inet10SctpRcvReq6setTsnEj @499
    _ZN4inet10SctpRcvReq7setPpidEj @500
    _ZN4inet10SctpRcvReq9setCumTsnEj @501
    _ZN4inet10SctpRcvReqC1ERKS0_ @502
    _ZN4inet10SctpRcvReqC1Ev @503
    _ZN4inet10SctpRcvReqC2ERKS0_ @504
    _ZN4inet10SctpRcvReqC2Ev @505
    _ZN4inet10SctpRcvReqD0Ev @506
    _ZN4inet10SctpRcvReqD1Ev @507
    _ZN4inet10SctpRcvReqD2Ev @508
    _ZN4inet10SctpRcvReqaSERKS0_ @509
    _ZN4inet10SctpRtoReq12parsimUnpackEPN7omnetpp11cCommBufferE @510
    _ZN4inet10SctpRtoReq13setRtoInitialEd @511
    _ZN4inet10SctpRtoReq4copyERKS0_ @512
    _ZN4inet10SctpRtoReq9setRtoMaxEd @513
    _ZN4inet10SctpRtoReq9setRtoMinEd @514
    _ZN4inet10SctpRtoReqC1ERKS0_ @515
    _ZN4inet10SctpRtoReqC1Ev @516
    _ZN4inet10SctpRtoReqC2ERKS0_ @517
    _ZN4inet10SctpRtoReqC2Ev @518
    _ZN4inet10SctpRtoReqD0Ev @519
    _ZN4inet10SctpRtoReqD1Ev @520
    _ZN4inet10SctpRtoReqD2Ev @521
    _ZN4inet10SctpRtoReqaSERKS0_ @522
    _ZN4inet10SctpServer10initializeEi @523
    _ZN4inet10SctpServer11handleTimerEPN7omnetpp8cMessageE @524
    _ZN4inet10SctpServer13handleMessageEPN7omnetpp8cMessageE @525
    _ZN4inet10SctpServer14sendOrScheduleEPN7omnetpp8cMessageE @526
    _ZN4inet10SctpServer14sendOrScheduleEPNS_6PacketE @527
    _ZN4inet10SctpServer14sendOrScheduleEPNS_7MessageE @528
    _ZN4inet10SctpServer15generateAndSendEv @529
    _ZN4inet10SctpServer18makeDefaultReceiveEv @530
    _ZN4inet10SctpServer18makeReceiveRequestEPN7omnetpp8cMessageE @531
    _ZN4inet10SctpServer21makeAbortNotificationEPKNS_14SctpCommandReqE @532
    _ZN4inet10SctpServer6finishEv @533
    _ZN4inet10SctpServerC1Ev @534
    _ZN4inet10SctpServerC2Ev @535
    _ZN4inet10SctpServerD0Ev @536
    _ZN4inet10SctpServerD1Ev @537
    _ZN4inet10SctpServerD2Ev @538
    _ZN4inet10SctpSocket10addAddressENS_9L3AddressE @539
    _ZN4inet10SctpSocket10sendToSctpEPN7omnetpp8cMessageE @540
    _ZN4inet10SctpSocket10setRtoInfoEddd @541
    _ZN4inet10SctpSocket11nextAssocIdE @542 DATA
    _ZN4inet10SctpSocket11sendRequestEPN7omnetpp8cMessageE @543
    _ZN4inet10SctpSocket11setCallbackEPNS0_9ICallbackE @544
    _ZN4inet10SctpSocket12acceptSocketEi @545
    _ZN4inet10SctpSocket13requestStatusEv @546
    _ZN4inet10SctpSocket14processMessageEPN7omnetpp8cMessageE @547
    _ZN4inet10SctpSocket16getSocketOptionsEv @548
    _ZN4inet10SctpSocket16sendNotificationEPN7omnetpp8cMessageE @549
    _ZN4inet10SctpSocket17setStreamPriorityEjj @550
    _ZN4inet10SctpSocket4bindENS_9L3AddressEi @551
    _ZN4inet10SctpSocket4bindEi @552
    _ZN4inet10SctpSocket4sendEPNS_6PacketE @553
    _ZN4inet10SctpSocket5abortEv @554
    _ZN4inet10SctpSocket5bindxESt6vectorINS_9L3AddressESaIS2_EEi @555
    _ZN4inet10SctpSocket5closeEi @556
    _ZN4inet10SctpSocket6acceptEii @557
    _ZN4inet10SctpSocket6listenEbbjj @558
    _ZN4inet10SctpSocket6listenEjbjbi @559
    _ZN4inet10SctpSocket7connectENS_9L3AddressEibij @560
    _ZN4inet10SctpSocket7connectEiNS_9L3AddressEijb @561
    _ZN4inet10SctpSocket7destroyEv @562
    _ZN4inet10SctpSocket8connectxESt6vectorINS_9L3AddressESaIS2_EEibij @563
    _ZN4inet10SctpSocket8shutdownEi @564
    _ZN4inet10SctpSocket9stateNameEi @565
    _ZN4inet10SctpSocketC1EPN7omnetpp8cMessageE @566
    _ZN4inet10SctpSocketC1Eb @567
    _ZN4inet10SctpSocketC2EPN7omnetpp8cMessageE @568
    _ZN4inet10SctpSocketC2Eb @569
    _ZN4inet10SctpSocketD0Ev @570
    _ZN4inet10SctpSocketD1Ev @571
    _ZN4inet10SctpSocketD2Ev @572
    _ZN4inet10SendToPort10initializeEi @573
    _ZN4inet10SendToPort13processPacketEPNS_6PacketE @574
    _ZN4inet10SessionObjC1Ev @575
    _ZN4inet10SessionObjC2Ev @576
    _ZN4inet10SliceChunk12convertChunkERKSt9type_infoRKNS_12IntrusivePtrINS_5ChunkEEENS_5units5valueIxNS9_5units1bEEESD_i @577
    _ZN4inet10SliceChunk12forEachChildEPN7omnetpp8cVisitorE @578
    _ZN4inet10SliceChunk12parsimUnpackEPN7omnetpp11cCommBufferE @579
    _ZN4inet10SliceChunk14doInsertAtBackERKNS_12IntrusivePtrIKNS_5ChunkEEE @580
    _ZN4inet10SliceChunk14doRemoveAtBackENS_5units5valueIxNS1_5units1bEEE @581
    _ZN4inet10SliceChunk15doInsertAtFrontERKNS_12IntrusivePtrIKNS_5ChunkEEE @582
    _ZN4inet10SliceChunk15doRemoveAtFrontENS_5units5valueIxNS1_5units1bEEE @583
    _ZN4inet10SliceChunk9setLengthENS_5units5valueIxNS1_5units1bEEE @584
    _ZN4inet10SliceChunk9setOffsetENS_5units5valueIxNS1_5units1bEEE @585
    _ZN4inet10SliceChunkC1ERKNS_12IntrusivePtrINS_5ChunkEEENS_5units5valueIxNS6_5units1bEEESA_ @586
    _ZN4inet10SliceChunkC1Ev @587
    _ZN4inet10SliceChunkC2ERKNS_12IntrusivePtrINS_5ChunkEEENS_5units5valueIxNS6_5units1bEEESA_ @588
    _ZN4inet10SliceChunkC2Ev @589
    _ZN4inet10SocketBase4sendEPNS_6PacketE @590
    _ZN4inet10SocketBase5closeEv @591
    _ZN4inet10SocketBase7destroyEv @592
    _ZN4inet10SocketBase7sendOutEPN7omnetpp8cMessageE @593
    _ZN4inet10SocketBaseC2Ev @594
    _ZN4inet10TcpAppBase10initializeEi @595
    _ZN4inet10TcpAppBase10sendPacketEPNS_6PacketE @596
    _ZN4inet10TcpAppBase12socketClosedEPNS_9TcpSocketE @597
    _ZN4inet10TcpAppBase13connectSignalE @598 DATA
    _ZN4inet10TcpAppBase13socketFailureEPNS_9TcpSocketEi @599
    _ZN4inet10TcpAppBase16socketPeerClosedEPNS_9TcpSocketE @600
    _ZN4inet10TcpAppBase17socketDataArrivedEPNS_9TcpSocketEPNS_6PacketEb @601
    _ZN4inet10TcpAppBase17socketEstablishedEPNS_9TcpSocketE @602
    _ZN4inet10TcpAppBase19handleMessageWhenUpEPN7omnetpp8cMessageE @603
    _ZN4inet10TcpAppBase5closeEv @604
    _ZN4inet10TcpAppBase6finishEv @605
    _ZN4inet10TcpAppBase7connectEv @606
    _ZN4inet10TcpCommand12parsimUnpackEPN7omnetpp11cCommBufferE @607
    _ZN4inet10TcpCommand4copyERKS0_ @608
    _ZN4inet10TcpCommand9setUserIdEi @609
    _ZN4inet10TcpCommandC1ERKS0_ @610
    _ZN4inet10TcpCommandC1Ev @611
    _ZN4inet10TcpCommandC2ERKS0_ @612
    _ZN4inet10TcpCommandC2Ev @613
    _ZN4inet10TcpCommandD0Ev @614
    _ZN4inet10TcpCommandD1Ev @615
    _ZN4inet10TcpCommandD2Ev @616
    _ZN4inet10TcpCommandaSERKS0_ @617
    _ZN4inet10TcpEchoApp10initializeEi @618
    _ZN4inet10TcpEchoApp6finishEv @619
    _ZN4inet10TcpEchoApp8sendDownEPNS_6PacketE @620
    _ZN4inet10TcpEchoAppC1Ev @621
    _ZN4inet10TcpEchoAppC2Ev @622
    _ZN4inet10TcpEchoAppD0Ev @623
    _ZN4inet10TcpEchoAppD1Ev @624
    _ZN4inet10TcpEchoAppD2Ev @625
    _ZN4inet10TcpSinkApp10initializeEi @626
    _ZN4inet10TcpSinkApp6finishEv @627
    _ZN4inet10TcpSinkAppC1Ev @628
    _ZN4inet10TcpSinkAppC2Ev @629
    _ZN4inet10TcpSinkAppD0Ev @630
    _ZN4inet10TcpSinkAppD1Ev @631
    _ZN4inet10TcpSinkAppD2Ev @632
    _ZN4inet10TlvOptions12parsimUnpackEPN7omnetpp11cCommBufferE @633
    _ZN4inet10TlvOptions12setTlvOptionEyPNS_13TlvOptionBaseE @634
    _ZN4inet10TlvOptions13dropTlvOptionEPNS_13TlvOptionBaseE @635
    _ZN4inet10TlvOptions14eraseTlvOptionEy @636
    _ZN4inet10TlvOptions15appendTlvOptionEPNS_13TlvOptionBaseE @637
    _ZN4inet10TlvOptions15insertTlvOptionEyPNS_13TlvOptionBaseE @638
    _ZN4inet10TlvOptions15removeTlvOptionEy @639
    _ZN4inet10TlvOptions18deleteOptionByTypeEib @640
    _ZN4inet10TlvOptions21setTlvOptionArraySizeEy @641
    _ZN4inet10TlvOptions4copyERKS0_ @642
    _ZN4inet10TlvOptionsC1ERKS0_ @643
    _ZN4inet10TlvOptionsC1Ev @644
    _ZN4inet10TlvOptionsC2ERKS0_ @645
    _ZN4inet10TlvOptionsC2Ev @646
    _ZN4inet10TlvOptionsD0Ev @647
    _ZN4inet10TlvOptionsD1Ev @648
    _ZN4inet10TlvOptionsD2Ev @649
    _ZN4inet10TlvOptionsaSERKS0_ @650
    _ZN4inet10TosTagBase12parsimUnpackEPN7omnetpp11cCommBufferE @651
    _ZN4inet10TosTagBase4copyERKS0_ @652
    _ZN4inet10TosTagBase6setTosEi @653
    _ZN4inet10TosTagBaseC1ERKS0_ @654
    _ZN4inet10TosTagBaseC1Ev @655
    _ZN4inet10TosTagBaseC2ERKS0_ @656
    _ZN4inet10TosTagBaseC2Ev @657
    _ZN4inet10TosTagBaseD0Ev @658
    _ZN4inet10TosTagBaseD1Ev @659
    _ZN4inet10TosTagBaseD2Ev @660
    _ZN4inet10TosTagBaseaSERKS0_ @661
    _ZN4inet10UdpEchoApp10initializeEi @662
    _ZN4inet10UdpEchoApp12socketClosedEPNS_9UdpSocketE @663
    _ZN4inet10UdpEchoApp17socketDataArrivedEPNS_9UdpSocketEPNS_6PacketE @664
    _ZN4inet10UdpEchoApp18socketErrorArrivedEPNS_9UdpSocketEPNS_10IndicationE @665
    _ZN4inet10UdpEchoApp19handleMessageWhenUpEPN7omnetpp8cMessageE @666
    _ZN4inet10UdpEchoApp19handleStopOperationEPNS_18LifecycleOperationE @667
    _ZN4inet10UdpEchoApp20handleCrashOperationEPNS_18LifecycleOperationE @668
    _ZN4inet10UdpEchoApp20handleStartOperationEPNS_18LifecycleOperationE @669
    _ZN4inet10UdpEchoApp6finishEv @670
    _ZN4inet10visualizer10GateFilter10setPatternEPKc @671
    _ZN4inet10visualizer10PacketDropC1ENS_16PacketDropReasonEPKN7omnetpp7cPacketEiRKNS_5CoordE @672
    _ZN4inet10visualizer10PacketDropC2ENS_16PacketDropReasonEPKN7omnetpp7cPacketEiRKNS_5CoordE @673
    _ZN4inet10visualizer10PacketDropD0Ev @674
    _ZN4inet10visualizer10PacketDropD1Ev @675
    _ZN4inet10visualizer10PacketDropD2Ev @676
    _ZN4inet10visualizer10PortFilter10setPatternEPKc @677
    _ZN4inet10visualizer11LineManager12getLineShiftEiiRKNS_5CoordES4_PKci @678
    _ZN4inet10visualizer11LineManager13addModuleLineEPKNS1_10ModuleLineE @679
    _ZN4inet10visualizer11LineManager13addModulePathEPKNS1_10ModulePathE @680
    _ZN4inet10visualizer11LineManager13updateOffsetsEPKNS1_10ModuleLineE @681
    _ZN4inet10visualizer11LineManager13updateOffsetsEPKNS1_10ModulePathE @682
    _ZN4inet10visualizer11LineManager13updateOffsetsEii @683
    _ZN4inet10visualizer11LineManager15osgLineManagersE @684 DATA
    _ZN4inet10visualizer11LineManager16removeModuleLineEPKNS1_10ModuleLineE @685
    _ZN4inet10visualizer11LineManager16removeModulePathEPKNS1_10ModulePathE @686
    _ZN4inet10visualizer11LineManager17getOsgLineManagerEPKN7omnetpp7cCanvasE @687
    _ZN4inet10visualizer11LineManager18canvasLineManagersE @688 DATA
    _ZN4inet10visualizer11LineManager18compareModuleLinesEPKNS1_10ModuleLineES4_ @689
    _ZN4inet10visualizer11LineManager18compareModulePathsESt4pairIPKNS1_10ModulePathEiES6_ @690
    _ZN4inet10visualizer11LineManager20getCanvasLineManagerEPKN7omnetpp7cCanvasE @691
    _ZN4inet10visualizer11QueueFilter10setPatternEPKc @692
    _ZN4inet10visualizer12ModuleFilter10setPatternEPKc @693
    _ZN4inet10visualizer14VisualizerBase10initializeEi @694
    _ZN4inet10visualizer15InterfaceFilter10setPatternEPKc @695
    _ZN4inet10visualizer17AnimationPositionC1EN7omnetpp7SimTimeEdd @696
    _ZN4inet10visualizer17AnimationPositionC1Ev @697
    _ZN4inet10visualizer17AnimationPositionC2EN7omnetpp7SimTimeEdd @698
    _ZN4inet10visualizer17AnimationPositionC2Ev @699
    _ZN4inet10visualizer17AnimationPositionaSERKS1_ @700
    _ZN4inet10visualizer17NetworkNodeFilter10setPatternEPKc @701
    _ZN4inet10visualizer18InfoVisualizerBase10initializeEi @702
    _ZN4inet10visualizer18InfoVisualizerBase17InfoVisualizationC1Ei @703
    _ZN4inet10visualizer18InfoVisualizerBase17InfoVisualizationC2Ei @704
    _ZN4inet10visualizer18InfoVisualizerBase20addInfoVisualizationEPKNS1_17InfoVisualizationE @705
    _ZN4inet10visualizer18InfoVisualizerBase21addInfoVisualizationsEv @706
    _ZN4inet10visualizer18InfoVisualizerBase21handleParameterChangeEPKc @707
    _ZN4inet10visualizer18InfoVisualizerBase23removeInfoVisualizationEPKNS1_17InfoVisualizationE @708
    _ZN4inet10visualizer18InfoVisualizerBase27removeAllInfoVisualizationsEv @709
    _ZN4inet10visualizer18InfoVisualizerBase9preDeleteEPN7omnetpp10cComponentE @710
    _ZN4inet10visualizer18LinkVisualizerBase10initializeEi @711
    _ZN4inet10visualizer18LinkVisualizerBase11unsubscribeEv @712
    _ZN4inet10visualizer18LinkVisualizerBase13getLastModuleEi @713
    _ZN4inet10visualizer18LinkVisualizerBase13receiveSignalEPN7omnetpp10cComponentEiPNS2_7cObjectES6_ @714
    _ZN4inet10visualizer18LinkVisualizerBase13setLastModuleEiPN7omnetpp7cModuleE @715
    _ZN4inet10visualizer18LinkVisualizerBase16removeLastModuleEi @716
    _ZN4inet10visualizer18LinkVisualizerBase17LinkVisualizationC1Eii @717
    _ZN4inet10visualizer18LinkVisualizerBase17LinkVisualizationC2Eii @718
    _ZN4inet10visualizer18LinkVisualizerBase20addLinkVisualizationESt4pairIiiEPKNS1_17LinkVisualizationE @719
    _ZN4inet10visualizer18LinkVisualizerBase20getLinkVisualizationESt4pairIiiE @720
    _ZN4inet10visualizer18LinkVisualizerBase21handleParameterChangeEPKc @721
    _ZN4inet10visualizer18LinkVisualizerBase23removeLinkVisualizationEPKNS1_17LinkVisualizationE @722
    _ZN4inet10visualizer18LinkVisualizerBase23updateLinkVisualizationEPN7omnetpp7cModuleES4_PNS2_7cPacketE @723
    _ZN4inet10visualizer18LinkVisualizerBase24refreshLinkVisualizationEPKNS1_17LinkVisualizationEPN7omnetpp7cPacketE @724
    _ZN4inet10visualizer18LinkVisualizerBase27removeAllLinkVisualizationsEv @725
    _ZN4inet10visualizer18LinkVisualizerBase9preDeleteEPN7omnetpp10cComponentE @726
    _ZN4inet10visualizer18LinkVisualizerBase9subscribeEv @727
    _ZN4inet10visualizer18PathVisualizerBase10initializeEi @728
    _ZN4inet10visualizer18PathVisualizerBase11unsubscribeEv @729
    _ZN4inet10visualizer18PathVisualizerBase13receiveSignalEPN7omnetpp10cComponentEiPNS2_7cObjectES6_ @730
    _ZN4inet10visualizer18PathVisualizerBase14processPathEndEPN7omnetpp7cModuleEPKcPNS_6PacketE @731
    _ZN4inet10visualizer18PathVisualizerBase16processPathStartEPN7omnetpp7cModuleEPKcPNS_6PacketE @732
    _ZN4inet10visualizer18PathVisualizerBase17PathVisualizationC1EPKcRKSt6vectorIiSaIiEE @733
    _ZN4inet10visualizer18PathVisualizerBase17PathVisualizationC2EPKcRKSt6vectorIiSaIiEE @734
    _ZN4inet10visualizer18PathVisualizerBase17getIncompletePathERKNSt7__cxx1112basic_stringIcSt11char_traitsIcESaIcEEEi @735
    _ZN4inet10visualizer18PathVisualizerBase18processPathElementEPN7omnetpp7cModuleEPKcPNS_6PacketE @736
    _ZN4inet10visualizer18PathVisualizerBase19addToIncompletePathERKNSt7__cxx1112basic_stringIcSt11char_traitsIcESaIcEEEiPN7omnetpp7cModuleE @737
    _ZN4inet10visualizer18PathVisualizerBase20addPathVisualizationEPKNS1_17PathVisualizationE @738
    _ZN4inet10visualizer18PathVisualizerBase20getPathVisualizationERKSt6vectorIiSaIiEE @739
    _ZN4inet10visualizer18PathVisualizerBase20removeIncompletePathERKNSt7__cxx1112basic_stringIcSt11char_traitsIcESaIcEEEi @740
    _ZN4inet10visualizer18PathVisualizerBase21handleParameterChangeEPKc @741
    _ZN4inet10visualizer18PathVisualizerBase23removePathVisualizationEPKNS1_17PathVisualizationE @742
    _ZN4inet10visualizer18PathVisualizerBase24refreshPathVisualizationEPKNS1_17PathVisualizationEPN7omnetpp7cPacketE @743
    _ZN4inet10visualizer18PathVisualizerBase27removeAllPathVisualizationsEv @744
    _ZN4inet10visualizer18PathVisualizerBase9preDeleteEPN7omnetpp10cComponentE @745
    _ZN4inet10visualizer18PathVisualizerBase9subscribeEv @746
    _ZN4inet10visualizer18TreeVisualizerBase10initializeEi @747
    _ZN4inet10visualizer18TreeVisualizerBase17TreeVisualizationC1ERKSt6vectorIS3_IiSaIiEESaIS5_EE @748
    _ZN4inet10visualizer18TreeVisualizerBase17TreeVisualizationC2ERKSt6vectorIS3_IiSaIiEESaIS5_EE @749
    _ZN4inet10visualizer18TreeVisualizerBase20addTreeVisualizationEPKNS1_17TreeVisualizationE @750
    _ZN4inet10visualizer18TreeVisualizerBase21handleParameterChangeEPKc @751
    _ZN4inet10visualizer18TreeVisualizerBase23removeTreeVisualizationEPKNS1_17TreeVisualizationE @752
    _ZN4inet10visualizer18TreeVisualizerBase27removeAllTreeVisualizationsEv @753
    _ZN4inet10visualizer18TreeVisualizerBase9preDeleteEPN7omnetpp10cComponentE @754
    _ZN4inet10visualizer19QueueVisualizerBase10initializeEi @755
    _ZN4inet10visualizer19QueueVisualizerBase12QueueVisitor5visitEPN7omnetpp7cObjectE @756
    _ZN4inet10visualizer19QueueVisualizerBase18QueueVisualizationC1EPNS_8queueing12IPacketQueueE @757
    _ZN4inet10visualizer19QueueVisualizerBase18QueueVisualizationC2EPNS_8queueing12IPacketQueueE @758
    _ZN4inet10visualizer19QueueVisualizerBase21addQueueVisualizationEPKNS1_18QueueVisualizationE @759
    _ZN4inet10visualizer19QueueVisualizerBase21handleParameterChangeEPKc @760
    _ZN4inet10visualizer19QueueVisualizerBase22addQueueVisualizationsEv @761
    _ZN4inet10visualizer19QueueVisualizerBase24removeQueueVisualizationEPKNS1_18QueueVisualizationE @762
    _ZN4inet10visualizer19QueueVisualizerBase28removeAllQueueVisualizationsEv @763
    _ZN4inet10visualizer19QueueVisualizerBase9preDeleteEPN7omnetpp10cComponentE @764
    _ZN4inet10visualizer19RadioVisualizerBase10initializeEi @765
    _ZN4inet10visualizer19RadioVisualizerBase11unsubscribeEv @766
    _ZN4inet10visualizer19RadioVisualizerBase13receiveSignalEPN7omnetpp10cComponentEixPNS2_7cObjectE @767
    _ZN4inet10visualizer19RadioVisualizerBase18RadioVisualizationC1Ei @768
    _ZN4inet10visualizer19RadioVisualizerBase18RadioVisualizationC2Ei @769
    _ZN4inet10visualizer19RadioVisualizerBase21addRadioVisualizationEPKNS1_18RadioVisualizationE @770
    _ZN4inet10visualizer19RadioVisualizerBase21getRadioVisualizationEi @771
    _ZN4inet10visualizer19RadioVisualizerBase21handleParameterChangeEPKc @772
    _ZN4inet10visualizer19RadioVisualizerBase24removeRadioVisualizationEPKNS1_18RadioVisualizationE @773
    _ZN4inet10visualizer19RadioVisualizerBase28removeAllRadioVisualizationsEv @774
    _ZN4inet10visualizer19RadioVisualizerBase9preDeleteEPN7omnetpp10cComponentE @775
    _ZN4inet10visualizer19RadioVisualizerBase9subscribeEv @776
    _ZN4inet10visualizer19SceneVisualizerBase10initializeEi @777
    _ZN4inet10visualizer19SceneVisualizerBase14getSceneBoundsEv @778
    _ZN4inet10visualizer20InfoCanvasVisualizer10initializeEi @779
    _ZN4inet10visualizer20InfoCanvasVisualizer20addInfoVisualizationEPKNS0_18InfoVisualizerBase17InfoVisualizationE @780
    _ZN4inet10visualizer20InfoCanvasVisualizer23InfoCanvasVisualizationC1EPNS0_30NetworkNodeCanvasVisualizationEPNS_16BoxedLabelFigureEi @781
    _ZN4inet10visualizer20InfoCanvasVisualizer23InfoCanvasVisualizationC2EPNS0_30NetworkNodeCanvasVisualizationEPNS_16BoxedLabelFigureEi @782
    _ZN4inet10visualizer20InfoCanvasVisualizer23InfoCanvasVisualizationD0Ev @783
    _ZN4inet10visualizer20InfoCanvasVisualizer23InfoCanvasVisualizationD1Ev @784
    _ZN4inet10visualizer20InfoCanvasVisualizer23InfoCanvasVisualizationD2Ev @785
    _ZN4inet10visualizer20InfoCanvasVisualizer23removeInfoVisualizationEPKNS0_18InfoVisualizerBase17InfoVisualizationE @786
    _ZN4inet10visualizer20MediumVisualizerBase10initializeEi @787
    _ZN4inet10visualizer20MediumVisualizerBase13receiveSignalEPN7omnetpp10cComponentEiPNS2_7cObjectES6_ @788
    _ZN4inet10visualizer20MediumVisualizerBase17handleSignalAddedEPKNS_13physicallayer13ITransmissionE @789
    _ZN4inet10visualizer20MediumVisualizerBase19handleSignalRemovedEPKNS_13physicallayer13ITransmissionE @790
    _ZN4inet10visualizer20MediumVisualizerBase21handleParameterChangeEPKc @791
    _ZN4inet10visualizer20MediumVisualizerBase26handleSignalArrivalStartedEPKNS_13physicallayer10IReceptionE @792
    _ZN4inet10visualizer20MediumVisualizerBase9preDeleteEPN7omnetpp10cComponentE @793
    _ZN4inet10visualizer21QueueCanvasVisualizer10initializeEi @794
    _ZN4inet10visualizer21QueueCanvasVisualizer21addQueueVisualizationEPKNS0_19QueueVisualizerBase18QueueVisualizationE @795
    _ZN4inet10visualizer21QueueCanvasVisualizer24QueueCanvasVisualizationC1EPNS0_30NetworkNodeCanvasVisualizationEPNS_11QueueFigureEPNS_8queueing12IPacketQueueE @796
    _ZN4inet10visualizer21QueueCanvasVisualizer24QueueCanvasVisualizationC2EPNS0_30NetworkNodeCanvasVisualizationEPNS_11QueueFigureEPNS_8queueing12IPacketQueueE @797
    _ZN4inet10visualizer21QueueCanvasVisualizer24QueueCanvasVisualizationD0Ev @798
    _ZN4inet10visualizer21QueueCanvasVisualizer24QueueCanvasVisualizationD1Ev @799
    _ZN4inet10visualizer21QueueCanvasVisualizer24QueueCanvasVisualizationD2Ev @800
    _ZN4inet10visualizer21QueueCanvasVisualizer24removeQueueVisualizationEPKNS0_19QueueVisualizerBase18QueueVisualizationE @801
    _ZN4inet10visualizer21RadioCanvasVisualizer10initializeEi @802
    _ZN4inet10visualizer21RadioCanvasVisualizer21addRadioVisualizationEPKNS0_19RadioVisualizerBase18RadioVisualizationE @803
    _ZN4inet10visualizer21RadioCanvasVisualizer24RadioCanvasVisualizationC1EPNS0_30NetworkNodeCanvasVisualizationEPNS_18IndexedImageFigureES6_S6_PN7omnetpp14cPolygonFigureEPNS7_11cOvalFigureESB_i @804
    _ZN4inet10visualizer21RadioCanvasVisualizer24RadioCanvasVisualizationC2EPNS0_30NetworkNodeCanvasVisualizationEPNS_18IndexedImageFigureES6_S6_PN7omnetpp14cPolygonFigureEPNS7_11cOvalFigureESB_i @805
    _ZN4inet10visualizer21RadioCanvasVisualizer24RadioCanvasVisualizationD0Ev @806
    _ZN4inet10visualizer21RadioCanvasVisualizer24RadioCanvasVisualizationD1Ev @807
    _ZN4inet10visualizer21RadioCanvasVisualizer24RadioCanvasVisualizationD2Ev @808
    _ZN4inet10visualizer21RadioCanvasVisualizer24removeRadioVisualizationEPKNS0_19RadioVisualizerBase18RadioVisualizationE @809
    _ZN4inet10visualizer21SceneCanvasVisualizer10initializeEi @810
    _ZN4inet10visualizer21SceneCanvasVisualizer11refreshAxisEd @811
    _ZN4inet10visualizer21SceneCanvasVisualizer14initializeAxisEd @812
    _ZN4inet10visualizer21SceneCanvasVisualizer14parseViewAngleEPKcRb @813
    _ZN4inet10visualizer21SceneCanvasVisualizer18displayDescriptionEPKc @814
    _ZN4inet10visualizer21SceneCanvasVisualizer21handleParameterChangeEPKc @815
    _ZN4inet10visualizer21SceneCanvasVisualizer7parse2DEPKcb @816
    _ZN4inet10visualizer22MediumCanvasVisualizer10initializeEi @817
    _ZN4inet10visualizer22MediumCanvasVisualizer13receiveSignalEPN7omnetpp10cComponentEiPNS2_7cObjectES6_ @818
    _ZN4inet10visualizer22MediumCanvasVisualizer15setSignalFigureEPKNS_13physicallayer13ITransmissionEPN7omnetpp7cFigureE @819
    _ZN4inet10visualizer22MediumCanvasVisualizer16handleRadioAddedEPKNS_13physicallayer6IRadioE @820
    _ZN4inet10visualizer22MediumCanvasVisualizer17handleSignalAddedEPKNS_13physicallayer13ITransmissionE @821
    _ZN4inet10visualizer22MediumCanvasVisualizer17setAnimationSpeedEv @822
    _ZN4inet10visualizer22MediumCanvasVisualizer18handleRadioRemovedEPKNS_13physicallayer6IRadioE @823
    _ZN4inet10visualizer22MediumCanvasVisualizer18removeSignalFigureEPKNS_13physicallayer13ITransmissionE @824
    _ZN4inet10visualizer22MediumCanvasVisualizer19handleSignalRemovedEPKNS_13physicallayer13ITransmissionE @825
    _ZN4inet10visualizer22MediumCanvasVisualizer22setSignalArrivalFigureEPKNS_13physicallayer6IRadioEPN7omnetpp7cFigureE @826
    _ZN4inet10visualizer22MediumCanvasVisualizer24handleSignalArrivalEndedEPKNS_13physicallayer10IReceptionE @827
    _ZN4inet10visualizer22MediumCanvasVisualizer24setSignalDepartureFigureEPKNS_13physicallayer6IRadioEPN7omnetpp7cFigureE @828
    _ZN4inet10visualizer22MediumCanvasVisualizer25removeSignalArrivalFigureEPKNS_13physicallayer6IRadioE @829
    _ZN4inet10visualizer22MediumCanvasVisualizer26handleSignalArrivalStartedEPKNS_13physicallayer10IReceptionE @830
    _ZN4inet10visualizer22MediumCanvasVisualizer26handleSignalDepartureEndedEPKNS_13physicallayer13ITransmissionE @831
    _ZN4inet10visualizer22MediumCanvasVisualizer27removeSignalDepartureFigureEPKNS_13physicallayer6IRadioE @832
    _ZN4inet10visualizer22MediumCanvasVisualizer28handleSignalDepartureStartedEPKNS_13physicallayer13ITransmissionE @833
    _ZN4inet10visualizer22MobilityVisualizerBase10initializeEi @834
    _ZN4inet10visualizer22MobilityVisualizerBase11unsubscribeEv @835
    _ZN4inet10visualizer22MobilityVisualizerBase13receiveSignalEPN7omnetpp10cComponentEiPNS2_7cObjectES6_ @836
    _ZN4inet10visualizer22MobilityVisualizerBase21MobilityVisualizationC1EPNS_9IMobilityE @837
    _ZN4inet10visualizer22MobilityVisualizerBase21MobilityVisualizationC2EPNS_9IMobilityE @838
    _ZN4inet10visualizer22MobilityVisualizerBase21handleParameterChangeEPKc @839
    _ZN4inet10visualizer22MobilityVisualizerBase24addMobilityVisualizationEPKNS_9IMobilityEPNS1_21MobilityVisualizationE @840
    _ZN4inet10visualizer22MobilityVisualizerBase27removeMobilityVisualizationEPKNS1_21MobilityVisualizationE @841
    _ZN4inet10visualizer22MobilityVisualizerBase31removeAllMobilityVisualizationsEv @842
    _ZN4inet10visualizer22MobilityVisualizerBase9preDeleteEPN7omnetpp10cComponentE @843
    _ZN4inet10visualizer22MobilityVisualizerBase9subscribeEv @844
    _ZN4inet10visualizer23Ieee80211VisualizerBase10initializeEi @845
    _ZN4inet10visualizer23Ieee80211VisualizerBase11unsubscribeEv @846
    _ZN4inet10visualizer23Ieee80211VisualizerBase13receiveSignalEPN7omnetpp10cComponentEiPNS2_7cObjectES6_ @847
    _ZN4inet10visualizer23Ieee80211VisualizerBase21handleParameterChangeEPKc @848
    _ZN4inet10visualizer23Ieee80211VisualizerBase22Ieee80211VisualizationC1Eii @849
    _ZN4inet10visualizer23Ieee80211VisualizerBase22Ieee80211VisualizationC2Eii @850
    _ZN4inet10visualizer23Ieee80211VisualizerBase25addIeee80211VisualizationEPKNS1_22Ieee80211VisualizationE @851
    _ZN4inet10visualizer23Ieee80211VisualizerBase25getIeee80211VisualizationEPN7omnetpp7cModuleEPNS_16NetworkInterfaceE @852
    _ZN4inet10visualizer23Ieee80211VisualizerBase28removeIeee80211VisualizationEPKNS1_22Ieee80211VisualizationE @853
    _ZN4inet10visualizer23Ieee80211VisualizerBase32removeAllIeee80211VisualizationsEv @854
    _ZN4inet10visualizer23Ieee80211VisualizerBase9preDeleteEPN7omnetpp10cComponentE @855
    _ZN4inet10visualizer23Ieee80211VisualizerBase9subscribeEv @856
    _ZN4inet10visualizer23LinkBreakVisualizerBase10initializeEi @857
    _ZN4inet10visualizer23LinkBreakVisualizerBase11unsubscribeEv @858
    _ZN4inet10visualizer23LinkBreakVisualizerBase13receiveSignalEPN7omnetpp10cComponentEiPNS2_7cObjectES6_ @859
    _ZN4inet10visualizer23LinkBreakVisualizerBase21handleParameterChangeEPKc @860
    _ZN4inet10visualizer23LinkBreakVisualizerBase22LinkBreakVisualizationC1Eii @861
    _ZN4inet10visualizer23LinkBreakVisualizerBase22LinkBreakVisualizationC2Eii @862
    _ZN4inet10visualizer23LinkBreakVisualizerBase25addLinkBreakVisualizationEPKNS1_22LinkBreakVisualizationE @863
    _ZN4inet10visualizer23LinkBreakVisualizerBase28removeLinkBreakVisualizationEPKNS1_22LinkBreakVisualizationE @864
    _ZN4inet10visualizer23LinkBreakVisualizerBase32removeAllLinkBreakVisualizationsEv @865
    _ZN4inet10visualizer23LinkBreakVisualizerBase8findNodeENS_10MacAddressE @866
    _ZN4inet10visualizer23LinkBreakVisualizerBase9preDeleteEPN7omnetpp10cComponentE @867
    _ZN4inet10visualizer23LinkBreakVisualizerBase9subscribeEv @868
    _ZN4inet10visualizer23StatisticVisualizerBase10initializeEi @869
    _ZN4inet10visualizer23StatisticVisualizerBase11unsubscribeEv @870
    _ZN4inet10visualizer23StatisticVisualizerBase13processSignalEPN7omnetpp10cComponentEiSt8functionIFvPNS2_10cIListenerEEE @871
    _ZN4inet10visualizer23StatisticVisualizerBase16getRecordingModeB5cxx11Ev @872
    _ZN4inet10visualizer23StatisticVisualizerBase17addResultRecorderEPN7omnetpp10cComponentEi @873
    _ZN4inet10visualizer23StatisticVisualizerBase17getResultRecorderEPN7omnetpp10cComponentEi @874
    _ZN4inet10visualizer23StatisticVisualizerBase18findResultRecorderEPN7omnetpp15cResultListenerE @875
    _ZN4inet10visualizer23StatisticVisualizerBase21handleParameterChangeEPKc @876
    _ZN4inet10visualizer23StatisticVisualizerBase22StatisticVisualizationC1EiiPKc @877
    _ZN4inet10visualizer23StatisticVisualizerBase22StatisticVisualizationC2EiiPKc @878
    _ZN4inet10visualizer23StatisticVisualizerBase25addStatisticVisualizationEPKNS1_22StatisticVisualizationE @879
    _ZN4inet10visualizer23StatisticVisualizerBase25getStatisticVisualizationEPN7omnetpp10cComponentEi @880
    _ZN4inet10visualizer23StatisticVisualizerBase28removeStatisticVisualizationEPKNS1_22StatisticVisualizationE @881
    _ZN4inet10visualizer23StatisticVisualizerBase29refreshStatisticVisualizationEPKNS1_22StatisticVisualizationE @882
    _ZN4inet10visualizer23StatisticVisualizerBase32removeAllStatisticVisualizationsEv @883
    _ZN4inet10visualizer23StatisticVisualizerBase7getTextB5cxx11EPKNS1_22StatisticVisualizationE @884
    _ZN4inet10visualizer23StatisticVisualizerBase7getUnitEPN7omnetpp10cComponentE @885
    _ZN4inet10visualizer23StatisticVisualizerBase9preDeleteEPN7omnetpp10cComponentE @886
    _ZN4inet10visualizer23StatisticVisualizerBase9subscribeEv @887
    _ZN4inet10visualizer24LinkCanvasVisualizerBase10initializeEi @888
    _ZN4inet10visualizer24LinkCanvasVisualizerBase20addLinkVisualizationESt4pairIiiEPKNS0_18LinkVisualizerBase17LinkVisualizationE @889
    _ZN4inet10visualizer24LinkCanvasVisualizerBase23LinkCanvasVisualizationC1EPNS_17LabeledLineFigureEii @890
    _ZN4inet10visualizer24LinkCanvasVisualizerBase23LinkCanvasVisualizationC2EPNS_17LabeledLineFigureEii @891
    _ZN4inet10visualizer24LinkCanvasVisualizerBase23LinkCanvasVisualizationD0Ev @892
    _ZN4inet10visualizer24LinkCanvasVisualizerBase23LinkCanvasVisualizationD1Ev @893
    _ZN4inet10visualizer24LinkCanvasVisualizerBase23LinkCanvasVisualizationD2Ev @894
    _ZN4inet10visualizer24LinkCanvasVisualizerBase23removeLinkVisualizationEPKNS0_18LinkVisualizerBase17LinkVisualizationE @895
    _ZN4inet10visualizer24LinkCanvasVisualizerBase24refreshLinkVisualizationEPKNS0_18LinkVisualizerBase17LinkVisualizationEPN7omnetpp7cPacketE @896
    _ZN4inet10visualizer24MobilityCanvasVisualizer10initializeEi @897
    _ZN4inet10visualizer24MobilityCanvasVisualizer24addMobilityVisualizationEPKNS_9IMobilityEPNS0_22MobilityVisualizerBase21MobilityVisualizationE @898
    _ZN4inet10visualizer24MobilityCanvasVisualizer27MobilityCanvasVisualizationC1EPN7omnetpp11cOvalFigureEPNS3_15cPieSliceFigureEPNS3_11cLineFigureEPNS_11TrailFigureEPNS_9IMobilityE @899
    _ZN4inet10visualizer24MobilityCanvasVisualizer27MobilityCanvasVisualizationC2EPN7omnetpp11cOvalFigureEPNS3_15cPieSliceFigureEPNS3_11cLineFigureEPNS_11TrailFigureEPNS_9IMobilityE @900
    _ZN4inet10visualizer24MobilityCanvasVisualizer27MobilityCanvasVisualizationD0Ev @901
    _ZN4inet10visualizer24MobilityCanvasVisualizer27MobilityCanvasVisualizationD1Ev @902
    _ZN4inet10visualizer24MobilityCanvasVisualizer27MobilityCanvasVisualizationD2Ev @903
    _ZN4inet10visualizer24MobilityCanvasVisualizer27createMobilityVisualizationEPNS_9IMobilityE @904
    _ZN4inet10visualizer24MobilityCanvasVisualizer27removeMobilityVisualizationEPKNS0_22MobilityVisualizerBase21MobilityVisualizationE @905
    _ZN4inet10visualizer24PacketDropVisualizerBase10initializeEi @906
    _ZN4inet10visualizer24PacketDropVisualizerBase11unsubscribeEv @907
    _ZN4inet10visualizer24PacketDropVisualizerBase13DetailsFilter10setPatternEPKc @908
    _ZN4inet10visualizer24PacketDropVisualizerBase13receiveSignalEPN7omnetpp10cComponentEiPNS2_7cObjectES6_ @909
    _ZN4inet10visualizer24PacketDropVisualizerBase17DirectiveResolverC1EPKNS0_10PacketDropE @910
    _ZN4inet10visualizer24PacketDropVisualizerBase17DirectiveResolverC2EPKNS0_10PacketDropE @911
    _ZN4inet10visualizer24PacketDropVisualizerBase21handleParameterChangeEPKc @912
    _ZN4inet10visualizer24PacketDropVisualizerBase23PacketDropVisualizationC1EPKNS0_10PacketDropE @913
    _ZN4inet10visualizer24PacketDropVisualizerBase23PacketDropVisualizationC2EPKNS0_10PacketDropE @914
    _ZN4inet10visualizer24PacketDropVisualizerBase23PacketDropVisualizationD0Ev @915
    _ZN4inet10visualizer24PacketDropVisualizerBase23PacketDropVisualizationD1Ev @916
    _ZN4inet10visualizer24PacketDropVisualizerBase23PacketDropVisualizationD2Ev @917
    _ZN4inet10visualizer24PacketDropVisualizerBase26addPacketDropVisualizationEPKNS1_23PacketDropVisualizationE @918
    _ZN4inet10visualizer24PacketDropVisualizerBase29removePacketDropVisualizationEPKNS1_23PacketDropVisualizationE @919
    _ZN4inet10visualizer24PacketDropVisualizerBase33removeAllPacketDropVisualizationsEv @920
    _ZN4inet10visualizer24PacketDropVisualizerBase9preDeleteEPN7omnetpp10cComponentE @921
    _ZN4inet10visualizer24PacketDropVisualizerBase9subscribeEv @922
    _ZN4inet10visualizer24PathCanvasVisualizerBase10initializeEi @923
    _ZN4inet10visualizer24PathCanvasVisualizerBase20addPathVisualizationEPKNS0_18PathVisualizerBase17PathVisualizationE @924
    _ZN4inet10visualizer24PathCanvasVisualizerBase23PathCanvasVisualizationC1EPKcRKSt6vectorIiSaIiEEPNS_21LabeledPolylineFigureE @925
    _ZN4inet10visualizer24PathCanvasVisualizerBase23PathCanvasVisualizationC2EPKcRKSt6vectorIiSaIiEEPNS_21LabeledPolylineFigureE @926
    _ZN4inet10visualizer24PathCanvasVisualizerBase23PathCanvasVisualizationD0Ev @927
    _ZN4inet10visualizer24PathCanvasVisualizerBase23PathCanvasVisualizationD1Ev @928
    _ZN4inet10visualizer24PathCanvasVisualizerBase23PathCanvasVisualizationD2Ev @929
    _ZN4inet10visualizer24PathCanvasVisualizerBase23removePathVisualizationEPKNS0_18PathVisualizerBase17PathVisualizationE @930
    _ZN4inet10visualizer24PathCanvasVisualizerBase24refreshPathVisualizationEPKNS0_18PathVisualizerBase17PathVisualizationEPN7omnetpp7cPacketE @931
    _ZN4inet10visualizer24TreeCanvasVisualizerBase10initializeEi @932
    _ZN4inet10visualizer24TreeCanvasVisualizerBase20addTreeVisualizationEPKNS0_18TreeVisualizerBase17TreeVisualizationE @933
    _ZN4inet10visualizer24TreeCanvasVisualizerBase23TreeCanvasVisualizationC1ERKSt6vectorIS3_IiSaIiEESaIS5_EERS3_IPNS_21LabeledPolylineFigureESaISB_EE @934
    _ZN4inet10visualizer24TreeCanvasVisualizerBase23TreeCanvasVisualizationC2ERKSt6vectorIS3_IiSaIiEESaIS5_EERS3_IPNS_21LabeledPolylineFigureESaISB_EE @935
    _ZN4inet10visualizer24TreeCanvasVisualizerBase23TreeCanvasVisualizationD0Ev @936
    _ZN4inet10visualizer24TreeCanvasVisualizerBase23TreeCanvasVisualizationD1Ev @937
    _ZN4inet10visualizer24TreeCanvasVisualizerBase23TreeCanvasVisualizationD2Ev @938
    _ZN4inet10visualizer24TreeCanvasVisualizerBase23removeTreeVisualizationEPKNS0_18TreeVisualizerBase17TreeVisualizationE @939
    _ZN4inet10visualizer25Ieee80211CanvasVisualizer10initializeEi @940
    _ZN4inet10visualizer25Ieee80211CanvasVisualizer25addIeee80211VisualizationEPKNS0_23Ieee80211VisualizerBase22Ieee80211VisualizationE @941
    _ZN4inet10visualizer25Ieee80211CanvasVisualizer28Ieee80211CanvasVisualizationC1EPNS0_30NetworkNodeCanvasVisualizationEPNS_17LabeledIconFigureEii @942
    _ZN4inet10visualizer25Ieee80211CanvasVisualizer28Ieee80211CanvasVisualizationC2EPNS0_30NetworkNodeCanvasVisualizationEPNS_17LabeledIconFigureEii @943
    _ZN4inet10visualizer25Ieee80211CanvasVisualizer28Ieee80211CanvasVisualizationD0Ev @944
    _ZN4inet10visualizer25Ieee80211CanvasVisualizer28Ieee80211CanvasVisualizationD1Ev @945
    _ZN4inet10visualizer25Ieee80211CanvasVisualizer28Ieee80211CanvasVisualizationD2Ev @946
    _ZN4inet10visualizer25Ieee80211CanvasVisualizer28createIeee80211VisualizationEPN7omnetpp7cModuleEPNS_16NetworkInterfaceENSt7__cxx1112basic_stringIcSt11char_traitsIcESaIcEEENS_5units5valueIdNSD_7composeINSF_INSF_INSD_5units1mENSF_INSG_2kgENSD_3powINSG_1sELin2ELi1EEEEEEESH_EENSJ_ISK_Lin1ELi1EEEEEEE @947
    _ZN4inet10visualizer25Ieee80211CanvasVisualizer28removeIeee80211VisualizationEPKNS0_23Ieee80211VisualizerBase22Ieee80211VisualizationE @948
    _ZN4inet10visualizer25LinkBreakCanvasVisualizer10initializeEi @949
    _ZN4inet10visualizer25LinkBreakCanvasVisualizer25addLinkBreakVisualizationEPKNS0_23LinkBreakVisualizerBase22LinkBreakVisualizationE @950
    _ZN4inet10visualizer25LinkBreakCanvasVisualizer28LinkBreakCanvasVisualizationC1EPN7omnetpp11cIconFigureEii @951
    _ZN4inet10visualizer25LinkBreakCanvasVisualizer28LinkBreakCanvasVisualizationC2EPN7omnetpp11cIconFigureEii @952
    _ZN4inet10visualizer25LinkBreakCanvasVisualizer28removeLinkBreakVisualizationEPKNS0_23LinkBreakVisualizerBase22LinkBreakVisualizationE @953
    _ZN4inet10visualizer25NetworkNodeVisualizerBase10initializeEi @954
    _ZN4inet10visualizer25NetworkNodeVisualizerBase13receiveSignalEPN7omnetpp10cComponentEiPNS2_7cObjectES6_ @955
    _ZN4inet10visualizer25NetworkNodeVisualizerBase21handleParameterChangeEPKc @956
    _ZN4inet10visualizer25StatisticCanvasVisualizer10initializeEi @957
    _ZN4inet10visualizer25StatisticCanvasVisualizer25addStatisticVisualizationEPKNS0_23StatisticVisualizerBase22StatisticVisualizationE @958
    _ZN4inet10visualizer25StatisticCanvasVisualizer28StatisticCanvasVisualizationC1EPNS0_30NetworkNodeCanvasVisualizationEPN7omnetpp7cFigureEiiPKc @959
    _ZN4inet10visualizer25StatisticCanvasVisualizer28StatisticCanvasVisualizationC2EPNS0_30NetworkNodeCanvasVisualizationEPN7omnetpp7cFigureEiiPKc @960
    _ZN4inet10visualizer25StatisticCanvasVisualizer28createStatisticVisualizationEPN7omnetpp10cComponentEi @961
    _ZN4inet10visualizer25StatisticCanvasVisualizer28removeStatisticVisualizationEPKNS0_23StatisticVisualizerBase22StatisticVisualizationE @962
    _ZN4inet10visualizer25StatisticCanvasVisualizer29refreshStatisticVisualizationEPKNS0_23StatisticVisualizerBase22StatisticVisualizationE @963
    _ZN4inet10visualizer26AnimationSpeedInterpolator17setAnimationSpeedEd @964
    _ZN4inet10visualizer26AnimationSpeedInterpolator23setTargetAnimationSpeedENS0_17AnimationPosition8TimeTypeEdd @965
    _ZN4inet10visualizer26AnimationSpeedInterpolator24setCurrentAnimationSpeedEd @966
    _ZN4inet10visualizer26GateScheduleVisualizerBase10initializeEi @967
    _ZN4inet10visualizer26GateScheduleVisualizerBase11GateVisitor5visitEPN7omnetpp7cObjectE @968
    _ZN4inet10visualizer26GateScheduleVisualizerBase17GateVisualizationC1EPNS_8queueing11IPacketGateE @969
    _ZN4inet10visualizer26GateScheduleVisualizerBase17GateVisualizationC2EPNS_8queueing11IPacketGateE @970
    _ZN4inet10visualizer26GateScheduleVisualizerBase20addGateVisualizationEPKNS1_17GateVisualizationE @971
    _ZN4inet10visualizer26GateScheduleVisualizerBase21addGateVisualizationsEv @972
    _ZN4inet10visualizer26GateScheduleVisualizerBase21handleParameterChangeEPKc @973
    _ZN4inet10visualizer26GateScheduleVisualizerBase23removeGateVisualizationEPKNS1_17GateVisualizationE @974
    _ZN4inet10visualizer26GateScheduleVisualizerBase27removeAllGateVisualizationsEv @975
    _ZN4inet10visualizer26GateScheduleVisualizerBase9preDeleteEPN7omnetpp10cComponentE @976
    _ZN4inet10visualizer26PacketDropCanvasVisualizer10initializeEi @977
    _ZN4inet10visualizer26PacketDropCanvasVisualizer26addPacketDropVisualizationEPKNS0_24PacketDropVisualizerBase23PacketDropVisualizationE @978
    _ZN4inet10visualizer26PacketDropCanvasVisualizer29PacketDropCanvasVisualizationC1EPNS_17LabeledIconFigureEPKNS0_10PacketDropE @979
    _ZN4inet10visualizer26PacketDropCanvasVisualizer29PacketDropCanvasVisualizationC2EPNS_17LabeledIconFigureEPKNS0_10PacketDropE @980
    _ZN4inet10visualizer26PacketDropCanvasVisualizer29PacketDropCanvasVisualizationD0Ev @981
    _ZN4inet10visualizer26PacketDropCanvasVisualizer29PacketDropCanvasVisualizationD1Ev @982
    _ZN4inet10visualizer26PacketDropCanvasVisualizer29PacketDropCanvasVisualizationD2Ev @983
    _ZN4inet10visualizer26PacketDropCanvasVisualizer29removePacketDropVisualizationEPKNS0_24PacketDropVisualizerBase23PacketDropVisualizationE @984
    _ZN4inet10visualizer26PacketFlowCanvasVisualizer18processPathElementEPN7omnetpp7cModuleEPKcPNS_6PacketE @985
    _ZN4inet10visualizer26RoutingTableVisualizerBase10initializeEi @986
    _ZN4inet10visualizer26RoutingTableVisualizerBase11unsubscribeEv @987
    _ZN4inet10visualizer26RoutingTableVisualizerBase13receiveSignalEPN7omnetpp10cComponentEiPNS2_7cObjectES6_ @988
    _ZN4inet10visualizer26RoutingTableVisualizerBase15getDestinationsEv @989
    _ZN4inet10visualizer26RoutingTableVisualizerBase18RouteVisualizationC1EPKNS_9Ipv4RouteEii @990
    _ZN4inet10visualizer26RoutingTableVisualizerBase18RouteVisualizationC2EPKNS_9Ipv4RouteEii @991
    _ZN4inet10visualizer26RoutingTableVisualizerBase21addRouteVisualizationEPKNS1_18RouteVisualizationE @992
    _ZN4inet10visualizer26RoutingTableVisualizerBase21getRouteVisualizationEPNS_9Ipv4RouteEii @993
    _ZN4inet10visualizer26RoutingTableVisualizerBase21handleParameterChangeEPKc @994
    _ZN4inet10visualizer26RoutingTableVisualizerBase22addRouteVisualizationsEPNS_17IIpv4RoutingTableE @995
    _ZN4inet10visualizer26RoutingTableVisualizerBase24removeRouteVisualizationEPKNS1_18RouteVisualizationE @996
    _ZN4inet10visualizer26RoutingTableVisualizerBase25removeRouteVisualizationsEPNS_17IIpv4RoutingTableE @997
    _ZN4inet10visualizer26RoutingTableVisualizerBase25updateRouteVisualizationsEPNS_17IIpv4RoutingTableE @998
    _ZN4inet10visualizer26RoutingTableVisualizerBase28removeAllRouteVisualizationsEv @999
    _ZN4inet10visualizer26RoutingTableVisualizerBase28updateAllRouteVisualizationsEv @1000
    _ZN4inet10visualizer26RoutingTableVisualizerBase9preDeleteEPN7omnetpp10cComponentE @1001
    _ZN4inet10visualizer26RoutingTableVisualizerBase9subscribeEv @1002
    _ZN4inet10visualizer27EnergyStorageVisualizerBase10initializeEi @1003
    _ZN4inet10visualizer27EnergyStorageVisualizerBase21handleParameterChangeEPKc @1004
    _ZN4inet10visualizer27EnergyStorageVisualizerBase26EnergyStorageVisualizationC1EPKNS_5power14IEnergyStorageE @1005
    _ZN4inet10visualizer27EnergyStorageVisualizerBase26EnergyStorageVisualizationC2EPKNS_5power14IEnergyStorageE @1006
    _ZN4inet10visualizer27EnergyStorageVisualizerBase29addEnergyStorageVisualizationEPKNS1_26EnergyStorageVisualizationE @1007
    _ZN4inet10visualizer27EnergyStorageVisualizerBase30addEnergyStorageVisualizationsEv @1008
    _ZN4inet10visualizer27EnergyStorageVisualizerBase32removeEnergyStorageVisualizationEPKNS1_26EnergyStorageVisualizationE @1009
    _ZN4inet10visualizer27EnergyStorageVisualizerBase36removeAllEnergyStorageVisualizationsEv @1010
    _ZN4inet10visualizer27EnergyStorageVisualizerBase9preDeleteEPN7omnetpp10cComponentE @1011
    _ZN4inet10visualizer27NetworkNodeCanvasVisualizer10initializeEi @1012
    _ZN4inet10visualizer27NetworkNodeCanvasVisualizer27addNetworkNodeVisualizationEPNS0_25NetworkNodeVisualizerBase24NetworkNodeVisualizationE @1013
    _ZN4inet10visualizer27NetworkNodeCanvasVisualizer30removeNetworkNodeVisualizationEPNS0_25NetworkNodeVisualizerBase24NetworkNodeVisualizationE @1014
    _ZN4inet10visualizer27NetworkNodeCanvasVisualizerD0Ev @1015
    _ZN4inet10visualizer27NetworkNodeCanvasVisualizerD1Ev @1016
    _ZN4inet10visualizer27NetworkNodeCanvasVisualizerD2Ev @1017
    _ZN4inet10visualizer28GateScheduleCanvasVisualizer10initializeEi @1018
    _ZN4inet10visualizer28GateScheduleCanvasVisualizer20addGateVisualizationEPKNS0_26GateScheduleVisualizerBase17GateVisualizationE @1019
    _ZN4inet10visualizer28GateScheduleCanvasVisualizer23GateCanvasVisualizationC1EPNS0_30NetworkNodeCanvasVisualizationEPNS_10GateFigureEPNS_8queueing11IPacketGateE @1020
    _ZN4inet10visualizer28GateScheduleCanvasVisualizer23GateCanvasVisualizationC2EPNS0_30NetworkNodeCanvasVisualizationEPNS_10GateFigureEPNS_8queueing11IPacketGateE @1021
    _ZN4inet10visualizer28GateScheduleCanvasVisualizer23GateCanvasVisualizationD0Ev @1022
    _ZN4inet10visualizer28GateScheduleCanvasVisualizer23GateCanvasVisualizationD1Ev @1023
    _ZN4inet10visualizer28GateScheduleCanvasVisualizer23GateCanvasVisualizationD2Ev @1024
    _ZN4inet10visualizer28GateScheduleCanvasVisualizer23removeGateVisualizationEPKNS0_26GateScheduleVisualizerBase17GateVisualizationE @1025
    _ZN4inet10visualizer28InterfaceTableVisualizerBase10initializeEi @1026
    _ZN4inet10visualizer28InterfaceTableVisualizerBase11unsubscribeEv @1027
    _ZN4inet10visualizer28InterfaceTableVisualizerBase13getOutputGateEPKNS1_22InterfaceVisualizationE @1028
    _ZN4inet10visualizer28InterfaceTableVisualizerBase13getOutputGateEPN7omnetpp7cModuleEPNS_16NetworkInterfaceE @1029
    _ZN4inet10visualizer28InterfaceTableVisualizerBase13receiveSignalEPN7omnetpp10cComponentEiPNS2_7cObjectES6_ @1030
    _ZN4inet10visualizer28InterfaceTableVisualizerBase14getNetworkNodeEPKNS1_22InterfaceVisualizationE @1031
    _ZN4inet10visualizer28InterfaceTableVisualizerBase20getVisualizationTextB5cxx11EPKNS_16NetworkInterfaceE @1032
    _ZN4inet10visualizer28InterfaceTableVisualizerBase21handleParameterChangeEPKc @1033
    _ZN4inet10visualizer28InterfaceTableVisualizerBase22InterfaceVisualizationC1Eiii @1034
    _ZN4inet10visualizer28InterfaceTableVisualizerBase22InterfaceVisualizationC2Eiii @1035
    _ZN4inet10visualizer28InterfaceTableVisualizerBase25addInterfaceVisualizationEPKNS1_22InterfaceVisualizationE @1036
    _ZN4inet10visualizer28InterfaceTableVisualizerBase25getInterfaceVisualizationEPN7omnetpp7cModuleEPNS_16NetworkInterfaceE @1037
    _ZN4inet10visualizer28InterfaceTableVisualizerBase28removeInterfaceVisualizationEPKNS1_22InterfaceVisualizationE @1038
    _ZN4inet10visualizer28InterfaceTableVisualizerBase29addAllInterfaceVisualizationsEv @1039
    _ZN4inet10visualizer28InterfaceTableVisualizerBase32removeAllInterfaceVisualizationsEv @1040
    _ZN4inet10visualizer28InterfaceTableVisualizerBase32updateAllInterfaceVisualizationsEv @1041
    _ZN4inet10visualizer28InterfaceTableVisualizerBase9preDeleteEPN7omnetpp10cComponentE @1042
    _ZN4inet10visualizer28InterfaceTableVisualizerBase9subscribeEv @1043
    _ZN4inet10visualizer28RoutingTableCanvasVisualizer10initializeEi @1044
    _ZN4inet10visualizer28RoutingTableCanvasVisualizer21addRouteVisualizationEPKNS0_26RoutingTableVisualizerBase18RouteVisualizationE @1045
    _ZN4inet10visualizer28RoutingTableCanvasVisualizer24RouteCanvasVisualizationC1EPNS_17LabeledLineFigureEPKNS_9Ipv4RouteEii @1046
    _ZN4inet10visualizer28RoutingTableCanvasVisualizer24RouteCanvasVisualizationC2EPNS_17LabeledLineFigureEPKNS_9Ipv4RouteEii @1047
    _ZN4inet10visualizer28RoutingTableCanvasVisualizer24RouteCanvasVisualizationD0Ev @1048
    _ZN4inet10visualizer28RoutingTableCanvasVisualizer24RouteCanvasVisualizationD1Ev @1049
    _ZN4inet10visualizer28RoutingTableCanvasVisualizer24RouteCanvasVisualizationD2Ev @1050
    _ZN4inet10visualizer28RoutingTableCanvasVisualizer24removeRouteVisualizationEPKNS0_26RoutingTableVisualizerBase18RouteVisualizationE @1051
    _ZN4inet10visualizer29EnergyStorageCanvasVisualizer10initializeEi @1052
    _ZN4inet10visualizer29EnergyStorageCanvasVisualizer29addEnergyStorageVisualizationEPKNS0_27EnergyStorageVisualizerBase26EnergyStorageVisualizationE @1053
    _ZN4inet10visualizer29EnergyStorageCanvasVisualizer32EnergyStorageCanvasVisualizationC1EPNS0_30NetworkNodeCanvasVisualizationEPNS_9BarFigureEPKNS_5power14IEnergyStorageE @1054
    _ZN4inet10visualizer29EnergyStorageCanvasVisualizer32EnergyStorageCanvasVisualizationC2EPNS0_30NetworkNodeCanvasVisualizationEPNS_9BarFigureEPKNS_5power14IEnergyStorageE @1055
    _ZN4inet10visualizer29EnergyStorageCanvasVisualizer32EnergyStorageCanvasVisualizationD0Ev @1056
    _ZN4inet10visualizer29EnergyStorageCanvasVisualizer32EnergyStorageCanvasVisualizationD1Ev @1057
    _ZN4inet10visualizer29EnergyStorageCanvasVisualizer32EnergyStorageCanvasVisualizationD2Ev @1058
    _ZN4inet10visualizer29EnergyStorageCanvasVisualizer32removeEnergyStorageVisualizationEPKNS0_27EnergyStorageVisualizerBase26EnergyStorageVisualizationE @1059
    _ZN4inet10visualizer30InterfaceTableCanvasVisualizer10initializeEi @1060
    _ZN4inet10visualizer30InterfaceTableCanvasVisualizer19getNetworkInterfaceEPKNS0_28InterfaceTableVisualizerBase22InterfaceVisualizationE @1061
    _ZN4inet10visualizer30InterfaceTableCanvasVisualizer25addInterfaceVisualizationEPKNS0_28InterfaceTableVisualizerBase22InterfaceVisualizationE @1062
    _ZN4inet10visualizer30InterfaceTableCanvasVisualizer28InterfaceCanvasVisualizationC1EPNS0_30NetworkNodeCanvasVisualizationEPNS_16BoxedLabelFigureEiii @1063
    _ZN4inet10visualizer30InterfaceTableCanvasVisualizer28InterfaceCanvasVisualizationC2EPNS0_30NetworkNodeCanvasVisualizationEPNS_16BoxedLabelFigureEiii @1064
    _ZN4inet10visualizer30InterfaceTableCanvasVisualizer28InterfaceCanvasVisualizationD0Ev @1065
    _ZN4inet10visualizer30InterfaceTableCanvasVisualizer28InterfaceCanvasVisualizationD1Ev @1066
    _ZN4inet10visualizer30InterfaceTableCanvasVisualizer28InterfaceCanvasVisualizationD2Ev @1067
    _ZN4inet10visualizer30InterfaceTableCanvasVisualizer28createInterfaceVisualizationEPN7omnetpp7cModuleEPNS_16NetworkInterfaceE @1068
    _ZN4inet10visualizer30InterfaceTableCanvasVisualizer28removeInterfaceVisualizationEPKNS0_28InterfaceTableVisualizerBase22InterfaceVisualizationE @1069
    _ZN4inet10visualizer30InterfaceTableCanvasVisualizer29refreshInterfaceVisualizationEPKNS0_28InterfaceTableVisualizerBase22InterfaceVisualizationEPKNS_16NetworkInterfaceE @1070
    _ZN4inet10visualizer30NetworkNodeCanvasVisualization10Annotation24comparePlacementPriorityERKS2_S4_ @1071
    _ZN4inet10visualizer30NetworkNodeCanvasVisualization10AnnotationC1EPN7omnetpp7cFigureERKNS4_5PointENS0_9PlacementEd @1072
    _ZN4inet10visualizer30NetworkNodeCanvasVisualization10AnnotationC2EPN7omnetpp7cFigureERKNS4_5PointENS0_9PlacementEd @1073
    _ZN4inet10visualizer30NetworkNodeCanvasVisualization13addAnnotationEPN7omnetpp7cFigureENS3_5PointENS0_9PlacementEd @1074
    _ZN4inet10visualizer30NetworkNodeCanvasVisualization14refreshDisplayEv @1075
    _ZN4inet10visualizer30NetworkNodeCanvasVisualization16removeAnnotationEPN7omnetpp7cFigureE @1076
    _ZN4inet10visualizer30NetworkNodeCanvasVisualization16removeAnnotationEi @1077
    _ZN4inet10visualizer30NetworkNodeCanvasVisualization17setAnnotationSizeEPN7omnetpp7cFigureENS3_5PointE @1078
    _ZN4inet10visualizer30NetworkNodeCanvasVisualization20setAnnotationVisibleEPN7omnetpp7cFigureEb @1079
    _ZN4inet10visualizer30NetworkNodeCanvasVisualization6layoutEv @1080
    _ZN4inet10visualizer30NetworkNodeCanvasVisualizationC1EPN7omnetpp7cModuleEdd @1081
    _ZN4inet10visualizer30NetworkNodeCanvasVisualizationC2EPN7omnetpp7cModuleEdd @1082
    _ZN4inet10visualizer31NetworkConnectionVisualizerBase10initializeEi @1083
    _ZN4inet10visualizer31NetworkConnectionVisualizerBase21handleParameterChangeEPKc @1084
    _ZN4inet10visualizer33NetworkConnectionCanvasVisualizer10initializeEi @1085
    _ZN4inet10visualizer33NetworkConnectionCanvasVisualizer36createNetworkConnectionVisualizationEPN7omnetpp7cModuleES4_ @1086
    _ZN4inet10visualizer33PhysicalEnvironmentVisualizerBase10initializeEi @1087
    _ZN4inet10visualizer33TracingObstacleLossVisualizerBase10initializeEi @1088
    _ZN4inet10visualizer33TracingObstacleLossVisualizerBase11unsubscribeEv @1089
    _ZN4inet10visualizer33TracingObstacleLossVisualizerBase13receiveSignalEPN7omnetpp10cComponentEiPNS2_7cObjectES6_ @1090
    _ZN4inet10visualizer33TracingObstacleLossVisualizerBase28addObstacleLossVisualizationEPKNS1_25ObstacleLossVisualizationE @1091
    _ZN4inet10visualizer33TracingObstacleLossVisualizerBase31removeObstacleLossVisualizationEPKNS1_25ObstacleLossVisualizationE @1092
    _ZN4inet10visualizer33TracingObstacleLossVisualizerBase35removeAllObstacleLossVisualizationsEv @1093
    _ZN4inet10visualizer33TracingObstacleLossVisualizerBase9preDeleteEPN7omnetpp10cComponentE @1094
    _ZN4inet10visualizer33TracingObstacleLossVisualizerBase9subscribeEv @1095
    _ZN4inet10visualizer33TransportConnectionVisualizerBase10initializeEi @1096
    _ZN4inet10visualizer33TransportConnectionVisualizerBase11unsubscribeEv @1097
    _ZN4inet10visualizer33TransportConnectionVisualizerBase13receiveSignalEPN7omnetpp10cComponentEiPNS2_7cObjectES6_ @1098
    _ZN4inet10visualizer33TransportConnectionVisualizerBase21handleParameterChangeEPKc @1099
    _ZN4inet10visualizer33TransportConnectionVisualizerBase26addConnectionVisualizationEPKNS1_32TransportConnectionVisualizationE @1100
    _ZN4inet10visualizer33TransportConnectionVisualizerBase29removeConnectionVisualizationEPKNS1_32TransportConnectionVisualizationE @1101
    _ZN4inet10visualizer33TransportConnectionVisualizerBase32TransportConnectionVisualizationC1Eiii @1102
    _ZN4inet10visualizer33TransportConnectionVisualizerBase32TransportConnectionVisualizationC2Eiii @1103
    _ZN4inet10visualizer33TransportConnectionVisualizerBase33removeAllConnectionVisualizationsEv @1104
    _ZN4inet10visualizer33TransportConnectionVisualizerBase9preDeleteEPN7omnetpp10cComponentE @1105
    _ZN4inet10visualizer33TransportConnectionVisualizerBase9subscribeEv @1106
    _ZN4inet10visualizer34OpenStreetMapSceneCanvasVisualizer10initializeEi @1107
    _ZN4inet10visualizer34OpenStreetMapSceneCanvasVisualizer15createMapFigureERKNS_3osm13OpenStreetMapE @1108
    _ZN4inet10visualizer34OpenStreetMapSceneCanvasVisualizer8toCanvasERKNS_3osm13OpenStreetMapEdd @1109
    _ZN4inet10visualizer35PhysicalEnvironmentCanvasVisualizer10initializeEi @1110
    _ZN4inet10visualizer35TracingObstacleLossCanvasVisualizer10initializeEi @1111
    _ZN4inet10visualizer35TracingObstacleLossCanvasVisualizer28addObstacleLossVisualizationEPKNS0_33TracingObstacleLossVisualizerBase25ObstacleLossVisualizationE @1112
    _ZN4inet10visualizer35TracingObstacleLossCanvasVisualizer31ObstacleLossCanvasVisualizationC1EPNS_17LabeledLineFigureEPN7omnetpp11cLineFigureES7_ @1113
    _ZN4inet10visualizer35TracingObstacleLossCanvasVisualizer31ObstacleLossCanvasVisualizationC2EPNS_17LabeledLineFigureEPN7omnetpp11cLineFigureES7_ @1114
    _ZN4inet10visualizer35TracingObstacleLossCanvasVisualizer31ObstacleLossCanvasVisualizationD0Ev @1115
    _ZN4inet10visualizer35TracingObstacleLossCanvasVisualizer31ObstacleLossCanvasVisualizationD1Ev @1116
    _ZN4inet10visualizer35TracingObstacleLossCanvasVisualizer31ObstacleLossCanvasVisualizationD2Ev @1117
    _ZN4inet10visualizer35TracingObstacleLossCanvasVisualizer31removeObstacleLossVisualizationEPKNS0_33TracingObstacleLossVisualizerBase25ObstacleLossVisualizationE @1118
    _ZN4inet10visualizer35TransportConnectionCanvasVisualizer10initializeEi @1119
    _ZN4inet10visualizer35TransportConnectionCanvasVisualizer26addConnectionVisualizationEPKNS0_33TransportConnectionVisualizerBase32TransportConnectionVisualizationE @1120
    _ZN4inet10visualizer35TransportConnectionCanvasVisualizer26setConnectionLabelsVisibleEb @1121
    _ZN4inet10visualizer35TransportConnectionCanvasVisualizer29removeConnectionVisualizationEPKNS0_33TransportConnectionVisualizerBase32TransportConnectionVisualizationE @1122
    _ZN4inet10visualizer35TransportConnectionCanvasVisualizer38TransportConnectionCanvasVisualizationC1EPNS_17LabeledIconFigureES4_iii @1123
    _ZN4inet10visualizer35TransportConnectionCanvasVisualizer38TransportConnectionCanvasVisualizationC2EPNS_17LabeledIconFigureES4_iii @1124
    _ZN4inet10visualizer45StreamRedundancyConfigurationCanvasVisualizer10initializeEi @1125
    _ZN4inet10visualizer46FailureProtectionConfigurationCanvasVisualizer10initializeEi @1126
    _ZN4inet10visualizer8ColorSet11parseColorsEPKc @1127
    _ZN4inet11ChunkBuffer12mergeRegionsERNS0_6RegionES2_ @1128
    _ZN4inet11ChunkBuffer12sliceRegionsERNS0_6RegionE @1129
    _ZN4inet11ChunkBuffer17eraseEmptyRegionsEN9__gnu_cxx17__normal_iteratorIPNS0_6RegionESt6vectorIS3_SaIS3_EEEES8_ @1130
    _ZN4inet11ChunkBuffer5clearENS_5units5valueIxNS1_5units1bEEES5_ @1131
    _ZN4inet11ChunkBuffer7replaceENS_5units5valueIxNS1_5units1bEEERKNS_12IntrusivePtrIKNS_5ChunkEEE @1132
    _ZN4inet11ChunkBufferC1EPKc @1133
    _ZN4inet11ChunkBufferC1ERKS0_ @1134
    _ZN4inet11ChunkBufferC2EPKc @1135
    _ZN4inet11ChunkBufferC2ERKS0_ @1136
    _ZN4inet11ClnsAddress19UNSPECIFIED_ADDRESSE @1137 DATA
    _ZN4inet11ClnsAddress3setEyyh @1138
    _ZN4inet11ClnsAddress7setNselEh @1139
    _ZN4inet11ClnsAddressC1ENSt7__cxx1112basic_stringIcSt11char_traitsIcESaIcEEE @1140
    _ZN4inet11ClnsAddressC1Ev @1141
    _ZN4inet11ClnsAddressC1Eyyh @1142
    _ZN4inet11ClnsAddressC2ENSt7__cxx1112basic_stringIcSt11char_traitsIcESaIcEEE @1143
    _ZN4inet11ClnsAddressC2Ev @1144
    _ZN4inet11ClnsAddressC2Eyyh @1145
    _ZN4inet11ClnsAddressD0Ev @1146
    _ZN4inet11ClnsAddressD1Ev @1147
    _ZN4inet11ClnsAddressD2Ev @1148
    _ZN4inet11DhcpMessage10setOptionsERKNS_11DhcpOptionsE @1149
    _ZN4inet11DhcpMessage11setReservedEt @1150
    _ZN4inet11DhcpMessage12parsimUnpackEPN7omnetpp11cCommBufferE @1151
    _ZN4inet11DhcpMessage12setBroadcastEb @1152
    _ZN4inet11DhcpMessage4copyERKS0_ @1153
    _ZN4inet11DhcpMessage5setOpENS_10DhcpOpcodeE @1154
    _ZN4inet11DhcpMessage6setXidEj @1155
    _ZN4inet11DhcpMessage7setFileEPKc @1156
    _ZN4inet11DhcpMessage7setHlenEi @1157
    _ZN4inet11DhcpMessage7setHopsEi @1158
    _ZN4inet11DhcpMessage7setSecsEi @1159
    _ZN4inet11DhcpMessage8setHtypeEi @1160
    _ZN4inet11DhcpMessage8setSnameEPKc @1161
    _ZN4inet11DhcpMessage9setChaddrERKNS_10MacAddressE @1162
    _ZN4inet11DhcpMessage9setCiaddrERKNS_11Ipv4AddressE @1163
    _ZN4inet11DhcpMessage9setGiaddrERKNS_11Ipv4AddressE @1164
    _ZN4inet11DhcpMessage9setYiaddrERKNS_11Ipv4AddressE @1165
    _ZN4inet11DhcpMessageC1ERKS0_ @1166
    _ZN4inet11DhcpMessageC1Ev @1167
    _ZN4inet11DhcpMessageC2ERKS0_ @1168
    _ZN4inet11DhcpMessageC2Ev @1169
    _ZN4inet11DhcpMessageD0Ev @1170
    _ZN4inet11DhcpMessageD1Ev @1171
    _ZN4inet11DhcpMessageD2Ev @1172
    _ZN4inet11DhcpMessageaSERKS0_ @1173
    _ZN4inet11DhcpOptions11eraseRouterEy @1174
    _ZN4inet11DhcpOptions11setHostNameEPKc @1175
    _ZN4inet11DhcpOptions12appendRouterERKNS_11Ipv4AddressE @1176
    _ZN4inet11DhcpOptions12insertRouterEyRKNS_11Ipv4AddressE @1177
    _ZN4inet11DhcpOptions12parsimUnpackEPN7omnetpp11cCommBufferE @1178
    _ZN4inet11DhcpOptions12setLeaseTimeEN7omnetpp7SimTimeE @1179
    _ZN4inet11DhcpOptions13setSubnetMaskERKNS_11Ipv4AddressE @1180
    _ZN4inet11DhcpOptions14setMessageTypeENS_15DhcpMessageTypeE @1181
    _ZN4inet11DhcpOptions14setRenewalTimeEN7omnetpp7SimTimeE @1182
    _ZN4inet11DhcpOptions14setRequestedIpERKNS_11Ipv4AddressE @1183
    _ZN4inet11DhcpOptions15setDnsArraySizeEy @1184
    _ZN4inet11DhcpOptions15setNtpArraySizeEy @1185
    _ZN4inet11DhcpOptions16setRebindingTimeEN7omnetpp7SimTimeE @1186
    _ZN4inet11DhcpOptions18setRouterArraySizeEy @1187
    _ZN4inet11DhcpOptions19setClientIdentifierERKNS_10MacAddressE @1188
    _ZN4inet11DhcpOptions19setServerIdentifierERKNS_11Ipv4AddressE @1189
    _ZN4inet11DhcpOptions23setParameterRequestListEyNS_14DhcpOptionCodeE @1190
    _ZN4inet11DhcpOptions25eraseParameterRequestListEy @1191
    _ZN4inet11DhcpOptions26appendParameterRequestListENS_14DhcpOptionCodeE @1192
    _ZN4inet11DhcpOptions26insertParameterRequestListEyNS_14DhcpOptionCodeE @1193
    _ZN4inet11DhcpOptions32setParameterRequestListArraySizeEy @1194
    _ZN4inet11DhcpOptions4copyERKS0_ @1195
    _ZN4inet11DhcpOptions6setDnsEyRKNS_11Ipv4AddressE @1196
    _ZN4inet11DhcpOptions6setNtpEyRKNS_11Ipv4AddressE @1197
    _ZN4inet11DhcpOptions8eraseDnsEy @1198
    _ZN4inet11DhcpOptions8eraseNtpEy @1199
    _ZN4inet11DhcpOptions9appendDnsERKNS_11Ipv4AddressE @1200
    _ZN4inet11DhcpOptions9appendNtpERKNS_11Ipv4AddressE @1201
    _ZN4inet11DhcpOptions9insertDnsEyRKNS_11Ipv4AddressE @1202
    _ZN4inet11DhcpOptions9insertNtpEyRKNS_11Ipv4AddressE @1203
    _ZN4inet11DhcpOptions9setRouterEyRKNS_11Ipv4AddressE @1204
    _ZN4inet11DhcpOptionsC1ERKS0_ @1205
    _ZN4inet11DhcpOptionsC1Ev @1206
    _ZN4inet11DhcpOptionsC2ERKS0_ @1207
    _ZN4inet11DhcpOptionsC2Ev @1208
    _ZN4inet11DhcpOptionsD0Ev @1209
    _ZN4inet11DhcpOptionsD1Ev @1210
    _ZN4inet11DhcpOptionsD2Ev @1211
    _ZN4inet11DhcpOptionsaSERKS0_ @1212
    _ZN4inet11DscpTagBase12parsimUnpackEPN7omnetpp11cCommBufferE @1213
    _ZN4inet11DscpTagBase34setDifferentiatedServicesCodePointEi @1214
    _ZN4inet11DscpTagBase4copyERKS0_ @1215
    _ZN4inet11DscpTagBaseC1ERKS0_ @1216
    _ZN4inet11DscpTagBaseC1Ev @1217
    _ZN4inet11DscpTagBaseC2ERKS0_ @1218
    _ZN4inet11DscpTagBaseC2Ev @1219
    _ZN4inet11DscpTagBaseD0Ev @1220
    _ZN4inet11DscpTagBaseD1Ev @1221
    _ZN4inet11DscpTagBaseD2Ev @1222
    _ZN4inet11DscpTagBaseaSERKS0_ @1223
    _ZN4inet11EtherAppReq12parsimUnpackEPN7omnetpp11cCommBufferE @1224
    _ZN4inet11EtherAppReq12setRequestIdEl @1225
    _ZN4inet11EtherAppReq16setResponseBytesEl @1226
    _ZN4inet11EtherAppReq4copyERKS0_ @1227
    _ZN4inet11EtherAppReqC1ERKS0_ @1228
    _ZN4inet11EtherAppReqC1Ev @1229
    _ZN4inet11EtherAppReqC2ERKS0_ @1230
    _ZN4inet11EtherAppReqC2Ev @1231
    _ZN4inet11EtherAppReqD0Ev @1232
    _ZN4inet11EtherAppReqD1Ev @1233
    _ZN4inet11EtherAppReqD2Ev @1234
    _ZN4inet11EtherAppReqaSERKS0_ @1235
    _ZN4inet11EthernetFcs10setFcsModeENS_7FcsModeE @1236
    _ZN4inet11EthernetFcs12parsimUnpackEPN7omnetpp11cCommBufferE @1237
    _ZN4inet11EthernetFcs4copyERKS0_ @1238
    _ZN4inet11EthernetFcs6setFcsEj @1239
    _ZN4inet11EthernetFcsC1ERKS0_ @1240
    _ZN4inet11EthernetFcsC1Ev @1241
    _ZN4inet11EthernetFcsC2ERKS0_ @1242
    _ZN4inet11EthernetFcsC2Ev @1243
    _ZN4inet11EthernetFcsD0Ev @1244
    _ZN4inet11EthernetFcsD1Ev @1245
    _ZN4inet11EthernetFcsD2Ev @1246
    _ZN4inet11EthernetFcsaSERKS0_ @1247
    _ZN4inet11EthernetMac10initializeEi @1248
    _ZN4inet11EthernetMac15beginSendFramesEv @1249
    _ZN4inet11EthernetMac15initializeFlagsEv @1250
    _ZN4inet11EthernetMac17handleEndTxPeriodEv @1251
    _ZN4inet11EthernetMac17handleSelfMessageEPN7omnetpp8cMessageE @1252
    _ZN4inet11EthernetMac17handleUpperPacketEPNS_6PacketE @1253
    _ZN4inet11EthernetMac18handleEndIFGPeriodEv @1254
    _ZN4inet11EthernetMac19handleMessageWhenUpEPN7omnetpp8cMessageE @1255
    _ZN4inet11EthernetMac19processPauseCommandEi @1256
    _ZN4inet11EthernetMac20handleEndPausePeriodEv @1257
    _ZN4inet11EthernetMac20initializeStatisticsEv @1258
    _ZN4inet11EthernetMac20scheduleEndIFGPeriodEv @1259
    _ZN4inet11EthernetMac21processMsgFromNetworkEPNS_13physicallayer18EthernetSignalBaseE @1260
    _ZN4inet11EthernetMac22scheduleEndPausePeriodEi @1261
    _ZN4inet11EthernetMac22startFrameTransmissionEv @1262
    _ZN4inet11EthernetMac24processReceivedDataFrameEPNS_6PacketERKNS_12IntrusivePtrIKNS_17EthernetMacHeaderEEE @1263
    _ZN4inet11EthernetMac26handleCanPullPacketChangedEPN7omnetpp5cGateE @1264
    _ZN4inet11EthernetMac6finishEv @1265
    _ZN4inet11EthernetMacC1Ev @1266
    _ZN4inet11EthernetMacC2Ev @1267
    _ZN4inet11EulerAngles3NILE @1268 DATA
    _ZN4inet11EulerAngles4ZEROE @1269 DATA
    _ZN4inet11FieldsChunk12handleChangeEv @1270
    _ZN4inet11FieldsChunk12parsimUnpackEPN7omnetpp11cCommBufferE @1271
    _ZN4inet11FieldsChunkC1ERKS0_ @1272
    _ZN4inet11FieldsChunkC1Ev @1273
    _ZN4inet11FieldsChunkC2ERKS0_ @1274
    _ZN4inet11FieldsChunkC2Ev @1275
    _ZN4inet11FieldsChunkD0Ev @1276
    _ZN4inet11FieldsChunkD1Ev @1277
    _ZN4inet11FieldsChunkD2Ev @1278
    _ZN4inet11FlowSpecObjC1Ev @1279
    _ZN4inet11FlowSpecObjC2Ev @1280
    _ZN4inet11FragmentTag12parsimUnpackEPN7omnetpp11cCommBufferE @1281
    _ZN4inet11FragmentTag15setLastFragmentEb @1282
    _ZN4inet11FragmentTag15setNumFragmentsEi @1283
    _ZN4inet11FragmentTag16setFirstFragmentEb @1284
    _ZN4inet11FragmentTag17setFragmentNumberEi @1285
    _ZN4inet11FragmentTag4copyERKS0_ @1286
    _ZN4inet11FragmentTagC1ERKS0_ @1287
    _ZN4inet11FragmentTagC1Ev @1288
    _ZN4inet11FragmentTagC2ERKS0_ @1289
    _ZN4inet11FragmentTagC2Ev @1290
    _ZN4inet11FragmentTagD0Ev @1291
    _ZN4inet11FragmentTagD1Ev @1292
    _ZN4inet11FragmentTagD2Ev @1293
    _ZN4inet11FragmentTagaSERKS0_ @1294
    _ZN4inet11GaugeFigure11addChildrenEv @1295
    _ZN4inet11GaugeFigure11redrawTicksEv @1296
    _ZN4inet11GaugeFigure11setMaxValueEd @1297
    _ZN4inet11GaugeFigure11setMinValueEd @1298
    _ZN4inet11GaugeFigure11setTickSizeEd @1299
    _ZN4inet11GaugeFigure12redrawCurvesEv @1300
    _ZN4inet11GaugeFigure12setLabelFontERKN7omnetpp7cFigure4FontE @1301
    _ZN4inet11GaugeFigure13setColorCurveERKN7omnetpp7cFigure5ColorEddPNS1_10cArcFigureE @1302
    _ZN4inet11GaugeFigure13setColorStripEPKc @1303
    _ZN4inet11GaugeFigure13setLabelColorERKN7omnetpp7cFigure5ColorE @1304
    _ZN4inet11GaugeFigure14setLabelOffsetEi @1305
    _ZN4inet11GaugeFigure14setNeedleColorERKN7omnetpp7cFigure5ColorE @1306
    _ZN4inet11GaugeFigure15setTickGeometryEPN7omnetpp11cLineFigureEi @1307
    _ZN4inet11GaugeFigure16setCurveGeometryEPN7omnetpp10cArcFigureE @1308
    _ZN4inet11GaugeFigure17setNeedleGeometryEv @1309
    _ZN4inet11GaugeFigure17setNumberGeometryEPN7omnetpp11cTextFigureEi @1310
    _ZN4inet11GaugeFigure18setBackgroundColorERKN7omnetpp7cFigure5ColorE @1311
    _ZN4inet11GaugeFigure18setNeedleTransformEv @1312
    _ZN4inet11GaugeFigure5parseEPN7omnetpp9cPropertyE @1313
    _ZN4inet11GaugeFigure6layoutEv @1314
    _ZN4inet11GaugeFigure7refreshEv @1315
    _ZN4inet11GaugeFigure8setLabelEPKc @1316
    _ZN4inet11GaugeFigure8setValueEiN7omnetpp7SimTimeEd @1317
    _ZN4inet11GaugeFigure9setBoundsERKN7omnetpp7cFigure9RectangleE @1318
    _ZN4inet11GaugeFigureC1EPKc @1319
    _ZN4inet11GaugeFigureC2EPKc @1320
    _ZN4inet11GaugeFigureD0Ev @1321
    _ZN4inet11GaugeFigureD1Ev @1322
    _ZN4inet11GaugeFigureD2Ev @1323
    _ZN4inet11GroupRecord10setAuxDataEyj @1324
    _ZN4inet11GroupRecord12eraseAuxDataEy @1325
    _ZN4inet11GroupRecord12parsimUnpackEPN7omnetpp11cCommBufferE @1326
    _ZN4inet11GroupRecord13appendAuxDataEj @1327
    _ZN4inet11GroupRecord13insertAuxDataEyj @1328
    _ZN4inet11GroupRecord13setRecordTypeEi @1329
    _ZN4inet11GroupRecord13setSourceListERKSt6vectorINS_11Ipv4AddressESaIS2_EE @1330
    _ZN4inet11GroupRecord15setGroupAddressERKNS_11Ipv4AddressE @1331
    _ZN4inet11GroupRecord19setAuxDataArraySizeEy @1332
    _ZN4inet11GroupRecord4copyERKS0_ @1333
    _ZN4inet11GroupRecordC1ERKS0_ @1334
    _ZN4inet11GroupRecordC1Ev @1335
    _ZN4inet11GroupRecordC2ERKS0_ @1336
    _ZN4inet11GroupRecordC2Ev @1337
    _ZN4inet11GroupRecordD0Ev @1338
    _ZN4inet11GroupRecordD1Ev @1339
    _ZN4inet11GroupRecordD2Ev @1340
    _ZN4inet11GroupRecordaSERKS0_ @1341
    _ZN4inet11HelloOption12parsimUnpackEPN7omnetpp11cCommBufferE @1342
    _ZN4inet11HelloOption4copyERKS0_ @1343
    _ZN4inet11HelloOption7setTypeENS_18PimHelloOptionTypeE @1344
    _ZN4inet11HelloOptionC1ERKS0_ @1345
    _ZN4inet11HelloOptionC1Ev @1346
    _ZN4inet11HelloOptionC2ERKS0_ @1347
    _ZN4inet11HelloOptionC2Ev @1348
    _ZN4inet11HelloOptionD0Ev @1349
    _ZN4inet11HelloOptionD1Ev @1350
    _ZN4inet11HelloOptionD2Ev @1351
    _ZN4inet11HelloOptionaSERKS0_ @1352
    _ZN4inet11HopLimitInd12parsimUnpackEPN7omnetpp11cCommBufferE @1353
    _ZN4inet11HopLimitInd4copyERKS0_ @1354
    _ZN4inet11HopLimitIndC1ERKS0_ @1355
    _ZN4inet11HopLimitIndC1Ev @1356
    _ZN4inet11HopLimitIndC2ERKS0_ @1357
    _ZN4inet11HopLimitIndC2Ev @1358
    _ZN4inet11HopLimitIndD0Ev @1359
    _ZN4inet11HopLimitIndD1Ev @1360
    _ZN4inet11HopLimitIndD2Ev @1361
    _ZN4inet11HopLimitIndaSERKS0_ @1362
    _ZN4inet11HopLimitReq12parsimUnpackEPN7omnetpp11cCommBufferE @1363
    _ZN4inet11HopLimitReq4copyERKS0_ @1364
    _ZN4inet11HopLimitReqC1ERKS0_ @1365
    _ZN4inet11HopLimitReqC1Ev @1366
    _ZN4inet11HopLimitReqC2ERKS0_ @1367
    _ZN4inet11HopLimitReqC2Ev @1368
    _ZN4inet11HopLimitReqD0Ev @1369
    _ZN4inet11HopLimitReqD1Ev @1370
    _ZN4inet11HopLimitReqD2Ev @1371
    _ZN4inet11HopLimitReqaSERKS0_ @1372
    _ZN4inet11IOscillator31preOscillatorStateChangedSignalE @1373 DATA
    _ZN4inet11IOscillator32postOscillatorStateChangedSignalE @1374 DATA
    _ZN4inet11IdentityTag12parsimUnpackEPN7omnetpp11cCommBufferE @1375
    _ZN4inet11IdentityTag16setIdentityStartEy @1376
    _ZN4inet11IdentityTag17nextIdentityStartE @1377 DATA
    _ZN4inet11IdentityTag4copyERKS0_ @1378
    _ZN4inet11IdentityTagC1ERKS0_ @1379
    _ZN4inet11IdentityTagC1Ev @1380
    _ZN4inet11IdentityTagC2ERKS0_ @1381
    _ZN4inet11IdentityTagC2Ev @1382
    _ZN4inet11IdentityTagD0Ev @1383
    _ZN4inet11IdentityTagD1Ev @1384
    _ZN4inet11IdentityTagD2Ev @1385
    _ZN4inet11IdentityTagaSERKS0_ @1386
    _ZN4inet11Ieee8022Llc10initializeEi @1387
    _ZN4inet11Ieee8022Llc11decapsulateEPNS_6PacketE @1388
    _ZN4inet11Ieee8022Llc11encapsulateEPNS_6PacketE @1389
    _ZN4inet11Ieee8022Llc11getProtocolERKNS_12IntrusivePtrIKNS_17Ieee8022LlcHeaderEEE @1390
    _ZN4inet11Ieee8022Llc12clearSocketsEv @1391
    _ZN4inet11Ieee8022Llc18registerMyProtocolEv @1392
    _ZN4inet11Ieee8022Llc19handleMessageWhenUpEPN7omnetpp8cMessageE @1393
    _ZN4inet11Ieee8022Llc19handleStopOperationEPNS_18LifecycleOperationE @1394
    _ZN4inet11Ieee8022Llc20deliverCopyToSocketsEPNS_6PacketE @1395
    _ZN4inet11Ieee8022Llc20handleCrashOperationEPNS_18LifecycleOperationE @1396
    _ZN4inet11Ieee8022Llc20handleStartOperationEPNS_18LifecycleOperationE @1397
    _ZN4inet11Ieee8022Llc20processPacketFromMacEPNS_6PacketE @1398
    _ZN4inet11Ieee8022Llc21handleRegisterServiceERKNS_8ProtocolEPN7omnetpp5cGateENS_16ServicePrimitiveE @1399
    _ZN4inet11Ieee8022Llc22handleRegisterProtocolERKNS_8ProtocolEPN7omnetpp5cGateENS_16ServicePrimitiveE @1400
    _ZN4inet11Ieee8022Llc25isDeliverableToUpperLayerEPNS_6PacketE @1401
    _ZN4inet11Ieee8022Llc28processPacketFromHigherLayerEPNS_6PacketE @1402
    _ZN4inet11Ieee8022Llc29processCommandFromHigherLayerEPNS_7RequestE @1403
    _ZN4inet11Ieee8022LlcD0Ev @1404
    _ZN4inet11Ieee8022LlcD1Ev @1405
    _ZN4inet11Ieee8022LlcD2Ev @1406
    _ZN4inet11IgmpMessage10setCrcModeENS_7CrcModeE @1407
    _ZN4inet11IgmpMessage12parsimUnpackEPN7omnetpp11cCommBufferE @1408
    _ZN4inet11IgmpMessage4copyERKS0_ @1409
    _ZN4inet11IgmpMessage6setCrcEt @1410
    _ZN4inet11IgmpMessage7setTypeENS_8IgmpTypeE @1411
    _ZN4inet11IgmpMessageC1ERKS0_ @1412
    _ZN4inet11IgmpMessageC1Ev @1413
    _ZN4inet11IgmpMessageC2ERKS0_ @1414
    _ZN4inet11IgmpMessageC2Ev @1415
    _ZN4inet11IgmpMessageD0Ev @1416
    _ZN4inet11IgmpMessageD1Ev @1417
    _ZN4inet11IgmpMessageD2Ev @1418
    _ZN4inet11IgmpMessageaSERKS0_ @1419
    _ZN4inet11Igmpv1Query12parsimUnpackEPN7omnetpp11cCommBufferE @1420
    _ZN4inet11Igmpv1Query4copyERKS0_ @1421
    _ZN4inet11Igmpv1Query9setUnusedEh @1422
    _ZN4inet11Igmpv1QueryC1ERKS0_ @1423
    _ZN4inet11Igmpv1QueryC1Ev @1424
    _ZN4inet11Igmpv1QueryC2ERKS0_ @1425
    _ZN4inet11Igmpv1QueryC2Ev @1426
    _ZN4inet11Igmpv1QueryD0Ev @1427
    _ZN4inet11Igmpv1QueryD1Ev @1428
    _ZN4inet11Igmpv1QueryD2Ev @1429
    _ZN4inet11Igmpv1QueryaSERKS0_ @1430
    _ZN4inet11Igmpv2Leave12parsimUnpackEPN7omnetpp11cCommBufferE @1431
    _ZN4inet11Igmpv2Leave14setMaxRespTimeEh @1432
    _ZN4inet11Igmpv2Leave15setGroupAddressERKNS_11Ipv4AddressE @1433
    _ZN4inet11Igmpv2Leave4copyERKS0_ @1434
    _ZN4inet11Igmpv2LeaveC1ERKS0_ @1435
    _ZN4inet11Igmpv2LeaveC1Ev @1436
    _ZN4inet11Igmpv2LeaveC2ERKS0_ @1437
    _ZN4inet11Igmpv2LeaveC2Ev @1438
    _ZN4inet11Igmpv2LeaveD0Ev @1439
    _ZN4inet11Igmpv2LeaveD1Ev @1440
    _ZN4inet11Igmpv2LeaveD2Ev @1441
    _ZN4inet11Igmpv2LeaveaSERKS0_ @1442
    _ZN4inet11Igmpv2Query12parsimUnpackEPN7omnetpp11cCommBufferE @1443
    _ZN4inet11Igmpv2Query18setMaxRespTimeCodeEh @1444
    _ZN4inet11Igmpv2Query4copyERKS0_ @1445
    _ZN4inet11Igmpv2QueryC1ERKS0_ @1446
    _ZN4inet11Igmpv2QueryC1Ev @1447
    _ZN4inet11Igmpv2QueryC2ERKS0_ @1448
    _ZN4inet11Igmpv2QueryC2Ev @1449
    _ZN4inet11Igmpv2QueryD0Ev @1450
    _ZN4inet11Igmpv2QueryD1Ev @1451
    _ZN4inet11Igmpv2QueryD2Ev @1452
    _ZN4inet11Igmpv2QueryaSERKS0_ @1453
    _ZN4inet11Igmpv3Query12parsimUnpackEPN7omnetpp11cCommBufferE @1454
    _ZN4inet11Igmpv3Query13setSourceListERKSt6vectorINS_11Ipv4AddressESaIS2_EE @1455
    _ZN4inet11Igmpv3Query20setQueryIntervalCodeEh @1456
    _ZN4inet11Igmpv3Query21setRobustnessVariableEh @1457
    _ZN4inet11Igmpv3Query21setSuppressRouterProcEb @1458
    _ZN4inet11Igmpv3Query4copyERKS0_ @1459
    _ZN4inet11Igmpv3Query7setResvEh @1460
    _ZN4inet11Igmpv3QueryC1ERKS0_ @1461
    _ZN4inet11Igmpv3QueryC1Ev @1462
    _ZN4inet11Igmpv3QueryC2ERKS0_ @1463
    _ZN4inet11Igmpv3QueryC2Ev @1464
    _ZN4inet11Igmpv3QueryD0Ev @1465
    _ZN4inet11Igmpv3QueryD1Ev @1466
    _ZN4inet11Igmpv3QueryD2Ev @1467
    _ZN4inet11Igmpv3QueryaSERKS0_ @1468
    _ZN4inet11Ipv4Address12isWellFormedEPKc @1469
    _ZN4inet11Ipv4Address14parseIPAddressEPKcPh @1470
    _ZN4inet11Ipv4Address15ALLONES_ADDRESSE @1471 DATA
    _ZN4inet11Ipv4Address15ALL_HOSTS_MCASTE @1472 DATA
    _ZN4inet11Ipv4Address16LL_MANET_ROUTERSE @1473 DATA
    _ZN4inet11Ipv4Address16LOOPBACK_ADDRESSE @1474 DATA
    _ZN4inet11Ipv4Address16LOOPBACK_NETMASKE @1475 DATA
    _ZN4inet11Ipv4Address17ALL_ROUTERS_MCASTE @1476 DATA
    _ZN4inet11Ipv4Address18maskedAddrAreEqualERKS0_S2_S2_ @1477
    _ZN4inet11Ipv4Address19UNSPECIFIED_ADDRESSE @1478 DATA
    _ZN4inet11Ipv4Address19_checkNetmaskLengthEi @1479
    _ZN4inet11Ipv4Address21ALL_RIP_ROUTERS_MCASTE @1480 DATA
    _ZN4inet11Ipv4Address22ALL_OSPF_ROUTERS_MCASTE @1481 DATA
    _ZN4inet11Ipv4Address23ALL_DVMRP_ROUTERS_MCASTE @1482 DATA
    _ZN4inet11Ipv4Address24ALL_IGMPV3_ROUTERS_MCASTE @1483 DATA
    _ZN4inet11Ipv4Address33ALL_OSPF_DESIGNATED_ROUTERS_MCASTE @1484 DATA
    _ZN4inet11Ipv4Address3setEPKc @1485
    _ZN4inet11Ipv4Address3setEiiii @1486
    _ZN4inet11Ipv4FragBuf11addFragmentEPNS_6PacketEN7omnetpp7SimTimeE @1487
    _ZN4inet11Ipv4FragBuf19purgeStaleFragmentsEPNS_4IcmpEN7omnetpp7SimTimeE @1488
    _ZN4inet11Ipv4FragBuf5flushEv @1489
    _ZN4inet11Ipv4FragBufC1Ev @1490
    _ZN4inet11Ipv4FragBufC2Ev @1491
    _ZN4inet11Ipv4FragBufD1Ev @1492
    _ZN4inet11Ipv4FragBufD2Ev @1493
    _ZN4inet11Ipv6Address10doTryParseERPKc @1494
    _ZN4inet11Ipv6Address11ALL_NODES_1E @1495 DATA
    _ZN4inet11Ipv6Address11ALL_NODES_2E @1496 DATA
    _ZN4inet11Ipv6Address13ALL_ROUTERS_1E @1497 DATA
    _ZN4inet11Ipv6Address13ALL_ROUTERS_2E @1498 DATA
    _ZN4inet11Ipv6Address13ALL_ROUTERS_5E @1499 DATA
    _ZN4inet11Ipv6Address13constructMaskEi @1500
    _ZN4inet11Ipv6Address13constructMaskEiPj @1501
    _ZN4inet11Ipv6Address16LINKLOCAL_PREFIXE @1502 DATA
    _ZN4inet11Ipv6Address16LL_MANET_ROUTERSE @1503 DATA
    _ZN4inet11Ipv6Address16LOOPBACK_ADDRESSE @1504 DATA
    _ZN4inet11Ipv6Address19UNSPECIFIED_ADDRESSE @1505 DATA
    _ZN4inet11Ipv6Address20formLinkLocalAddressERKNS_14InterfaceTokenE @1506
    _ZN4inet11Ipv6Address21SOLICITED_NODE_PREFIXE @1507 DATA
    _ZN4inet11Ipv6Address22ALL_OSPF_ROUTERS_MCASTE @1508 DATA
    _ZN4inet11Ipv6Address22tryParseAddrWithPrefixEPKcRi @1509
    _ZN4inet11Ipv6Address33ALL_OSPF_DESIGNATED_ROUTERS_MCASTE @1510 DATA
    _ZN4inet11Ipv6Address3setEPKc @1511
    _ZN4inet11Ipv6Address8tryParseEPKc @1512
    _ZN4inet11Ipv6Address9scopeNameENS0_5ScopeE @1513
    _ZN4inet11Ipv6Address9setPrefixERKS0_i @1514
    _ZN4inet11Ipv6Address9setSuffixERKS0_i @1515
    _ZN4inet11Ipv6FragBuf11addFragmentEPNS_6PacketEPKNS_10Ipv6HeaderEPKNS_18Ipv6FragmentHeaderEN7omnetpp7SimTimeE @1516
    _ZN4inet11Ipv6FragBuf19purgeStaleFragmentsEN7omnetpp7SimTimeE @1517
    _ZN4inet11Ipv6FragBuf4initEPNS_6Icmpv6E @1518
    _ZN4inet11Ipv6FragBufC1Ev @1519
    _ZN4inet11Ipv6FragBufC2Ev @1520
    _ZN4inet11Ipv6FragBufD1Ev @1521
    _ZN4inet11Ipv6FragBufD2Ev @1522
    _ZN4inet11IpvxTrafGen10initializeEi @1523
    _ZN4inet11IpvxTrafGen10sendPacketEv @1524
    _ZN4inet11IpvxTrafGen11printPacketEPNS_6PacketE @1525
    _ZN4inet11IpvxTrafGen13processPacketEPNS_6PacketE @1526
    _ZN4inet11IpvxTrafGen14chooseDestAddrEv @1527
    _ZN4inet11IpvxTrafGen16cancelNextPacketEv @1528
    _ZN4inet11IpvxTrafGen18allocatedProtocolsE @1529 DATA
    _ZN4inet11IpvxTrafGen18scheduleNextPacketEN7omnetpp7SimTimeE @1530
    _ZN4inet11IpvxTrafGen19handleMessageWhenUpEPN7omnetpp8cMessageE @1531
    _ZN4inet11IpvxTrafGen19handleStopOperationEPNS_18LifecycleOperationE @1532
    _ZN4inet11IpvxTrafGen20handleCrashOperationEPNS_18LifecycleOperationE @1533
    _ZN4inet11IpvxTrafGen20handleStartOperationEPNS_18LifecycleOperationE @1534
    _ZN4inet11IpvxTrafGen8startAppEv @1535
    _ZN4inet11IpvxTrafGen9isEnabledEv @1536
    _ZN4inet11IpvxTrafGenC1Ev @1537
    _ZN4inet11IpvxTrafGenC2Ev @1538
    _ZN4inet11IpvxTrafGenD0Ev @1539
    _ZN4inet11IpvxTrafGenD1Ev @1540
    _ZN4inet11IpvxTrafGenD2Ev @1541
    _ZN4inet11LineSegment19computeIntersectionERKS0_RNS_5CoordES4_ @1542
    _ZN4inet11LineSegment3NILE @1543 DATA
    _ZN4inet11LineSegmentC1ERKNS_5CoordES3_ @1544
    _ZN4inet11LineSegmentC1Ev @1545
    _ZN4inet11LineSegmentC2ERKNS_5CoordES3_ @1546
    _ZN4inet11LineSegmentC2Ev @1547
    _ZN4inet11NetworkBase10initializeEi @1548
    _ZN4inet11PacketEvent11setDurationEN7omnetpp7SimTimeE @1549
    _ZN4inet11PacketEvent12parsimUnpackEPN7omnetpp11cCommBufferE @1550
    _ZN4inet11PacketEvent13setModulePathEPKc @1551
    _ZN4inet11PacketEvent14setEventNumberEx @1552
    _ZN4inet11PacketEvent15setPacketLengthENS_5units5valueIxNS1_5units1bEEE @1553
    _ZN4inet11PacketEvent17setSimulationTimeEN7omnetpp7SimTimeE @1554
    _ZN4inet11PacketEvent4copyERKS0_ @1555
    _ZN4inet11PacketEvent7setKindEi @1556
    _ZN4inet11PacketEventC1ERKS0_ @1557
    _ZN4inet11PacketEventC1Ev @1558
    _ZN4inet11PacketEventC2ERKS0_ @1559
    _ZN4inet11PacketEventC2Ev @1560
    _ZN4inet11PacketEventD0Ev @1561
    _ZN4inet11PacketEventD1Ev @1562
    _ZN4inet11PacketEventD2Ev @1563
    _ZN4inet11PacketEventaSERKS0_ @1564
    _ZN4inet11PimNeighbor7changedEv @1565
    _ZN4inet11PimNeighborC1EPNS_16NetworkInterfaceENS_11Ipv4AddressEi @1566
    _ZN4inet11PimNeighborC2EPNS_16NetworkInterfaceENS_11Ipv4AddressEi @1567
    _ZN4inet11PimNeighborD0Ev @1568
    _ZN4inet11PimNeighborD1Ev @1569
    _ZN4inet11PimNeighborD2Ev @1570
    _ZN4inet11PimRegister12parsimUnpackEPN7omnetpp11cCommBufferE @1571
    _ZN4inet11PimRegister12setReserved2Ej @1572
    _ZN4inet11PimRegister4copyERKS0_ @1573
    _ZN4inet11PimRegister4setBEb @1574
    _ZN4inet11PimRegister4setNEb @1575
    _ZN4inet11PimRegisterC1ERKS0_ @1576
    _ZN4inet11PimRegisterC1Ev @1577
    _ZN4inet11PimRegisterC2ERKS0_ @1578
    _ZN4inet11PimRegisterC2Ev @1579
    _ZN4inet11PimRegisterD0Ev @1580
    _ZN4inet11PimRegisterD1Ev @1581
    _ZN4inet11PimRegisterD2Ev @1582
    _ZN4inet11PimRegisteraSERKS0_ @1583
    _ZN4inet11PimSplitter10initializeEi @1584
    _ZN4inet11PimSplitter13handleMessageEPN7omnetpp8cMessageE @1585
    _ZN4inet11PimSplitter16processPIMPacketEPNS_6PacketE @1586
    _ZN4inet11ProgressTag11setDatarateENS_5units5valueIdNS1_7composeINS1_5units1bENS1_3powINS4_1sELin1ELi1EEEEEEE @1587
    _ZN4inet11ProgressTag11setPositionENS_5units5valueIxNS1_5units1bEEE @1588
    _ZN4inet11ProgressTag12parsimUnpackEPN7omnetpp11cCommBufferE @1589
    _ZN4inet11ProgressTag25setExtraProcessableLengthENS_5units5valueIxNS1_5units1bEEE @1590
    _ZN4inet11ProgressTag27setExtraProcessableDurationEN7omnetpp7SimTimeE @1591
    _ZN4inet11ProgressTag4copyERKS0_ @1592
    _ZN4inet11ProgressTagC1ERKS0_ @1593
    _ZN4inet11ProgressTagC1Ev @1594
    _ZN4inet11ProgressTagC2ERKS0_ @1595
    _ZN4inet11ProgressTagC2Ev @1596
    _ZN4inet11ProgressTagD0Ev @1597
    _ZN4inet11ProgressTagD1Ev @1598
    _ZN4inet11ProgressTagD2Ev @1599
    _ZN4inet11ProgressTagaSERKS0_ @1600
    _ZN4inet11PsbTimerMsg12parsimUnpackEPN7omnetpp11cCommBufferE @1601
    _ZN4inet11PsbTimerMsg4copyERKS0_ @1602
    _ZN4inet11PsbTimerMsg5setIdEi @1603
    _ZN4inet11PsbTimerMsgC1EPKcs @1604
    _ZN4inet11PsbTimerMsgC1ERKS0_ @1605
    _ZN4inet11PsbTimerMsgC2EPKcs @1606
    _ZN4inet11PsbTimerMsgC2ERKS0_ @1607
    _ZN4inet11PsbTimerMsgD0Ev @1608
    _ZN4inet11PsbTimerMsgD1Ev @1609
    _ZN4inet11PsbTimerMsgD2Ev @1610
    _ZN4inet11PsbTimerMsgaSERKS0_ @1611
    _ZN4inet11QueueFigure15setElementCountEi @1612
    _ZN4inet11QueueFigure18setMaxElementCountEi @1613
    _ZN4inet11QueueFigureC1EPKc @1614
    _ZN4inet11QueueFigureC2EPKc @1615
    _ZN4inet11RsvpMessage11setRsvpKindEi @1616
    _ZN4inet11RsvpMessage12parsimUnpackEPN7omnetpp11cCommBufferE @1617
    _ZN4inet11RsvpMessage4copyERKS0_ @1618
    _ZN4inet11RsvpMessageC1ERKS0_ @1619
    _ZN4inet11RsvpMessageC1Ev @1620
    _ZN4inet11RsvpMessageC2ERKS0_ @1621
    _ZN4inet11RsvpMessageC2Ev @1622
    _ZN4inet11RsvpMessageD0Ev @1623
    _ZN4inet11RsvpMessageD1Ev @1624
    _ZN4inet11RsvpMessageD2Ev @1625
    _ZN4inet11RsvpMessageaSERKS0_ @1626
    _ZN4inet11RsvpPathMsg12parsimUnpackEPN7omnetpp11cCommBufferE @1627
    _ZN4inet11RsvpPathMsg16setLabel_requestERKNS_15LabelRequestObjE @1628
    _ZN4inet11RsvpPathMsg20setSender_descriptorERKNS_18SenderDescriptor_tE @1629
    _ZN4inet11RsvpPathMsg4copyERKS0_ @1630
    _ZN4inet11RsvpPathMsg6setEROERKSt6vectorINS_6EroObjESaIS2_EE @1631
    _ZN4inet11RsvpPathMsg6setHopERKNS_10RsvpHopObjE @1632
    _ZN4inet11RsvpPathMsg8setColorEi @1633
    _ZN4inet11RsvpPathMsgC1ERKS0_ @1634
    _ZN4inet11RsvpPathMsgC1Ev @1635
    _ZN4inet11RsvpPathMsgC2ERKS0_ @1636
    _ZN4inet11RsvpPathMsgC2Ev @1637
    _ZN4inet11RsvpPathMsgD0Ev @1638
    _ZN4inet11RsvpPathMsgD1Ev @1639
    _ZN4inet11RsvpPathMsgD2Ev @1640
    _ZN4inet11RsvpPathMsgaSERKS0_ @1641
    _ZN4inet11RsvpResvMsg12parsimUnpackEPN7omnetpp11cCommBufferE @1642
    _ZN4inet11RsvpResvMsg17setFlowDescriptorERKSt6vectorINS_16FlowDescriptor_tESaIS2_EE @1643
    _ZN4inet11RsvpResvMsg4copyERKS0_ @1644
    _ZN4inet11RsvpResvMsg6setHopERKNS_10RsvpHopObjE @1645
    _ZN4inet11RsvpResvMsgC1ERKS0_ @1646
    _ZN4inet11RsvpResvMsgC1Ev @1647
    _ZN4inet11RsvpResvMsgC2ERKS0_ @1648
    _ZN4inet11RsvpResvMsgC2Ev @1649
    _ZN4inet11RsvpResvMsgD0Ev @1650
    _ZN4inet11RsvpResvMsgD1Ev @1651
    _ZN4inet11RsvpResvMsgD2Ev @1652
    _ZN4inet11RsvpResvMsgaSERKS0_ @1653
    _ZN4inet11SctpInfoReq12parsimUnpackEPN7omnetpp11cCommBufferE @1654
    _ZN4inet11SctpInfoReq4copyERKS0_ @1655
    _ZN4inet11SctpInfoReq7setTextEi @1656
    _ZN4inet11SctpInfoReqC1ERKS0_ @1657
    _ZN4inet11SctpInfoReqC1Ev @1658
    _ZN4inet11SctpInfoReqC2ERKS0_ @1659
    _ZN4inet11SctpInfoReqC2Ev @1660
    _ZN4inet11SctpInfoReqD0Ev @1661
    _ZN4inet11SctpInfoReqD1Ev @1662
    _ZN4inet11SctpInfoReqD2Ev @1663
    _ZN4inet11SctpInfoReqaSERKS0_ @1664
    _ZN4inet11SctpNatPeer10initializeEi @1665
    _ZN4inet11SctpNatPeer11handleTimerEPN7omnetpp8cMessageE @1666
    _ZN4inet11SctpNatPeer11sendRequestEb @1667
    _ZN4inet11SctpNatPeer12socketClosedEPNS_10SctpSocketE @1668
    _ZN4inet11SctpNatPeer13handleMessageEPN7omnetpp8cMessageE @1669
    _ZN4inet11SctpNatPeer13socketFailureEPNS_10SctpSocketEi @1670
    _ZN4inet11SctpNatPeer14sendOrScheduleEPN7omnetpp8cMessageE @1671
    _ZN4inet11SctpNatPeer15generateAndSendEv @1672
    _ZN4inet11SctpNatPeer15setStatusStringEPKc @1673
    _ZN4inet11SctpNatPeer16sendQueueRequestEv @1674
    _ZN4inet11SctpNatPeer16socketPeerClosedEPNS_10SctpSocketE @1675
    _ZN4inet11SctpNatPeer17socketDataArrivedEPNS_10SctpSocketEPNS_6PacketEb @1676
    _ZN4inet11SctpNatPeer17socketEstablishedEPNS_10SctpSocketEm @1677
    _ZN4inet11SctpNatPeer18sendRequestArrivedEPNS_10SctpSocketE @1678
    _ZN4inet11SctpNatPeer19addressAddedArrivedEPNS_10SctpSocketENS_9L3AddressES3_ @1679
    _ZN4inet11SctpNatPeer19msgAbandonedArrivedEPNS_10SctpSocketE @1680
    _ZN4inet11SctpNatPeer19socketStatusArrivedEPNS_10SctpSocketEPNS_13SctpStatusReqE @1681
    _ZN4inet11SctpNatPeer20sendqueueFullArrivedEPNS_10SctpSocketE @1682
    _ZN4inet11SctpNatPeer23shutdownReceivedArrivedEPNS_10SctpSocketE @1683
    _ZN4inet11SctpNatPeer29socketDataNotificationArrivedEPNS_10SctpSocketEPNS_7MessageE @1684
    _ZN4inet11SctpNatPeer6finishEv @1685
    _ZN4inet11SctpNatPeer7connectENS_9L3AddressEi @1686
    _ZN4inet11SctpNatPeer8connectxESt6vectorINS_9L3AddressESaIS2_EEi @1687
    _ZN4inet11SctpNatPeerC1Ev @1688
    _ZN4inet11SctpNatPeerC2Ev @1689
    _ZN4inet11SctpNatPeerD0Ev @1690
    _ZN4inet11SctpNatPeerD1Ev @1691
    _ZN4inet11SctpNatPeerD2Ev @1692
    _ZN4inet11SctpOpenReq11setPrMethodEi @1693
    _ZN4inet11SctpOpenReq12parsimUnpackEPN7omnetpp11cCommBufferE @1694
    _ZN4inet11SctpOpenReq13setAppLimitedEb @1695
    _ZN4inet11SctpOpenReq13setQueueClassEPKc @1696
    _ZN4inet11SctpOpenReq14setNumRequestsEj @1697
    _ZN4inet11SctpOpenReq14setStreamResetEb @1698
    _ZN4inet11SctpOpenReq17setInboundStreamsEj @1699
    _ZN4inet11SctpOpenReq17setLocalAddressesERKSt6vectorINS_9L3AddressESaIS2_EE @1700
    _ZN4inet11SctpOpenReq17setMessagesToPushEj @1701
    _ZN4inet11SctpOpenReq18setOutboundStreamsEj @1702
    _ZN4inet11SctpOpenReq18setRemoteAddressesERKSt6vectorINS_9L3AddressESaIS2_EE @1703
    _ZN4inet11SctpOpenReq21setSctpAlgorithmClassEPKc @1704
    _ZN4inet11SctpOpenReq4copyERKS0_ @1705
    _ZN4inet11SctpOpenReq7setForkEb @1706
    _ZN4inet11SctpOpenReqC1ERKS0_ @1707
    _ZN4inet11SctpOpenReqC1Ev @1708
    _ZN4inet11SctpOpenReqC2ERKS0_ @1709
    _ZN4inet11SctpOpenReqC2Ev @1710
    _ZN4inet11SctpOpenReqD0Ev @1711
    _ZN4inet11SctpOpenReqD1Ev @1712
    _ZN4inet11SctpOpenReqD2Ev @1713
    _ZN4inet11SctpOpenReqaSERKS0_ @1714
    _ZN4inet11SctpSendReq10setPrimaryEb @1715
    _ZN4inet11SctpSendReq10setSackNowEb @1716
    _ZN4inet11SctpSendReq11setPrMethodEj @1717
    _ZN4inet11SctpSendReq12parsimUnpackEPN7omnetpp11cCommBufferE @1718
    _ZN4inet11SctpSendReq4copyERKS0_ @1719
    _ZN4inet11SctpSendReq7setLastEb @1720
    _ZN4inet11SctpSendReq7setPpidEj @1721
    _ZN4inet11SctpSendReqC1ERKS0_ @1722
    _ZN4inet11SctpSendReqC1Ev @1723
    _ZN4inet11SctpSendReqC2ERKS0_ @1724
    _ZN4inet11SctpSendReqC2Ev @1725
    _ZN4inet11SctpSendReqD0Ev @1726
    _ZN4inet11SctpSendReqD1Ev @1727
    _ZN4inet11SctpSendReqD2Ev @1728
    _ZN4inet11SctpSendReqaSERKS0_ @1729
    _ZN4inet11ShortcutMac10initializeEi @1730
    _ZN4inet11ShortcutMac10sendToPeerEPNS_6PacketEPS0_ @1731
    _ZN4inet11ShortcutMac12shortcutMacsE @1732 DATA
    _ZN4inet11ShortcutMac15receiveFromPeerEPNS_6PacketE @1733
    _ZN4inet11ShortcutMac17handleLowerPacketEPNS_6PacketE @1734
    _ZN4inet11ShortcutMac17handleUpperPacketEPNS_6PacketE @1735
    _ZN4inet11ShortcutMac19handleMessageWhenUpEPN7omnetpp8cMessageE @1736
    _ZN4inet11ShortcutMac25configureNetworkInterfaceEv @1737
    _ZN4inet11ShortcutMac8findPeerENS_10MacAddressE @1738
    _ZN4inet11ShortcutMacD0Ev @1739
    _ZN4inet11ShortcutMacD1Ev @1740
    _ZN4inet11ShortcutMacD2Ev @1741
    _ZN4inet11SpatialGrid11insertPointEPKN7omnetpp7cObjectERKNS_5CoordE @1742
    _ZN4inet11SpatialGrid11removePointEPKN7omnetpp7cObjectE @1743
    _ZN4inet11SpatialGrid12insertObjectEPKN7omnetpp7cObjectERKNS_5CoordES7_ @1744
    _ZN4inet11SpatialGrid19LineSegmentIteratorC1EPKS0_RKNS_11LineSegmentERKNS0_7TripletIdEERKNS7_IiEE @1745
    _ZN4inet11SpatialGrid19LineSegmentIteratorC2EPKS0_RKNS_11LineSegmentERKNS0_7TripletIdEERKNS7_IiEE @1746
    _ZN4inet11SpatialGrid19LineSegmentIteratorppEv @1747
    _ZN4inet11SpatialGrid9clearGridEv @1748
    _ZN4inet11SpatialGrid9movePointEPKN7omnetpp7cObjectERKNS_5CoordE @1749
    _ZN4inet11SpatialGridC1ERKNS_5CoordES3_S3_ @1750
    _ZN4inet11SpatialGridC2ERKNS_5CoordES3_S3_ @1751
    _ZN4inet11TimeTagBase12parsimUnpackEPN7omnetpp11cCommBufferE @1752
    _ZN4inet11TimeTagBase12setFlowNamesEyPKc @1753
    _ZN4inet11TimeTagBase14eraseFlowNamesEy @1754
    _ZN4inet11TimeTagBase15appendFlowNamesEPKc @1755
    _ZN4inet11TimeTagBase15insertFlowNamesEyPKc @1756
    _ZN4inet11TimeTagBase16setBitTotalTimesEyN7omnetpp7SimTimeE @1757
    _ZN4inet11TimeTagBase18eraseBitTotalTimesEy @1758
    _ZN4inet11TimeTagBase19appendBitTotalTimesEN7omnetpp7SimTimeE @1759
    _ZN4inet11TimeTagBase19insertBitTotalTimesEyN7omnetpp7SimTimeE @1760
    _ZN4inet11TimeTagBase19setPacketTotalTimesEyN7omnetpp7SimTimeE @1761
    _ZN4inet11TimeTagBase21erasePacketTotalTimesEy @1762
    _ZN4inet11TimeTagBase21setFlowNamesArraySizeEy @1763
    _ZN4inet11TimeTagBase22appendPacketTotalTimesEN7omnetpp7SimTimeE @1764
    _ZN4inet11TimeTagBase22insertPacketTotalTimesEyN7omnetpp7SimTimeE @1765
    _ZN4inet11TimeTagBase25setBitTotalTimesArraySizeEy @1766
    _ZN4inet11TimeTagBase28setPacketTotalTimesArraySizeEy @1767
    _ZN4inet11TimeTagBase4copyERKS0_ @1768
    _ZN4inet11TimeTagBaseC1ERKS0_ @1769
    _ZN4inet11TimeTagBaseC1Ev @1770
    _ZN4inet11TimeTagBaseC2ERKS0_ @1771
    _ZN4inet11TimeTagBaseC2Ev @1772
    _ZN4inet11TimeTagBaseD0Ev @1773
    _ZN4inet11TimeTagBaseD1Ev @1774
    _ZN4inet11TimeTagBaseD2Ev @1775
    _ZN4inet11TimeTagBaseaSERKS0_ @1776
    _ZN4inet11TrailFigure9addFigureEPN7omnetpp7cFigureE @1777
    _ZN4inet11TrailFigureC1EibPKc @1778
    _ZN4inet11TrailFigureC2EibPKc @1779
    _ZN4inet11UdpBasicApp10initializeEi @1780
    _ZN4inet11UdpBasicApp10sendPacketEv @1781
    _ZN4inet11UdpBasicApp11processSendEv @1782
    _ZN4inet11UdpBasicApp11processStopEv @1783
    _ZN4inet11UdpBasicApp12processStartEv @1784
    _ZN4inet11UdpBasicApp12socketClosedEPNS_9UdpSocketE @1785
    _ZN4inet11UdpBasicApp13processPacketEPNS_6PacketE @1786
    _ZN4inet11UdpBasicApp14chooseDestAddrEv @1787
    _ZN4inet11UdpBasicApp16setSocketOptionsEv @1788
    _ZN4inet11UdpBasicApp17socketDataArrivedEPNS_9UdpSocketEPNS_6PacketE @1789
    _ZN4inet11UdpBasicApp18socketErrorArrivedEPNS_9UdpSocketEPNS_10IndicationE @1790
    _ZN4inet11UdpBasicApp19handleMessageWhenUpEPN7omnetpp8cMessageE @1791
    _ZN4inet11UdpBasicApp19handleStopOperationEPNS_18LifecycleOperationE @1792
    _ZN4inet11UdpBasicApp20handleCrashOperationEPNS_18LifecycleOperationE @1793
    _ZN4inet11UdpBasicApp20handleStartOperationEPNS_18LifecycleOperationE @1794
    _ZN4inet11UdpBasicApp6finishEv @1795
    _ZN4inet11UdpBasicAppD0Ev @1796
    _ZN4inet11UdpBasicAppD1Ev @1797
    _ZN4inet11UdpBasicAppD2Ev @1798
    _ZN4inet11UdpSocketIo10initializeEi @1799
    _ZN4inet11UdpSocketIo12socketClosedEPNS_9UdpSocketE @1800
    _ZN4inet11UdpSocketIo16setSocketOptionsEv @1801
    _ZN4inet11UdpSocketIo17socketDataArrivedEPNS_9UdpSocketEPNS_6PacketE @1802
    _ZN4inet11UdpSocketIo18socketErrorArrivedEPNS_9UdpSocketEPNS_10IndicationE @1803
    _ZN4inet11UdpSocketIo19handleMessageWhenUpEPN7omnetpp8cMessageE @1804
    _ZN4inet11UdpSocketIo19handleStopOperationEPNS_18LifecycleOperationE @1805
    _ZN4inet11UdpSocketIo20handleCrashOperationEPNS_18LifecycleOperationE @1806
    _ZN4inet11UdpSocketIo20handleStartOperationEPNS_18LifecycleOperationE @1807
    _ZN4inet11UdpSocketIo6finishEv @1808
    _ZN4inet11VlanTagBase12parsimUnpackEPN7omnetpp11cCommBufferE @1809
    _ZN4inet11VlanTagBase4copyERKS0_ @1810
    _ZN4inet11VlanTagBase9setVlanIdEi @1811
    _ZN4inet11VlanTagBaseC1ERKS0_ @1812
    _ZN4inet11VlanTagBaseC1Ev @1813
    _ZN4inet11VlanTagBaseC2ERKS0_ @1814
    _ZN4inet11VlanTagBaseC2Ev @1815
    _ZN4inet11VlanTagBaseD0Ev @1816
    _ZN4inet11VlanTagBaseD1Ev @1817
    _ZN4inet11VlanTagBaseD2Ev @1818
    _ZN4inet11VlanTagBaseaSERKS0_ @1819
    _ZN4inet11__doPackingEPN7omnetpp11cCommBufferERKNS_10RsvpHopObjE @1820
    _ZN4inet11__doPackingEPN7omnetpp11cCommBufferERKNS_10SessionObjE @1821
    _ZN4inet11__doPackingEPN7omnetpp11cCommBufferERKNS_11FlowSpecObjE @1822
    _ZN4inet11__doPackingEPN7omnetpp11cCommBufferERKNS_12EigrpKValuesE @1823
    _ZN4inet11__doPackingEPN7omnetpp11cCommBufferERKNS_12EigrpTlvStubE @1824
    _ZN4inet11__doPackingEPN7omnetpp11cCommBufferERKNS_12PortIdentityE @1825
    _ZN4inet11__doPackingEPN7omnetpp11cCommBufferERKNS_13EigrpMsgRouteE @1826
    _ZN4inet11__doPackingEPN7omnetpp11cCommBufferERKNS_13FilterSpecObjE @1827
    _ZN4inet11__doPackingEPN7omnetpp11cCommBufferERKNS_14SenderTspecObjE @1828
    _ZN4inet11__doPackingEPN7omnetpp11cCommBufferERKNS_15EigrpRouteFlagsE @1829
    _ZN4inet11__doPackingEPN7omnetpp11cCommBufferERKNS_15LabelRequestObjE @1830
    _ZN4inet11__doPackingEPN7omnetpp11cCommBufferERKNS_15TeLinkStateInfoE @1831
    _ZN4inet11__doPackingEPN7omnetpp11cCommBufferERKNS_16FlowDescriptor_tE @1832
    _ZN4inet11__doPackingEPN7omnetpp11cCommBufferERKNS_17EigrpTlvParameterE @1833
    _ZN4inet11__doPackingEPN7omnetpp11cCommBufferERKNS_17SenderTemplateObjE @1834
    _ZN4inet11__doPackingEPN7omnetpp11cCommBufferERKNS_18EigrpWideMetricParE @1835
    _ZN4inet11__doPackingEPN7omnetpp11cCommBufferERKNS_18SenderDescriptor_tE @1836
    _ZN4inet11__doPackingEPN7omnetpp11cCommBufferERKNS_19EigrpMpIpv4InternalE @1837
    _ZN4inet11__doPackingEPN7omnetpp11cCommBufferERKNS_19EigrpMpIpv6InternalE @1838
    _ZN4inet11__doPackingEPN7omnetpp11cCommBufferERKNS_19EncodedGroupAddressE @1839
    _ZN4inet11__doPackingEPN7omnetpp11cCommBufferERKNS_20EncodedSourceAddressE @1840
    _ZN4inet11__doPackingEPN7omnetpp11cCommBufferERKNS_21EncodedUnicastAddressE @1841
    _ZN4inet11__doPackingEPN7omnetpp11cCommBufferERKNS_6EroObjE @1842
    _ZN4inet11__doPackingEPN7omnetpp11cCommBufferERKNS_6FecTlvE @1843
    _ZN4inet11__doPackingEPN7omnetpp11cCommBufferERKNS_8RipEntryE @1844
    _ZN4inet11__doPackingEPN7omnetpp11cCommBufferERKNS_9EigrpStubE @1845
    _ZN4inet12BindingCache10initializeEv @1846
    _ZN4inet12BindingCache11deleteEntryERKNS_11Ipv6AddressE @1847
    _ZN4inet12BindingCache11generateKeyEiiRKNS_11Ipv6AddressE @1848
    _ZN4inet12BindingCache13addOrUpdateBCERKNS_11Ipv6AddressES3_jjb @1849
    _ZN4inet12BindingCache13handleMessageEPN7omnetpp8cMessageE @1850
    _ZN4inet12BindingCache17generateHomeTokenERKNS_11Ipv6AddressEi @1851
    _ZN4inet12BindingCache19generateCareOfTokenERKNS_11Ipv6AddressEi @1852
    _ZN4inet12BindingCacheC1Ev @1853
    _ZN4inet12BindingCacheC2Ev @1854
    _ZN4inet12BindingCacheD0Ev @1855
    _ZN4inet12BindingCacheD1Ev @1856
    _ZN4inet12BindingCacheD2Ev @1857
    _ZN4inet12BindingError12parsimUnpackEPN7omnetpp11cCommBufferE @1858
    _ZN4inet12BindingError14setHomeAddressERKNS_11Ipv6AddressE @1859
    _ZN4inet12BindingError4copyERKS0_ @1860
    _ZN4inet12BindingError9setStatusENS_8BeStatusE @1861
    _ZN4inet12BindingErrorC1ERKS0_ @1862
    _ZN4inet12BindingErrorC1Ev @1863
    _ZN4inet12BindingErrorC2ERKS0_ @1864
    _ZN4inet12BindingErrorC2Ev @1865
    _ZN4inet12BindingErrorD0Ev @1866
    _ZN4inet12BindingErrorD1Ev @1867
    _ZN4inet12BindingErrorD2Ev @1868
    _ZN4inet12BindingErroraSERKS0_ @1869
    _ZN4inet12DirectionTag12parsimUnpackEPN7omnetpp11cCommBufferE @1870
    _ZN4inet12DirectionTag12setDirectionENS_9DirectionE @1871
    _ZN4inet12DirectionTag4copyERKS0_ @1872
    _ZN4inet12DirectionTagC1ERKS0_ @1873
    _ZN4inet12DirectionTagC1Ev @1874
    _ZN4inet12DirectionTagC2ERKS0_ @1875
    _ZN4inet12DirectionTagC2Ev @1876
    _ZN4inet12DirectionTagD0Ev @1877
    _ZN4inet12DirectionTagD1Ev @1878
    _ZN4inet12DirectionTagD2Ev @1879
    _ZN4inet12DirectionTagaSERKS0_ @1880
    _ZN4inet12EchoProtocol10initializeEi @1881
    _ZN4inet12EchoProtocol13handleMessageEPN7omnetpp8cMessageE @1882
    _ZN4inet12EchoProtocol13processPacketEPNS_6PacketE @1883
    _ZN4inet12EchoProtocol16processEchoReplyEPNS_6PacketE @1884
    _ZN4inet12EchoProtocol18processEchoRequestEPNS_6PacketE @1885
    _ZN4inet12EigrpIpv4Ack12parsimUnpackEPN7omnetpp11cCommBufferE @1886
    _ZN4inet12EigrpIpv4Ack4copyERKS0_ @1887
    _ZN4inet12EigrpIpv4AckC1ERKS0_ @1888
    _ZN4inet12EigrpIpv4AckC1Ev @1889
    _ZN4inet12EigrpIpv4AckC2ERKS0_ @1890
    _ZN4inet12EigrpIpv4AckC2Ev @1891
    _ZN4inet12EigrpIpv4AckD0Ev @1892
    _ZN4inet12EigrpIpv4AckD1Ev @1893
    _ZN4inet12EigrpIpv4AckD2Ev @1894
    _ZN4inet12EigrpIpv4AckaSERKS0_ @1895
    _ZN4inet12EigrpIpv6Ack12parsimUnpackEPN7omnetpp11cCommBufferE @1896
    _ZN4inet12EigrpIpv6Ack4copyERKS0_ @1897
    _ZN4inet12EigrpIpv6AckC1ERKS0_ @1898
    _ZN4inet12EigrpIpv6AckC1Ev @1899
    _ZN4inet12EigrpIpv6AckC2ERKS0_ @1900
    _ZN4inet12EigrpIpv6AckC2Ev @1901
    _ZN4inet12EigrpIpv6AckD0Ev @1902
    _ZN4inet12EigrpIpv6AckD1Ev @1903
    _ZN4inet12EigrpIpv6AckD2Ev @1904
    _ZN4inet12EigrpIpv6AckaSERKS0_ @1905
    _ZN4inet12EigrpKValuesC1Ev @1906
    _ZN4inet12EigrpKValuesC2Ev @1907
    _ZN4inet12EigrpMessage10setVersionEc @1908
    _ZN4inet12EigrpMessage12parsimUnpackEPN7omnetpp11cCommBufferE @1909
    _ZN4inet12EigrpMessage4copyERKS0_ @1910
    _ZN4inet12EigrpMessage5setCrEb @1911
    _ZN4inet12EigrpMessage5setRsEb @1912
    _ZN4inet12EigrpMessage6setEotEb @1913
    _ZN4inet12EigrpMessage7setInitEb @1914
    _ZN4inet12EigrpMessage7setVridEt @1915
    _ZN4inet12EigrpMessage8setAsNumEt @1916
    _ZN4inet12EigrpMessage9setAckNumEi @1917
    _ZN4inet12EigrpMessage9setOpcodeEa @1918
    _ZN4inet12EigrpMessage9setSeqNumEi @1919
    _ZN4inet12EigrpMessageC1ERKS0_ @1920
    _ZN4inet12EigrpMessageC1Ev @1921
    _ZN4inet12EigrpMessageC2ERKS0_ @1922
    _ZN4inet12EigrpMessageC2Ev @1923
    _ZN4inet12EigrpMessageD0Ev @1924
    _ZN4inet12EigrpMessageD1Ev @1925
    _ZN4inet12EigrpMessageD2Ev @1926
    _ZN4inet12EigrpMessageaSERKS0_ @1927
    _ZN4inet12EigrpTlvStubC1Ev @1928
    _ZN4inet12EigrpTlvStubC2Ev @1929
    _ZN4inet12ErrorRateInd12parsimUnpackEPN7omnetpp11cCommBufferE @1930
    _ZN4inet12ErrorRateInd15setBitErrorRateEd @1931
    _ZN4inet12ErrorRateInd18setPacketErrorRateEd @1932
    _ZN4inet12ErrorRateInd18setSymbolErrorRateEd @1933
    _ZN4inet12ErrorRateInd4copyERKS0_ @1934
    _ZN4inet12ErrorRateIndC1ERKS0_ @1935
    _ZN4inet12ErrorRateIndC1Ev @1936
    _ZN4inet12ErrorRateIndC2ERKS0_ @1937
    _ZN4inet12ErrorRateIndC2Ev @1938
    _ZN4inet12ErrorRateIndD0Ev @1939
    _ZN4inet12ErrorRateIndD1Ev @1940
    _ZN4inet12ErrorRateIndD2Ev @1941
    _ZN4inet12ErrorRateIndaSERKS0_ @1942
    _ZN4inet12EtherAppResp12parsimUnpackEPN7omnetpp11cCommBufferE @1943
    _ZN4inet12EtherAppResp12setNumFramesEi @1944
    _ZN4inet12EtherAppResp12setRequestIdEi @1945
    _ZN4inet12EtherAppResp4copyERKS0_ @1946
    _ZN4inet12EtherAppRespC1ERKS0_ @1947
    _ZN4inet12EtherAppRespC1Ev @1948
    _ZN4inet12EtherAppRespC2ERKS0_ @1949
    _ZN4inet12EtherAppRespC2Ev @1950
    _ZN4inet12EtherAppRespD0Ev @1951
    _ZN4inet12EtherAppRespD1Ev @1952
    _ZN4inet12EtherAppRespD2Ev @1953
    _ZN4inet12EtherAppRespaSERKS0_ @1954
    _ZN4inet12EtherTrafGen10initializeEi @1955
    _ZN4inet12EtherTrafGen11isGeneratorEv @1956
    _ZN4inet12EtherTrafGen13receivePacketEPNS_6PacketE @1957
    _ZN4inet12EtherTrafGen16cancelNextPacketEv @1958
    _ZN4inet12EtherTrafGen16sendBurstPacketsEv @1959
    _ZN4inet12EtherTrafGen18scheduleNextPacketEN7omnetpp7SimTimeE @1960
    _ZN4inet12EtherTrafGen19handleMessageWhenUpEPN7omnetpp8cMessageE @1961
    _ZN4inet12EtherTrafGen19handleStopOperationEPNS_18LifecycleOperationE @1962
    _ZN4inet12EtherTrafGen20handleCrashOperationEPNS_18LifecycleOperationE @1963
    _ZN4inet12EtherTrafGen20handleStartOperationEPNS_18LifecycleOperationE @1964
    _ZN4inet12EtherTrafGen21resolveDestMacAddressEv @1965
    _ZN4inet12EtherTrafGen6finishEv @1966
    _ZN4inet12EtherTrafGenC1Ev @1967
    _ZN4inet12EtherTrafGenC2Ev @1968
    _ZN4inet12EtherTrafGenD0Ev @1969
    _ZN4inet12EtherTrafGenD1Ev @1970
    _ZN4inet12EtherTrafGenD2Ev @1971
    _ZN4inet12GptpFollowUp12parsimUnpackEPN7omnetpp11cCommBufferE @1972
    _ZN4inet12GptpFollowUp25setFollowUpInformationTLVERKNS_26GptpFollowUpInformationTlvE @1973
    _ZN4inet12GptpFollowUp25setPreciseOriginTimestampENS_9ClockTimeE @1974
    _ZN4inet12GptpFollowUp4copyERKS0_ @1975
    _ZN4inet12GptpFollowUpC1ERKS0_ @1976
    _ZN4inet12GptpFollowUpC1Ev @1977
    _ZN4inet12GptpFollowUpC2ERKS0_ @1978
    _ZN4inet12GptpFollowUpC2Ev @1979
    _ZN4inet12GptpFollowUpD0Ev @1980
    _ZN4inet12GptpFollowUpD1Ev @1981
    _ZN4inet12GptpFollowUpD2Ev @1982
    _ZN4inet12GptpFollowUpaSERKS0_ @1983
    _ZN4inet12HomeTestInit12parsimUnpackEPN7omnetpp11cCommBufferE @1984
    _ZN4inet12HomeTestInit17setHomeInitCookieEj @1985
    _ZN4inet12HomeTestInit4copyERKS0_ @1986
    _ZN4inet12HomeTestInitC1ERKS0_ @1987
    _ZN4inet12HomeTestInitC1Ev @1988
    _ZN4inet12HomeTestInitC2ERKS0_ @1989
    _ZN4inet12HomeTestInitC2Ev @1990
    _ZN4inet12HomeTestInitD0Ev @1991
    _ZN4inet12HomeTestInitD1Ev @1992
    _ZN4inet12HomeTestInitD2Ev @1993
    _ZN4inet12HomeTestInitaSERKS0_ @1994
    _ZN4inet12Icmpv6Header10setCrcModeENS_7CrcModeE @1995
    _ZN4inet12Icmpv6Header12parsimUnpackEPN7omnetpp11cCommBufferE @1996
    _ZN4inet12Icmpv6Header4copyERKS0_ @1997
    _ZN4inet12Icmpv6Header7setTypeENS_10Icmpv6TypeE @1998
    _ZN4inet12Icmpv6Header9setChksumEi @1999
    _ZN4inet12Icmpv6HeaderC1ERKS0_ @2000
    _ZN4inet12Icmpv6HeaderC1Ev @2001
    _ZN4inet12Icmpv6HeaderC2ERKS0_ @2002
    _ZN4inet12Icmpv6HeaderC2Ev @2003
    _ZN4inet12Icmpv6HeaderD0Ev @2004
    _ZN4inet12Icmpv6HeaderD1Ev @2005
    _ZN4inet12Icmpv6HeaderD2Ev @2006
    _ZN4inet12Icmpv6HeaderaSERKS0_ @2007
    _ZN4inet12Igmpv1Report12parsimUnpackEPN7omnetpp11cCommBufferE @2008
    _ZN4inet12Igmpv1Report15setGroupAddressERKNS_11Ipv4AddressE @2009
    _ZN4inet12Igmpv1Report4copyERKS0_ @2010
    _ZN4inet12Igmpv1Report9setUnusedEh @2011
    _ZN4inet12Igmpv1ReportC1ERKS0_ @2012
    _ZN4inet12Igmpv1ReportC1Ev @2013
    _ZN4inet12Igmpv1ReportC2ERKS0_ @2014
    _ZN4inet12Igmpv1ReportC2Ev @2015
    _ZN4inet12Igmpv1ReportD0Ev @2016
    _ZN4inet12Igmpv1ReportD1Ev @2017
    _ZN4inet12Igmpv1ReportD2Ev @2018
    _ZN4inet12Igmpv1ReportaSERKS0_ @2019
    _ZN4inet12Igmpv2Report12parsimUnpackEPN7omnetpp11cCommBufferE @2020
    _ZN4inet12Igmpv2Report14setMaxRespTimeEh @2021
    _ZN4inet12Igmpv2Report15setGroupAddressERKNS_11Ipv4AddressE @2022
    _ZN4inet12Igmpv2Report4copyERKS0_ @2023
    _ZN4inet12Igmpv2ReportC1ERKS0_ @2024
    _ZN4inet12Igmpv2ReportC1Ev @2025
    _ZN4inet12Igmpv2ReportC2ERKS0_ @2026
    _ZN4inet12Igmpv2ReportC2Ev @2027
    _ZN4inet12Igmpv2ReportD0Ev @2028
    _ZN4inet12Igmpv2ReportD1Ev @2029
    _ZN4inet12Igmpv2ReportD2Ev @2030
    _ZN4inet12Igmpv2ReportaSERKS0_ @2031
    _ZN4inet12Igmpv3Report12parsimUnpackEPN7omnetpp11cCommBufferE @2032
    _ZN4inet12Igmpv3Report14setGroupRecordEyRKNS_11GroupRecordE @2033
    _ZN4inet12Igmpv3Report16eraseGroupRecordEy @2034
    _ZN4inet12Igmpv3Report17appendGroupRecordERKNS_11GroupRecordE @2035
    _ZN4inet12Igmpv3Report17insertGroupRecordEyRKNS_11GroupRecordE @2036
    _ZN4inet12Igmpv3Report23setGroupRecordArraySizeEy @2037
    _ZN4inet12Igmpv3Report4copyERKS0_ @2038
    _ZN4inet12Igmpv3Report8setResv1Eh @2039
    _ZN4inet12Igmpv3Report8setResv2Et @2040
    _ZN4inet12Igmpv3ReportC1ERKS0_ @2041
    _ZN4inet12Igmpv3ReportC1Ev @2042
    _ZN4inet12Igmpv3ReportC2ERKS0_ @2043
    _ZN4inet12Igmpv3ReportC2Ev @2044
    _ZN4inet12Igmpv3ReportD0Ev @2045
    _ZN4inet12Igmpv3ReportD1Ev @2046
    _ZN4inet12Igmpv3ReportD2Ev @2047
    _ZN4inet12Igmpv3ReportaSERKS0_ @2048
    _ZN4inet12InterfaceInd12parsimUnpackEPN7omnetpp11cCommBufferE @2049
    _ZN4inet12InterfaceInd4copyERKS0_ @2050
    _ZN4inet12InterfaceIndC1ERKS0_ @2051
    _ZN4inet12InterfaceIndC1Ev @2052
    _ZN4inet12InterfaceIndC2ERKS0_ @2053
    _ZN4inet12InterfaceIndC2Ev @2054
    _ZN4inet12InterfaceIndD0Ev @2055
    _ZN4inet12InterfaceIndD1Ev @2056
    _ZN4inet12InterfaceIndD2Ev @2057
    _ZN4inet12InterfaceIndaSERKS0_ @2058
    _ZN4inet12InterfaceReq12parsimUnpackEPN7omnetpp11cCommBufferE @2059
    _ZN4inet12InterfaceReq4copyERKS0_ @2060
    _ZN4inet12InterfaceReqC1ERKS0_ @2061
    _ZN4inet12InterfaceReqC1Ev @2062
    _ZN4inet12InterfaceReqC2ERKS0_ @2063
    _ZN4inet12InterfaceReqC2Ev @2064
    _ZN4inet12InterfaceReqD0Ev @2065
    _ZN4inet12InterfaceReqD1Ev @2066
    _ZN4inet12InterfaceReqD2Ev @2067
    _ZN4inet12InterfaceReqaSERKS0_ @2068
    _ZN4inet12IntervalTree10deleteNodeEPKNS0_8IntervalE @2069
    _ZN4inet12IntervalTree10deleteNodeEPNS0_4NodeE @2070
    _ZN4inet12IntervalTree10leftRotateEPNS0_4NodeE @2071
    _ZN4inet12IntervalTree11deleteFixupEPNS0_4NodeE @2072
    _ZN4inet12IntervalTree11rightRotateEPNS0_4NodeE @2073
    _ZN4inet12IntervalTree12fixupMaxHighEPNS0_4NodeE @2074
    _ZN4inet12IntervalTree15recursiveInsertEPNS0_4NodeE @2075
    _ZN4inet12IntervalTree4NodeC1EPKNS0_8IntervalE @2076
    _ZN4inet12IntervalTree4NodeC1Ev @2077
    _ZN4inet12IntervalTree4NodeC2EPKNS0_8IntervalE @2078
    _ZN4inet12IntervalTree4NodeC2Ev @2079
    _ZN4inet12IntervalTree4NodeD1Ev @2080
    _ZN4inet12IntervalTree4NodeD2Ev @2081
    _ZN4inet12IntervalTree5queryEN7omnetpp7SimTimeES2_ @2082
    _ZN4inet12IntervalTree6insertEPKNS0_8IntervalE @2083
    _ZN4inet12IntervalTreeC1Ev @2084
    _ZN4inet12IntervalTreeC2Ev @2085
    _ZN4inet12IntervalTreeD1Ev @2086
    _ZN4inet12IntervalTreeD2Ev @2087
    _ZN4inet12Ipv4NatEntry10setSrcPortEi @2088
    _ZN4inet12Ipv4NatEntry11setDestPortEi @2089
    _ZN4inet12Ipv4NatEntry12parsimUnpackEPN7omnetpp11cCommBufferE @2090
    _ZN4inet12Ipv4NatEntry13setSrcAddressERKNS_11Ipv4AddressE @2091
    _ZN4inet12Ipv4NatEntry14setDestAddressERKNS_11Ipv4AddressE @2092
    _ZN4inet12Ipv4NatEntry4copyERKS0_ @2093
    _ZN4inet12Ipv4NatEntryC1ERKS0_ @2094
    _ZN4inet12Ipv4NatEntryC1Ev @2095
    _ZN4inet12Ipv4NatEntryC2ERKS0_ @2096
    _ZN4inet12Ipv4NatEntryC2Ev @2097
    _ZN4inet12Ipv4NatEntryD0Ev @2098
    _ZN4inet12Ipv4NatEntryD1Ev @2099
    _ZN4inet12Ipv4NatEntryD2Ev @2100
    _ZN4inet12Ipv4NatEntryaSERKS0_ @2101
    _ZN4inet12Ipv4NatTable10initializeEi @2102
    _ZN4inet12Ipv4NatTable11parseConfigEv @2103
    _ZN4inet12Ipv4NatTable13handleMessageEPN7omnetpp8cMessageE @2104
    _ZN4inet12Ipv4NatTable13processPacketEPNS_6PacketENS_10INetfilter5IHook4TypeE @2105
    _ZN4inet12Ipv4NatTableD0Ev @2106
    _ZN4inet12Ipv4NatTableD1Ev @2107
    _ZN4inet12Ipv4NatTableD2Ev @2108
    _ZN4inet12Ipv6NdOption12parsimUnpackEPN7omnetpp11cCommBufferE @2109
    _ZN4inet12Ipv6NdOption15setOptionLengthEs @2110
    _ZN4inet12Ipv6NdOption15setPaddingBytesEyc @2111
    _ZN4inet12Ipv6NdOption17erasePaddingBytesEy @2112
    _ZN4inet12Ipv6NdOption18appendPaddingBytesEc @2113
    _ZN4inet12Ipv6NdOption18insertPaddingBytesEyc @2114
    _ZN4inet12Ipv6NdOption24setPaddingBytesArraySizeEy @2115
    _ZN4inet12Ipv6NdOption4copyERKS0_ @2116
    _ZN4inet12Ipv6NdOption7setTypeENS_17Ipv6NdOptionTypesE @2117
    _ZN4inet12Ipv6NdOptionC1ERKS0_ @2118
    _ZN4inet12Ipv6NdOptionC1Ev @2119
    _ZN4inet12Ipv6NdOptionC2ERKS0_ @2120
    _ZN4inet12Ipv6NdOptionC2Ev @2121
    _ZN4inet12Ipv6NdOptionD0Ev @2122
    _ZN4inet12Ipv6NdOptionD1Ev @2123
    _ZN4inet12Ipv6NdOptionD2Ev @2124
    _ZN4inet12Ipv6NdOptionaSERKS0_ @2125
    _ZN4inet12Ipv6Redirect10setOptionsERKNS_13Ipv6NdOptionsE @2126
    _ZN4inet12Ipv6Redirect12parsimUnpackEPN7omnetpp11cCommBufferE @2127
    _ZN4inet12Ipv6Redirect16setTargetAddressERKNS_11Ipv6AddressE @2128
    _ZN4inet12Ipv6Redirect21setDestinationAddressERKNS_11Ipv6AddressE @2129
    _ZN4inet12Ipv6Redirect4copyERKS0_ @2130
    _ZN4inet12Ipv6RedirectC1ERKS0_ @2131
    _ZN4inet12Ipv6RedirectC1Ev @2132
    _ZN4inet12Ipv6RedirectC2ERKS0_ @2133
    _ZN4inet12Ipv6RedirectC2Ev @2134
    _ZN4inet12Ipv6RedirectD0Ev @2135
    _ZN4inet12Ipv6RedirectD1Ev @2136
    _ZN4inet12Ipv6RedirectD2Ev @2137
    _ZN4inet12Ipv6RedirectaSERKS0_ @2138
    _ZN4inet12IpvxTrafSink10initializeEi @2139
    _ZN4inet12IpvxTrafSink11printPacketEPNS_6PacketE @2140
    _ZN4inet12IpvxTrafSink13processPacketEPNS_6PacketE @2141
    _ZN4inet12IpvxTrafSink19handleMessageWhenUpEPN7omnetpp8cMessageE @2142
    _ZN4inet12L3AddressInd12parsimUnpackEPN7omnetpp11cCommBufferE @2143
    _ZN4inet12L3AddressInd4copyERKS0_ @2144
    _ZN4inet12L3AddressIndC1ERKS0_ @2145
    _ZN4inet12L3AddressIndC1Ev @2146
    _ZN4inet12L3AddressIndC2ERKS0_ @2147
    _ZN4inet12L3AddressIndC2Ev @2148
    _ZN4inet12L3AddressIndD0Ev @2149
    _ZN4inet12L3AddressIndD1Ev @2150
    _ZN4inet12L3AddressIndD2Ev @2151
    _ZN4inet12L3AddressIndaSERKS0_ @2152
    _ZN4inet12L3AddressReq12parsimUnpackEPN7omnetpp11cCommBufferE @2153
    _ZN4inet12L3AddressReq21setNonLocalSrcAddressEb @2154
    _ZN4inet12L3AddressReq4copyERKS0_ @2155
    _ZN4inet12L3AddressReqC1ERKS0_ @2156
    _ZN4inet12L3AddressReqC1Ev @2157
    _ZN4inet12L3AddressReqC2ERKS0_ @2158
    _ZN4inet12L3AddressReqC2Ev @2159
    _ZN4inet12L3AddressReqD0Ev @2160
    _ZN4inet12L3AddressReqD1Ev @2161
    _ZN4inet12L3AddressReqD2Ev @2162
    _ZN4inet12L3AddressReqaSERKS0_ @2163
    _ZN4inet12LinkStateMsg10setCommandEi @2164
    _ZN4inet12LinkStateMsg10setRequestEb @2165
    _ZN4inet12LinkStateMsg11setLinkInfoEyRKNS_15TeLinkStateInfoE @2166
    _ZN4inet12LinkStateMsg12parsimUnpackEPN7omnetpp11cCommBufferE @2167
    _ZN4inet12LinkStateMsg13eraseLinkInfoEy @2168
    _ZN4inet12LinkStateMsg14appendLinkInfoERKNS_15TeLinkStateInfoE @2169
    _ZN4inet12LinkStateMsg14insertLinkInfoEyRKNS_15TeLinkStateInfoE @2170
    _ZN4inet12LinkStateMsg20setLinkInfoArraySizeEy @2171
    _ZN4inet12LinkStateMsg4copyERKS0_ @2172
    _ZN4inet12LinkStateMsgC1ERKS0_ @2173
    _ZN4inet12LinkStateMsgC1Ev @2174
    _ZN4inet12LinkStateMsgC2ERKS0_ @2175
    _ZN4inet12LinkStateMsgC2Ev @2176
    _ZN4inet12LinkStateMsgD0Ev @2177
    _ZN4inet12LinkStateMsgD1Ev @2178
    _ZN4inet12LinkStateMsgD2Ev @2179
    _ZN4inet12LinkStateMsgaSERKS0_ @2180
    _ZN4inet12MacRelayUnit17handleLowerPacketEPNS_6PacketE @2181
    _ZN4inet12MassMobility10initializeEi @2182
    _ZN4inet12MassMobility17setTargetPositionEv @2183
    _ZN4inet12MassMobility4moveEv @2184
    _ZN4inet12MassMobility6orientEv @2185
    _ZN4inet12MassMobilityC1Ev @2186
    _ZN4inet12MassMobilityC2Ev @2187
    _ZN4inet12MobilityBase10initializeEi @2188
    _ZN4inet12MobilityBase13checkPositionEv @2189
    _ZN4inet12MobilityBase13handleMessageEPN7omnetpp8cMessageE @2190
    _ZN4inet12MobilityBase13wrapIfOutsideERNS_5CoordE @2191
    _ZN4inet12MobilityBase15handleIfOutsideENS0_12BorderPolicyERNS_5CoordES3_ @2192
    _ZN4inet12MobilityBase15handleIfOutsideENS0_12BorderPolicyERNS_5CoordES3_RNS_5units5valueIdNS4_5units3radEEE @2193
    _ZN4inet12MobilityBase15handleIfOutsideENS0_12BorderPolicyERNS_5CoordES3_RNS_5units5valueIdNS4_5units3radEEES9_ @2194
    _ZN4inet12MobilityBase15handleIfOutsideENS0_12BorderPolicyERNS_5CoordES3_RNS_5units5valueIdNS4_5units3radEEES9_RNS_10QuaternionE @2195
    _ZN4inet12MobilityBase16reflectIfOutsideERNS_5CoordES2_RNS_5units5valueIdNS3_5units3radEEES8_RNS_10QuaternionE @2196
    _ZN4inet12MobilityBase17getRandomPositionEv @2197
    _ZN4inet12MobilityBase18initializePositionEv @2198
    _ZN4inet12MobilityBase18setInitialPositionEv @2199
    _ZN4inet12MobilityBase19raiseErrorIfOutsideEv @2200
    _ZN4inet12MobilityBase21handleParameterChangeEPKc @2201
    _ZN4inet12MobilityBase21initializeOrientationEv @2202
    _ZN4inet12MobilityBase22placeRandomlyIfOutsideERNS_5CoordE @2203
    _ZN4inet12MobilityBase30emitMobilityStateChangedSignalEv @2204
    _ZN4inet12MobilityBase9isOutsideEv @2205
    _ZN4inet12MobilityBaseC2Ev @2206
    _ZN4inet12MulticastReq12parsimUnpackEPN7omnetpp11cCommBufferE @2207
    _ZN4inet12MulticastReq16setMulticastLoopEb @2208
    _ZN4inet12MulticastReq4copyERKS0_ @2209
    _ZN4inet12MulticastReqC1ERKS0_ @2210
    _ZN4inet12MulticastReqC1Ev @2211
    _ZN4inet12MulticastReqC2ERKS0_ @2212
    _ZN4inet12MulticastReqC2Ev @2213
    _ZN4inet12MulticastReqD0Ev @2214
    _ZN4inet12MulticastReqD1Ev @2215
    _ZN4inet12MulticastReqD2Ev @2216
    _ZN4inet12MulticastReqaSERKS0_ @2217
    _ZN4inet12NetPerfMeter10initializeEi @2218
    _ZN4inet12NetPerfMeter11handleTimerEPN7omnetpp8cMessageE @2219
    _ZN4inet12NetPerfMeter11stopSendingEv @2220
    _ZN4inet12NetPerfMeter12getFrameRateEj @2221
    _ZN4inet12NetPerfMeter12getFrameSizeEj @2222
    _ZN4inet12NetPerfMeter12startSendingEv @2223
    _ZN4inet12NetPerfMeter13handleMessageEPN7omnetpp8cMessageE @2224
    _ZN4inet12NetPerfMeter13transmitFrameEjj @2225
    _ZN4inet12NetPerfMeter14receiveMessageEPN7omnetpp8cMessageE @2226
    _ZN4inet12NetPerfMeter15resetStatisticsEv @2227
    _ZN4inet12NetPerfMeter15writeStatisticsEv @2228
    _ZN4inet12NetPerfMeter18teardownConnectionEb @2229
    _ZN4inet12NetPerfMeter19createAndBindSocketEv @2230
    _ZN4inet12NetPerfMeter19establishConnectionEv @2231
    _ZN4inet12NetPerfMeter19sendDataOfTraceFileEy @2232
    _ZN4inet12NetPerfMeter19sendTCPQueueRequestEj @2233
    _ZN4inet12NetPerfMeter20sendSCTPQueueRequestEj @2234
    _ZN4inet12NetPerfMeter21parseExpressionVectorERSt6vectorIN7omnetpp18cDynamicExpressionESaIS3_EEPKcS8_ @2235
    _ZN4inet12NetPerfMeter26sendDataOfSaturatedStreamsEyRKNS_12IntrusivePtrIKNS_22SctpSendQueueAbatedReqEEE @2236
    _ZN4inet12NetPerfMeter29sendDataOfNonSaturatedStreamsEyj @2237
    _ZN4inet12NetPerfMeter33successfullyEstablishedConnectionEPN7omnetpp8cMessageEj @2238
    _ZN4inet12NetPerfMeter6finishEv @2239
    _ZN4inet12NetPerfMeter6formatEPKcz @2240
    _ZN4inet12NetPerfMeterC1Ev @2241
    _ZN4inet12NetPerfMeterC2Ev @2242
    _ZN4inet12NetPerfMeterD0Ev @2243
    _ZN4inet12NetPerfMeterD1Ev @2244
    _ZN4inet12NetPerfMeterD2Ev @2245
    _ZN4inet12NextHopRoute7changedEi @2246
    _ZN4inet12PacketFilter10setPatternEPKc @2247
    _ZN4inet12PacketFilter13setExpressionEPKc @2248
    _ZN4inet12PacketFilter13setExpressionEPN7omnetpp12cValueHolderE @2249
    _ZN4inet12PacketFilter13setExpressionEPN7omnetpp18cDynamicExpressionE @2250
    _ZN4inet12PacketFilter13setExpressionEPN7omnetpp23cOwnedDynamicExpressionE @2251
    _ZN4inet12PacketFilter13setExpressionEPN7omnetpp7cObjectE @2252
    _ZN4inet12PacketFilter13setExpressionERN7omnetpp6cValueE @2253
    _ZN4inet12PacketFilter23PacketDissectorCallback10visitChunkERKNS_12IntrusivePtrIKNS_5ChunkEEEPKNS_8ProtocolE @2254
    _ZN4inet12PacketFilter25DynamicExpressionResolver10callMethodEPN7omnetpp11cExpression7ContextERKNS2_6cValueEPKcPS6_i @2255
    _ZN4inet12PacketFilter25DynamicExpressionResolver10readMemberEPN7omnetpp11cExpression7ContextERKNS2_6cValueEPKc @2256
    _ZN4inet12PacketFilter25DynamicExpressionResolver10readMemberEPN7omnetpp11cExpression7ContextERKNS2_6cValueEPKcx @2257
    _ZN4inet12PacketFilter25DynamicExpressionResolver12callFunctionEPN7omnetpp11cExpression7ContextEPKcPNS2_6cValueEi @2258
    _ZN4inet12PacketFilter25DynamicExpressionResolver12readVariableEPN7omnetpp11cExpression7ContextEPKc @2259
    _ZN4inet12PacketFilter25DynamicExpressionResolver12readVariableEPN7omnetpp11cExpression7ContextEPKcx @2260
    _ZN4inet12PacketFilterC1Ev @2261
    _ZN4inet12PacketFilterC2Ev @2262
    _ZN4inet12PacketFilterD0Ev @2263
    _ZN4inet12PacketFilterD1Ev @2264
    _ZN4inet12PacketFilterD2Ev @2265
    _ZN4inet12PcapRecorder10initializeEv @2266
    _ZN4inet12PcapRecorder12recordPacketEPKN7omnetpp7cPacketENS_9DirectionEPNS1_10cComponentE @2267
    _ZN4inet12PcapRecorder13handleMessageEPN7omnetpp8cMessageE @2268
    _ZN4inet12PcapRecorder13receiveSignalEPN7omnetpp10cComponentEiPNS1_7cObjectES5_ @2269
    _ZN4inet12PcapRecorder20packetRecordedSignalE @2270 DATA
    _ZN4inet12PcapRecorder6finishEv @2271
    _ZN4inet12PcapRecorderC1Ev @2272
    _ZN4inet12PcapRecorderC2Ev @2273
    _ZN4inet12PcapRecorderD0Ev @2274
    _ZN4inet12PcapRecorderD1Ev @2275
    _ZN4inet12PcapRecorderD2Ev @2276
    _ZN4inet12PcapngWriter11writePacketEN7omnetpp7SimTimeEPKNS_6PacketENS_9DirectionEPNS_16NetworkInterfaceENS_12PcapLinkTypeE @2277
    _ZN4inet12PcapngWriter14writeInterfaceEPNS_16NetworkInterfaceENS_12PcapLinkTypeE @2278
    _ZN4inet12PcapngWriter4openEPKcj @2279
    _ZN4inet12PcapngWriter5closeEv @2280
    _ZN4inet12PcapngWriterD0Ev @2281
    _ZN4inet12PcapngWriterD1Ev @2282
    _ZN4inet12PcapngWriterD2Ev @2283
    _ZN4inet12PimJoinPrune11setHoldTimeEi @2284
    _ZN4inet12PimJoinPrune12parsimUnpackEPN7omnetpp11cCommBufferE @2285
    _ZN4inet12PimJoinPrune12setReserved2Ei @2286
    _ZN4inet12PimJoinPrune18setJoinPruneGroupsEyRKNS_14JoinPruneGroupE @2287
    _ZN4inet12PimJoinPrune20eraseJoinPruneGroupsEy @2288
    _ZN4inet12PimJoinPrune21appendJoinPruneGroupsERKNS_14JoinPruneGroupE @2289
    _ZN4inet12PimJoinPrune21insertJoinPruneGroupsEyRKNS_14JoinPruneGroupE @2290
    _ZN4inet12PimJoinPrune26setUpstreamNeighborAddressERKNS_21EncodedUnicastAddressE @2291
    _ZN4inet12PimJoinPrune27setJoinPruneGroupsArraySizeEy @2292
    _ZN4inet12PimJoinPrune4copyERKS0_ @2293
    _ZN4inet12PimJoinPruneC1ERKS0_ @2294
    _ZN4inet12PimJoinPruneC1Ev @2295
    _ZN4inet12PimJoinPruneC2ERKS0_ @2296
    _ZN4inet12PimJoinPruneC2Ev @2297
    _ZN4inet12PimJoinPruneD0Ev @2298
    _ZN4inet12PimJoinPruneD1Ev @2299
    _ZN4inet12PimJoinPruneD2Ev @2300
    _ZN4inet12PimJoinPruneaSERKS0_ @2301
    _ZN4inet12PortIdentityC1Ev @2302
    _ZN4inet12PortIdentityC2Ev @2303
    _ZN4inet12RsvpHelloMsg10setRequestEb @2304
    _ZN4inet12RsvpHelloMsg12parsimUnpackEPN7omnetpp11cCommBufferE @2305
    _ZN4inet12RsvpHelloMsg14setDstInstanceEi @2306
    _ZN4inet12RsvpHelloMsg14setSrcInstanceEi @2307
    _ZN4inet12RsvpHelloMsg4copyERKS0_ @2308
    _ZN4inet12RsvpHelloMsg6setAckEb @2309
    _ZN4inet12RsvpHelloMsgC1ERKS0_ @2310
    _ZN4inet12RsvpHelloMsgC1Ev @2311
    _ZN4inet12RsvpHelloMsgC2ERKS0_ @2312
    _ZN4inet12RsvpHelloMsgC2Ev @2313
    _ZN4inet12RsvpHelloMsgD0Ev @2314
    _ZN4inet12RsvpHelloMsgD1Ev @2315
    _ZN4inet12RsvpHelloMsgD2Ev @2316
    _ZN4inet12RsvpHelloMsgaSERKS0_ @2317
    _ZN4inet12RsvpPathTear12parsimUnpackEPN7omnetpp11cCommBufferE @2318
    _ZN4inet12RsvpPathTear17setSenderTemplateERKNS_17SenderTemplateObjE @2319
    _ZN4inet12RsvpPathTear4copyERKS0_ @2320
    _ZN4inet12RsvpPathTear6setHopERKNS_10RsvpHopObjE @2321
    _ZN4inet12RsvpPathTear8setForceEb @2322
    _ZN4inet12RsvpPathTearC1ERKS0_ @2323
    _ZN4inet12RsvpPathTearC1Ev @2324
    _ZN4inet12RsvpPathTearC2ERKS0_ @2325
    _ZN4inet12RsvpPathTearC2Ev @2326
    _ZN4inet12RsvpPathTearD0Ev @2327
    _ZN4inet12RsvpPathTearD1Ev @2328
    _ZN4inet12RsvpPathTearD2Ev @2329
    _ZN4inet12RsvpPathTearaSERKS0_ @2330
    _ZN4inet12RsvpResvTear12parsimUnpackEPN7omnetpp11cCommBufferE @2331
    _ZN4inet12RsvpResvTear17setFlowDescriptorERKSt6vectorINS_16FlowDescriptor_tESaIS2_EE @2332
    _ZN4inet12RsvpResvTear4copyERKS0_ @2333
    _ZN4inet12RsvpResvTear6setHopERKNS_10RsvpHopObjE @2334
    _ZN4inet12RsvpResvTearC1ERKS0_ @2335
    _ZN4inet12RsvpResvTearC1Ev @2336
    _ZN4inet12RsvpResvTearC2ERKS0_ @2337
    _ZN4inet12RsvpResvTearC2Ev @2338
    _ZN4inet12RsvpResvTearD0Ev @2339
    _ZN4inet12RsvpResvTearD1Ev @2340
    _ZN4inet12RsvpResvTearD2Ev @2341
    _ZN4inet12RsvpResvTearaSERKS0_ @2342
    _ZN4inet12SctpPathInfo12parsimUnpackEPN7omnetpp11cCommBufferE @2343
    _ZN4inet12SctpPathInfo16setRemoteAddressERKNS_9L3AddressE @2344
    _ZN4inet12SctpPathInfo4copyERKS0_ @2345
    _ZN4inet12SctpPathInfoC1EPKc @2346
    _ZN4inet12SctpPathInfoC1ERKS0_ @2347
    _ZN4inet12SctpPathInfoC2EPKc @2348
    _ZN4inet12SctpPathInfoC2ERKS0_ @2349
    _ZN4inet12SctpPathInfoD0Ev @2350
    _ZN4inet12SctpPathInfoD1Ev @2351
    _ZN4inet12SctpPathInfoD2Ev @2352
    _ZN4inet12SctpPathInfoaSERKS0_ @2353
    _ZN4inet12SctpResetReq10setStreamsEyt @2354
    _ZN4inet12SctpResetReq12eraseStreamsEy @2355
    _ZN4inet12SctpResetReq12parsimUnpackEPN7omnetpp11cCommBufferE @2356
    _ZN4inet12SctpResetReq12setInstreamsEt @2357
    _ZN4inet12SctpResetReq13appendStreamsEt @2358
    _ZN4inet12SctpResetReq13insertStreamsEyt @2359
    _ZN4inet12SctpResetReq13setOutstreamsEt @2360
    _ZN4inet12SctpResetReq14setRequestTypeEt @2361
    _ZN4inet12SctpResetReq19setStreamsArraySizeEy @2362
    _ZN4inet12SctpResetReq4copyERKS0_ @2363
    _ZN4inet12SctpResetReqC1ERKS0_ @2364
    _ZN4inet12SctpResetReqC1Ev @2365
    _ZN4inet12SctpResetReqC2ERKS0_ @2366
    _ZN4inet12SctpResetReqC2Ev @2367
    _ZN4inet12SctpResetReqD0Ev @2368
    _ZN4inet12SctpResetReqD1Ev @2369
    _ZN4inet12SctpResetReqD2Ev @2370
    _ZN4inet12SctpResetReqaSERKS0_ @2371
    _ZN4inet12SignalFigure12setRingCountEi @2372
    _ZN4inet12SignalFigure12setWaveCountEi @2373
    _ZN4inet12SignalFigure7refreshEv @2374
    _ZN4inet12SignalFigure8setColorERKN7omnetpp7cFigure5ColorE @2375
    _ZN4inet12SignalFigureC1EPKc @2376
    _ZN4inet12SignalFigureC2EPKc @2377
    _ZN4inet12SignalSource10initializeEv @2378
    _ZN4inet12SignalSource13handleMessageEPN7omnetpp8cMessageE @2379
    _ZN4inet12SignalSource6finishEv @2380
    _ZN4inet12StreamFilter10initializeEi @2381
    _ZN4inet12StreamMerger10initializeEi @2382
    _ZN4inet12StreamMerger13processPacketEPNS_6PacketE @2383
    _ZN4inet12StreamMerger21handleParameterChangeEPKc @2384
    _ZN4inet12StreamMerger29getRegistrationForwardingGateEPN7omnetpp5cGateE @2385
    _ZN4inet12StringFormat11parseFormatEPKc @2386
    _ZN4inet12StringFormat12formatStringEPKcPKNS0_18IDirectiveResolverE @2387
    _ZN4inet12StringFormat12formatStringEPKcSt8functionIFS2_cEE @2388
    _ZN4inet12TcpErrorInfo12parsimUnpackEPN7omnetpp11cCommBufferE @2389
    _ZN4inet12TcpErrorInfo12setErrorCodeENS_12TcpErrorCodeE @2390
    _ZN4inet12TcpErrorInfo14setMessageTextEPKc @2391
    _ZN4inet12TcpErrorInfo4copyERKS0_ @2392
    _ZN4inet12TcpErrorInfoC1ERKS0_ @2393
    _ZN4inet12TcpErrorInfoC1Ev @2394
    _ZN4inet12TcpErrorInfoC2ERKS0_ @2395
    _ZN4inet12TcpErrorInfoC2Ev @2396
    _ZN4inet12TcpErrorInfoD0Ev @2397
    _ZN4inet12TcpErrorInfoD1Ev @2398
    _ZN4inet12TcpErrorInfoD2Ev @2399
    _ZN4inet12TcpErrorInfoaSERKS0_ @2400
    _ZN4inet12ThruputMeter10initializeEv @2401
    _ZN4inet12ThruputMeter11updateStatsEN7omnetpp7SimTimeEm @2402
    _ZN4inet12ThruputMeter13handleMessageEPN7omnetpp8cMessageE @2403
    _ZN4inet12ThruputMeter16beginNewIntervalEN7omnetpp7SimTimeE @2404
    _ZN4inet12ThruputMeter6finishEv @2405
    _ZN4inet12TlvOptionRaw10eraseBytesEy @2406
    _ZN4inet12TlvOptionRaw11appendBytesEc @2407
    _ZN4inet12TlvOptionRaw11insertBytesEyc @2408
    _ZN4inet12TlvOptionRaw12parsimUnpackEPN7omnetpp11cCommBufferE @2409
    _ZN4inet12TlvOptionRaw17setBytesArraySizeEy @2410
    _ZN4inet12TlvOptionRaw4copyERKS0_ @2411
    _ZN4inet12TlvOptionRaw8setBytesEyc @2412
    _ZN4inet12TlvOptionRawC1ERKS0_ @2413
    _ZN4inet12TlvOptionRawC1Ev @2414
    _ZN4inet12TlvOptionRawC2ERKS0_ @2415
    _ZN4inet12TlvOptionRawC2Ev @2416
    _ZN4inet12TlvOptionRawD0Ev @2417
    _ZN4inet12TlvOptionRawD1Ev @2418
    _ZN4inet12TlvOptionRawD2Ev @2419
    _ZN4inet12TlvOptionRawaSERKS0_ @2420
    _ZN4inet12cPacketChunk12parsimUnpackEPN7omnetpp11cCommBufferE @2421
    _ZN4inet12cPacketChunkC1EPN7omnetpp7cPacketE @2422
    _ZN4inet12cPacketChunkC1ERKS0_ @2423
    _ZN4inet12cPacketChunkC2EPN7omnetpp7cPacketE @2424
    _ZN4inet12cPacketChunkC2ERKS0_ @2425
    _ZN4inet12cPacketChunkD0Ev @2426
    _ZN4inet12cPacketChunkD1Ev @2427
    _ZN4inet12cPacketChunkD2Ev @2428
    _ZN4inet12parseCrcModeEPKcb @2429
    _ZN4inet12parseFcsModeEPKc @2430
    _ZN4inet13AnsimMobility10initializeEi @2431
    _ZN4inet13AnsimMobility15computeMaxSpeedEv @2432
    _ZN4inet13AnsimMobility15extractDataFromEPN7omnetpp11cXMLElementE @2433
    _ZN4inet13AnsimMobility17setTargetPositionEv @2434
    _ZN4inet13AnsimMobility18setInitialPositionEv @2435
    _ZN4inet13AnsimMobility22findNextPositionChangeEPN7omnetpp11cXMLElementE @2436
    _ZN4inet13AnsimMobility4moveEv @2437
    _ZN4inet13AnsimMobilityC1Ev @2438
    _ZN4inet13AnsimMobilityC2Ev @2439
    _ZN4inet13ApskPhyHeader10setCrcModeENS_7CrcModeE @2440
    _ZN4inet13ApskPhyHeader12parsimUnpackEPN7omnetpp11cCommBufferE @2441
    _ZN4inet13ApskPhyHeader18setPayloadProtocolEPKNS_8ProtocolE @2442
    _ZN4inet13ApskPhyHeader20setHeaderLengthFieldENS_5units5valueIxNS1_5units1bEEE @2443
    _ZN4inet13ApskPhyHeader21setPayloadLengthFieldENS_5units5valueIxNS1_5units1bEEE @2444
    _ZN4inet13ApskPhyHeader4copyERKS0_ @2445
    _ZN4inet13ApskPhyHeader6setCrcEt @2446
    _ZN4inet13ApskPhyHeaderC1ERKS0_ @2447
    _ZN4inet13ApskPhyHeaderC1Ev @2448
    _ZN4inet13ApskPhyHeaderC2ERKS0_ @2449
    _ZN4inet13ApskPhyHeaderC2Ev @2450
    _ZN4inet13ApskPhyHeaderD0Ev @2451
    _ZN4inet13ApskPhyHeaderD1Ev @2452
    _ZN4inet13ApskPhyHeaderD2Ev @2453
    _ZN4inet13ApskPhyHeaderaSERKS0_ @2454
    _ZN4inet13BindingUpdate10setAckFlagEb @2455
    _ZN4inet13BindingUpdate11setLifetimeEj @2456
    _ZN4inet13BindingUpdate11setSequenceEj @2457
    _ZN4inet13BindingUpdate12parsimUnpackEPN7omnetpp11cCommBufferE @2458
    _ZN4inet13BindingUpdate16setHomeAddressMNERKNS_11Ipv6AddressE @2459
    _ZN4inet13BindingUpdate20setKeyManagementFlagEb @2460
    _ZN4inet13BindingUpdate23setHomeRegistrationFlagEb @2461
    _ZN4inet13BindingUpdate27setBindingAuthorizationDataEi @2462
    _ZN4inet13BindingUpdate36setLinkLocalAddressCompatibilityFlagEb @2463
    _ZN4inet13BindingUpdate4copyERKS0_ @2464
    _ZN4inet13BindingUpdateC1ERKS0_ @2465
    _ZN4inet13BindingUpdateC1Ev @2466
    _ZN4inet13BindingUpdateC2ERKS0_ @2467
    _ZN4inet13BindingUpdateC2Ev @2468
    _ZN4inet13BindingUpdateD0Ev @2469
    _ZN4inet13BindingUpdateD1Ev @2470
    _ZN4inet13BindingUpdateD2Ev @2471
    _ZN4inet13BindingUpdateaSERKS0_ @2472
    _ZN4inet13BitCountChunk10doInsertAtERKNS_12IntrusivePtrIKNS_5ChunkEEENS_5units5valueIxNS7_5units1bEEE @2473
    _ZN4inet13BitCountChunk10doRemoveAtENS_5units5valueIxNS1_5units1bEEES5_ @2474
    _ZN4inet13BitCountChunk12convertChunkERKSt9type_infoRKNS_12IntrusivePtrINS_5ChunkEEENS_5units5valueIxNS9_5units1bEEESD_i @2475
    _ZN4inet13BitCountChunk12parsimUnpackEPN7omnetpp11cCommBufferE @2476
    _ZN4inet13BitCountChunk14doInsertAtBackERKNS_12IntrusivePtrIKNS_5ChunkEEE @2477
    _ZN4inet13BitCountChunk14doRemoveAtBackENS_5units5valueIxNS1_5units1bEEE @2478
    _ZN4inet13BitCountChunk15doInsertAtFrontERKNS_12IntrusivePtrIKNS_5ChunkEEE @2479
    _ZN4inet13BitCountChunk15doRemoveAtFrontENS_5units5valueIxNS1_5units1bEEE @2480
    _ZN4inet13BitCountChunk7setDataEb @2481
    _ZN4inet13BitCountChunk9setLengthENS_5units5valueIxNS1_5units1bEEE @2482
    _ZN4inet13BitCountChunkC1ENS_5units5valueIxNS1_5units1bEEEb @2483
    _ZN4inet13BitCountChunkC1Ev @2484
    _ZN4inet13BitCountChunkC2ENS_5units5valueIxNS1_5units1bEEEb @2485
    _ZN4inet13BitCountChunkC2Ev @2486
    _ZN4inet13CounterFigure11addChildrenEv @2487
    _ZN4inet13CounterFigure12setDigitFontERKN7omnetpp7cFigure4FontE @2488
    _ZN4inet13CounterFigure12setLabelFontERKN7omnetpp7cFigure4FontE @2489
    _ZN4inet13CounterFigure13setDigitColorERKN7omnetpp7cFigure5ColorE @2490
    _ZN4inet13CounterFigure13setLabelColorERKN7omnetpp7cFigure5ColorE @2491
    _ZN4inet13CounterFigure14setLabelOffsetEi @2492
    _ZN4inet13CounterFigure15calculateBoundsEv @2493
    _ZN4inet13CounterFigure16calculateRealPosERKN7omnetpp7cFigure5PointE @2494
    _ZN4inet13CounterFigure16setDecimalPlacesEi @2495
    _ZN4inet13CounterFigure18setBackgroundColorERKN7omnetpp7cFigure5ColorE @2496
    _ZN4inet13CounterFigure19setDigitBorderColorERKN7omnetpp7cFigure5ColorE @2497
    _ZN4inet13CounterFigure23setDigitBackgroundColorERKN7omnetpp7cFigure5ColorE @2498
    _ZN4inet13CounterFigure5parseEPN7omnetpp9cPropertyE @2499
    _ZN4inet13CounterFigure6layoutEv @2500
    _ZN4inet13CounterFigure6setPosERKN7omnetpp7cFigure5PointE @2501
    _ZN4inet13CounterFigure7refreshEv @2502
    _ZN4inet13CounterFigure8setLabelEPKc @2503
    _ZN4inet13CounterFigure8setValueEiN7omnetpp7SimTimeEd @2504
    _ZN4inet13CounterFigure9setAnchorEN7omnetpp7cFigure6AnchorE @2505
    _ZN4inet13CounterFigureC1EPKc @2506
    _ZN4inet13CounterFigureC2EPKc @2507
    _ZN4inet13CreditGateTag12parsimUnpackEPN7omnetpp11cCommBufferE @2508
    _ZN4inet13CreditGateTag4copyERKS0_ @2509
    _ZN4inet13CreditGateTag5setIdEi @2510
    _ZN4inet13CreditGateTagC1ERKS0_ @2511
    _ZN4inet13CreditGateTagC1Ev @2512
    _ZN4inet13CreditGateTagC2ERKS0_ @2513
    _ZN4inet13CreditGateTagC2Ev @2514
    _ZN4inet13CreditGateTagD0Ev @2515
    _ZN4inet13CreditGateTagD1Ev @2516
    _ZN4inet13CreditGateTagD2Ev @2517
    _ZN4inet13CreditGateTagaSERKS0_ @2518
    _ZN4inet13EigrpMsgRouteC1Ev @2519
    _ZN4inet13EigrpMsgRouteC2Ev @2520
    _ZN4inet13FilterSpecObjC1Ev @2521
    _ZN4inet13FilterSpecObjC2Ev @2522
    _ZN4inet13GenericAppMsg12parsimUnpackEPN7omnetpp11cCommBufferE @2523
    _ZN4inet13GenericAppMsg13setReplyDelayEd @2524
    _ZN4inet13GenericAppMsg14setServerCloseEb @2525
    _ZN4inet13GenericAppMsg22setExpectedReplyLengthENS_5units5valueIxNS1_8intscaleINS1_5units1bELi1ELi8EEEEE @2526
    _ZN4inet13GenericAppMsg4copyERKS0_ @2527
    _ZN4inet13GenericAppMsgC1ERKS0_ @2528
    _ZN4inet13GenericAppMsgC1Ev @2529
    _ZN4inet13GenericAppMsgC2ERKS0_ @2530
    _ZN4inet13GenericAppMsgC2Ev @2531
    _ZN4inet13GenericAppMsgD0Ev @2532
    _ZN4inet13GenericAppMsgD1Ev @2533
    _ZN4inet13GenericAppMsgD2Ev @2534
    _ZN4inet13GenericAppMsgaSERKS0_ @2535
    _ZN4inet13GptpPdelayReq12parsimUnpackEPN7omnetpp11cCommBufferE @2536
    _ZN4inet13GptpPdelayReq12setReserved1ENS_9ClockTimeE @2537
    _ZN4inet13GptpPdelayReq12setReserved2ENS_9ClockTimeE @2538
    _ZN4inet13GptpPdelayReq4copyERKS0_ @2539
    _ZN4inet13GptpPdelayReqC1ERKS0_ @2540
    _ZN4inet13GptpPdelayReqC1Ev @2541
    _ZN4inet13GptpPdelayReqC2ERKS0_ @2542
    _ZN4inet13GptpPdelayReqC2Ev @2543
    _ZN4inet13GptpPdelayReqD0Ev @2544
    _ZN4inet13GptpPdelayReqD1Ev @2545
    _ZN4inet13GptpPdelayReqD2Ev @2546
    _ZN4inet13GptpPdelayReqaSERKS0_ @2547
    _ZN4inet13HeatMapFigure7getHeatEii @2548
    _ZN4inet13HeatMapFigure7setHeatEiid @2549
    _ZN4inet13HeatMapFigure8coolDownEv @2550
    _ZN4inet13HeatMapFigure8heatLineEiiii @2551
    _ZN4inet13HeatMapFigure9heatPointEii @2552
    _ZN4inet13HeatMapFigureC1EiPKc @2553
    _ZN4inet13HeatMapFigureC2EiPKc @2554
    _ZN4inet13HelloTimerMsg12parsimUnpackEPN7omnetpp11cCommBufferE @2555
    _ZN4inet13HelloTimerMsg4copyERKS0_ @2556
    _ZN4inet13HelloTimerMsg7setPeerERKNS_11Ipv4AddressE @2557
    _ZN4inet13HelloTimerMsgC1EPKcs @2558
    _ZN4inet13HelloTimerMsgC1ERKS0_ @2559
    _ZN4inet13HelloTimerMsgC2EPKcs @2560
    _ZN4inet13HelloTimerMsgC2ERKS0_ @2561
    _ZN4inet13HelloTimerMsgD0Ev @2562
    _ZN4inet13HelloTimerMsgD1Ev @2563
    _ZN4inet13HelloTimerMsgD2Ev @2564
    _ZN4inet13HelloTimerMsgaSERKS0_ @2565
    _ZN4inet13IcmpEchoReply12parsimUnpackEPN7omnetpp11cCommBufferE @2566
    _ZN4inet13IcmpEchoReply12setSeqNumberEi @2567
    _ZN4inet13IcmpEchoReply13setIdentifierEi @2568
    _ZN4inet13IcmpEchoReply4copyERKS0_ @2569
    _ZN4inet13IcmpEchoReplyC1ERKS0_ @2570
    _ZN4inet13IcmpEchoReplyC1Ev @2571
    _ZN4inet13IcmpEchoReplyC2ERKS0_ @2572
    _ZN4inet13IcmpEchoReplyC2Ev @2573
    _ZN4inet13IcmpEchoReplyD0Ev @2574
    _ZN4inet13IcmpEchoReplyD1Ev @2575
    _ZN4inet13IcmpEchoReplyD2Ev @2576
    _ZN4inet13IcmpEchoReplyaSERKS0_ @2577
    _ZN4inet13Ieee802154Mac10executeMacENS0_11t_mac_eventEPN7omnetpp8cMessageE @2578
    _ZN4inet13Ieee802154Mac10initializeEi @2579
    _ZN4inet13Ieee802154Mac10startTimerENS0_11t_mac_timerE @2580
    _ZN4inet13Ieee802154Mac11decapsulateEPNS_6PacketE @2581
    _ZN4inet13Ieee802154Mac11encapsulateEPNS_6PacketE @2582
    _ZN4inet13Ieee802154Mac11getProviderEPN7omnetpp5cGateE @2583
    _ZN4inet13Ieee802154Mac11manageQueueEv @2584
    _ZN4inet13Ieee802154Mac12attachSignalEPNS_6PacketERKN7omnetpp7SimTimeE @2585
    _ZN4inet13Ieee802154Mac13receiveSignalEPN7omnetpp10cComponentEixPNS1_7cObjectE @2586
    _ZN4inet13Ieee802154Mac14updateMacStateENS0_12t_mac_statesE @2587
    _ZN4inet13Ieee802154Mac15scheduleBackoffEv @2588
    _ZN4inet13Ieee802154Mac15updateStatusCCAENS0_11t_mac_eventEPN7omnetpp8cMessageE @2589
    _ZN4inet13Ieee802154Mac16manageMissingAckENS0_11t_mac_eventEPN7omnetpp8cMessageE @2590
    _ZN4inet13Ieee802154Mac16updateStatusIdleENS0_11t_mac_eventEPN7omnetpp8cMessageE @2591
    _ZN4inet13Ieee802154Mac16updateStatusSIFSENS0_11t_mac_eventEPN7omnetpp8cMessageE @2592
    _ZN4inet13Ieee802154Mac17handleLowerPacketEPNS_6PacketE @2593
    _ZN4inet13Ieee802154Mac17handleSelfMessageEPN7omnetpp8cMessageE @2594
    _ZN4inet13Ieee802154Mac17handleUpperPacketEPNS_6PacketE @2595
    _ZN4inet13Ieee802154Mac19handleStopOperationEPNS_18LifecycleOperationE @2596
    _ZN4inet13Ieee802154Mac19updateStatusBackoffENS0_11t_mac_eventEPN7omnetpp8cMessageE @2597
    _ZN4inet13Ieee802154Mac19updateStatusNotIdleEPN7omnetpp8cMessageE @2598
    _ZN4inet13Ieee802154Mac19updateStatusWaitAckENS0_11t_mac_eventEPN7omnetpp8cMessageE @2599
    _ZN4inet13Ieee802154Mac20handleCrashOperationEPNS_18LifecycleOperationE @2600
    _ZN4inet13Ieee802154Mac20handleStartOperationEPNS_18LifecycleOperationE @2601
    _ZN4inet13Ieee802154Mac23updateStatusTransmitAckENS0_11t_mac_eventEPN7omnetpp8cMessageE @2602
    _ZN4inet13Ieee802154Mac25configureNetworkInterfaceEv @2603
    _ZN4inet13Ieee802154Mac25handlePullPacketProcessedEPNS_6PacketEPN7omnetpp5cGateEb @2604
    _ZN4inet13Ieee802154Mac25updateStatusTransmitFrameENS0_11t_mac_eventEPN7omnetpp8cMessageE @2605
    _ZN4inet13Ieee802154Mac26handleCanPullPacketChangedEPN7omnetpp5cGateE @2606
    _ZN4inet13Ieee802154Mac6finishEv @2607
    _ZN4inet13Ieee802154Mac8fsmErrorENS0_11t_mac_eventEPN7omnetpp8cMessageE @2608
    _ZN4inet13Ieee802154MacD0Ev @2609
    _ZN4inet13Ieee802154MacD1Ev @2610
    _ZN4inet13Ieee802154MacD2Ev @2611
    _ZN4inet13Ieee802SapInd12parsimUnpackEPN7omnetpp11cCommBufferE @2612
    _ZN4inet13Ieee802SapInd4copyERKS0_ @2613
    _ZN4inet13Ieee802SapIndC1ERKS0_ @2614
    _ZN4inet13Ieee802SapIndC1Ev @2615
    _ZN4inet13Ieee802SapIndC2ERKS0_ @2616
    _ZN4inet13Ieee802SapIndC2Ev @2617
    _ZN4inet13Ieee802SapIndD0Ev @2618
    _ZN4inet13Ieee802SapIndD1Ev @2619
    _ZN4inet13Ieee802SapIndD2Ev @2620
    _ZN4inet13Ieee802SapIndaSERKS0_ @2621
    _ZN4inet13Ieee802SapReq12parsimUnpackEPN7omnetpp11cCommBufferE @2622
    _ZN4inet13Ieee802SapReq4copyERKS0_ @2623
    _ZN4inet13Ieee802SapReqC1ERKS0_ @2624
    _ZN4inet13Ieee802SapReqC1Ev @2625
    _ZN4inet13Ieee802SapReqC2ERKS0_ @2626
    _ZN4inet13Ieee802SapReqC2Ev @2627
    _ZN4inet13Ieee802SapReqD0Ev @2628
    _ZN4inet13Ieee802SapReqD1Ev @2629
    _ZN4inet13Ieee802SapReqD2Ev @2630
    _ZN4inet13Ieee802SapReqaSERKS0_ @2631
    _ZN4inet13Ipv4OptionEnd12parsimUnpackEPN7omnetpp11cCommBufferE @2632
    _ZN4inet13Ipv4OptionEnd4copyERKS0_ @2633
    _ZN4inet13Ipv4OptionEndC1ERKS0_ @2634
    _ZN4inet13Ipv4OptionEndC1Ev @2635
    _ZN4inet13Ipv4OptionEndC2ERKS0_ @2636
    _ZN4inet13Ipv4OptionEndC2Ev @2637
    _ZN4inet13Ipv4OptionEndD0Ev @2638
    _ZN4inet13Ipv4OptionEndD1Ev @2639
    _ZN4inet13Ipv4OptionEndD2Ev @2640
    _ZN4inet13Ipv4OptionEndaSERKS0_ @2641
    _ZN4inet13Ipv4OptionNop12parsimUnpackEPN7omnetpp11cCommBufferE @2642
    _ZN4inet13Ipv4OptionNop4copyERKS0_ @2643
    _ZN4inet13Ipv4OptionNopC1ERKS0_ @2644
    _ZN4inet13Ipv4OptionNopC1Ev @2645
    _ZN4inet13Ipv4OptionNopC2ERKS0_ @2646
    _ZN4inet13Ipv4OptionNopC2Ev @2647
    _ZN4inet13Ipv4OptionNopD0Ev @2648
    _ZN4inet13Ipv4OptionNopD1Ev @2649
    _ZN4inet13Ipv4OptionNopD2Ev @2650
    _ZN4inet13Ipv4OptionNopaSERKS0_ @2651
    _ZN4inet13Ipv6NdMessage12parsimUnpackEPN7omnetpp11cCommBufferE @2652
    _ZN4inet13Ipv6NdMessage4copyERKS0_ @2653
    _ZN4inet13Ipv6NdMessage7setCodeEi @2654
    _ZN4inet13Ipv6NdMessageC1ERKS0_ @2655
    _ZN4inet13Ipv6NdMessageC1Ev @2656
    _ZN4inet13Ipv6NdMessageC2ERKS0_ @2657
    _ZN4inet13Ipv6NdMessageC2Ev @2658
    _ZN4inet13Ipv6NdMessageD0Ev @2659
    _ZN4inet13Ipv6NdMessageD1Ev @2660
    _ZN4inet13Ipv6NdMessageD2Ev @2661
    _ZN4inet13Ipv6NdMessageaSERKS0_ @2662
    _ZN4inet13Ipv6NdOptions11eraseOptionEy @2663
    _ZN4inet13Ipv6NdOptions12appendOptionEPNS_12Ipv6NdOptionE @2664
    _ZN4inet13Ipv6NdOptions12insertOptionEyPNS_12Ipv6NdOptionE @2665
    _ZN4inet13Ipv6NdOptions12parsimUnpackEPN7omnetpp11cCommBufferE @2666
    _ZN4inet13Ipv6NdOptions12removeOptionEy @2667
    _ZN4inet13Ipv6NdOptions18insertUniqueOptionEyPNS_12Ipv6NdOptionE @2668
    _ZN4inet13Ipv6NdOptions18setOptionArraySizeEy @2669
    _ZN4inet13Ipv6NdOptions19findOptionForUpdateENS_17Ipv6NdOptionTypesE @2670
    _ZN4inet13Ipv6NdOptions4copyERKS0_ @2671
    _ZN4inet13Ipv6NdOptions9setOptionEyPNS_12Ipv6NdOptionE @2672
    _ZN4inet13Ipv6NdOptionsC1ERKS0_ @2673
    _ZN4inet13Ipv6NdOptionsC1Ev @2674
    _ZN4inet13Ipv6NdOptionsC2ERKS0_ @2675
    _ZN4inet13Ipv6NdOptionsC2Ev @2676
    _ZN4inet13Ipv6NdOptionsD0Ev @2677
    _ZN4inet13Ipv6NdOptionsD1Ev @2678
    _ZN4inet13Ipv6NdOptionsD2Ev @2679
    _ZN4inet13Ipv6NdOptionsaSERKS0_ @2680
    _ZN4inet13Ipv6Tunneling10initializeEi @2681
    _ZN4inet13Ipv6Tunneling12createTunnelENS0_10TunnelTypeERKNS_11Ipv6AddressES4_S4_ @2682
    _ZN4inet13Ipv6Tunneling12isTunnelExitERKNS_11Ipv6AddressE @2683
    _ZN4inet13Ipv6Tunneling13destroyTunnelERKNS_11Ipv6AddressES3_ @2684
    _ZN4inet13Ipv6Tunneling13destroyTunnelERKNS_11Ipv6AddressES3_S3_ @2685
    _ZN4inet13Ipv6Tunneling13doPrefixMatchERKNS_11Ipv6AddressE @2686
    _ZN4inet13Ipv6Tunneling13handleMessageEPN7omnetpp8cMessageE @2687
    _ZN4inet13Ipv6Tunneling13lookupTunnelsERKNS_11Ipv6AddressE @2688
    _ZN4inet13Ipv6Tunneling14destroyTunnelsERKNS_11Ipv6AddressE @2689
    _ZN4inet13Ipv6Tunneling18getVIfIndexForDestERKNS_11Ipv6AddressE @2690
    _ZN4inet13Ipv6Tunneling18getVIfIndexForDestERKNS_11Ipv6AddressENS0_10TunnelTypeE @2691
    _ZN4inet13Ipv6Tunneling19decapsulateDatagramEPNS_6PacketE @2692
    _ZN4inet13Ipv6Tunneling19encapsulateDatagramEPNS_6PacketE @2693
    _ZN4inet13Ipv6Tunneling24destroyTunnelFromTriggerERKNS_11Ipv6AddressE @2694
    _ZN4inet13Ipv6Tunneling30destroyTunnelForExitAndTriggerERKNS_11Ipv6AddressES3_ @2695
    _ZN4inet13Ipv6Tunneling31destroyTunnelForEntryAndTriggerERKNS_11Ipv6AddressES3_ @2696
    _ZN4inet13Ipv6TunnelingC1Ev @2697
    _ZN4inet13Ipv6TunnelingC2Ev @2698
    _ZN4inet13L4PortTagBase10setSrcPortEi @2699
    _ZN4inet13L4PortTagBase11setDestPortEi @2700
    _ZN4inet13L4PortTagBase12parsimUnpackEPN7omnetpp11cCommBufferE @2701
    _ZN4inet13L4PortTagBase4copyERKS0_ @2702
    _ZN4inet13L4PortTagBaseC1ERKS0_ @2703
    _ZN4inet13L4PortTagBaseC1Ev @2704
    _ZN4inet13L4PortTagBaseC2ERKS0_ @2705
    _ZN4inet13L4PortTagBaseC2Ev @2706
    _ZN4inet13L4PortTagBaseD0Ev @2707
    _ZN4inet13L4PortTagBaseD1Ev @2708
    _ZN4inet13L4PortTagBaseD2Ev @2709
    _ZN4inet13L4PortTagBaseaSERKS0_ @2710
    _ZN4inet13MacAddressInd12parsimUnpackEPN7omnetpp11cCommBufferE @2711
    _ZN4inet13MacAddressInd4copyERKS0_ @2712
    _ZN4inet13MacAddressIndC1ERKS0_ @2713
    _ZN4inet13MacAddressIndC1Ev @2714
    _ZN4inet13MacAddressIndC2ERKS0_ @2715
    _ZN4inet13MacAddressIndC2Ev @2716
    _ZN4inet13MacAddressIndD0Ev @2717
    _ZN4inet13MacAddressIndD1Ev @2718
    _ZN4inet13MacAddressIndD2Ev @2719
    _ZN4inet13MacAddressIndaSERKS0_ @2720
    _ZN4inet13MacAddressReq12parsimUnpackEPN7omnetpp11cCommBufferE @2721
    _ZN4inet13MacAddressReq4copyERKS0_ @2722
    _ZN4inet13MacAddressReqC1ERKS0_ @2723
    _ZN4inet13MacAddressReqC1Ev @2724
    _ZN4inet13MacAddressReqC2ERKS0_ @2725
    _ZN4inet13MacAddressReqC2Ev @2726
    _ZN4inet13MacAddressReqD0Ev @2727
    _ZN4inet13MacAddressReqD1Ev @2728
    _ZN4inet13MacAddressReqD2Ev @2729
    _ZN4inet13MacAddressReqaSERKS0_ @2730
    _ZN4inet13ObjectPrinter11printIndentERSoi @2731
    _ZN4inet13ObjectPrinter18matchesObjectFieldEPN7omnetpp7cObjectEi @2732
    _ZN4inet13ObjectPrinter19printObjectToStreamERSoN7omnetpp7any_ptrEPNS2_16cClassDescriptorEPS3_i @2733
    _ZN4inet13ObjectPrinter19printObjectToStreamERSoPN7omnetpp7cObjectE @2734
    _ZN4inet13ObjectPrinter19printObjectToStringB5cxx11EPN7omnetpp7cObjectE @2735
    _ZN4inet13ObjectPrinterC1EPFNS_29ObjectPrinterRecursionControlEN7omnetpp7any_ptrEPNS2_16cClassDescriptorEiS3_PS3_iEPKci @2736
    _ZN4inet13ObjectPrinterC1EPFNS_29ObjectPrinterRecursionControlEN7omnetpp7any_ptrEPNS2_16cClassDescriptorEiS3_PS3_iERKSt6vectorIPNS2_16cMatchExpressionESaISB_EERKS9_ISD_SaISD_EEi @2737
    _ZN4inet13ObjectPrinterC2EPFNS_29ObjectPrinterRecursionControlEN7omnetpp7any_ptrEPNS2_16cClassDescriptorEiS3_PS3_iEPKci @2738
    _ZN4inet13ObjectPrinterC2EPFNS_29ObjectPrinterRecursionControlEN7omnetpp7any_ptrEPNS2_16cClassDescriptorEiS3_PS3_iERKSt6vectorIPNS2_16cMatchExpressionESaISB_EERKS9_ISD_SaISD_EEi @2739
    _ZN4inet13ObjectPrinterD1Ev @2740
    _ZN4inet13ObjectPrinterD2Ev @2741
    _ZN4inet13OmittedModule10initializeEi @2742
    _ZN4inet13OmittedModule17initializeModulesEi @2743
    _ZN4inet13PacketEmitter10emitPacketEPNS_6PacketE @2744
    _ZN4inet13PacketEmitter10initializeEi @2745
    _ZN4inet13PacketEmitter10pushPacketEPNS_6PacketEPN7omnetpp5cGateE @2746
    _ZN4inet13PacketEmitter13processPacketEPNS_6PacketE @2747
    _ZN4inet13PacketEmitter13pushPacketEndEPNS_6PacketEPN7omnetpp5cGateE @2748
    _ZN4inet13PacketEmitter25handlePushPacketProcessedEPNS_6PacketEPN7omnetpp5cGateEb @2749
    _ZN4inet13PathNotifyMsg10setSessionERKNS_10SessionObjE @2750
    _ZN4inet13PathNotifyMsg12parsimUnpackEPN7omnetpp11cCommBufferE @2751
    _ZN4inet13PathNotifyMsg4copyERKS0_ @2752
    _ZN4inet13PathNotifyMsg9setSenderERKNS_17SenderTemplateObjE @2753
    _ZN4inet13PathNotifyMsg9setStatusEi @2754
    _ZN4inet13PathNotifyMsgC1EPKcs @2755
    _ZN4inet13PathNotifyMsgC1ERKS0_ @2756
    _ZN4inet13PathNotifyMsgC2EPKcs @2757
    _ZN4inet13PathNotifyMsgC2ERKS0_ @2758
    _ZN4inet13PathNotifyMsgD0Ev @2759
    _ZN4inet13PathNotifyMsgD1Ev @2760
    _ZN4inet13PathNotifyMsgD2Ev @2761
    _ZN4inet13PathNotifyMsgaSERKS0_ @2762
    _ZN4inet13PcpClassifier10initializeEi @2763
    _ZN4inet13PcpClassifier14classifyPacketEPNS_6PacketE @2764
    _ZN4inet13PositionTable11setPositionERKNS_9L3AddressERKNS_5CoordE @2765
    _ZN4inet13PositionTable14removePositionERKNS_9L3AddressE @2766
    _ZN4inet13PositionTable18removeOldPositionsEN7omnetpp7SimTimeE @2767
    _ZN4inet13PositionTable5clearEv @2768
    _ZN4inet13ProtocolGroup10ipprotocolE @2769 DATA
    _ZN4inet13ProtocolGroup11addProtocolEiPKNS_8ProtocolE @2770
    _ZN4inet13ProtocolGroup11pppprotocolE @2771 DATA
    _ZN4inet13ProtocolGroup11tcpprotocolE @2772 DATA
    _ZN4inet13ProtocolGroup11udpprotocolE @2773 DATA
    _ZN4inet13ProtocolGroup16ieee8022protocolE @2774 DATA
    _ZN4inet13ProtocolGroup7snapOuiE @2775 DATA
    _ZN4inet13ProtocolGroup9ethertypeE @2776 DATA
    _ZN4inet13ProtocolGroupC1EPKcSt3mapIiPKNS_8ProtocolESt4lessIiESaISt4pairIKiS6_EEE @2777
    _ZN4inet13ProtocolGroupC2EPKcSt3mapIiPKNS_8ProtocolESt4lessIiESaISt4pairIKiS6_EEE @2778
    _ZN4inet13PsbTimeoutMsg12parsimUnpackEPN7omnetpp11cCommBufferE @2779
    _ZN4inet13PsbTimeoutMsg4copyERKS0_ @2780
    _ZN4inet13PsbTimeoutMsg5setIdEi @2781
    _ZN4inet13PsbTimeoutMsgC1EPKcs @2782
    _ZN4inet13PsbTimeoutMsgC1ERKS0_ @2783
    _ZN4inet13PsbTimeoutMsgC2EPKcs @2784
    _ZN4inet13PsbTimeoutMsgC2ERKS0_ @2785
    _ZN4inet13PsbTimeoutMsgD0Ev @2786
    _ZN4inet13PsbTimeoutMsgD1Ev @2787
    _ZN4inet13PsbTimeoutMsgD2Ev @2788
    _ZN4inet13PsbTimeoutMsgaSERKS0_ @2789
    _ZN4inet13QosClassifier10initializeEi @2790
    _ZN4inet13QosClassifier13handleMessageEPN7omnetpp8cMessageE @2791
    _ZN4inet13QosClassifier15getUserPriorityEPN7omnetpp8cMessageE @2792
    _ZN4inet13QosClassifier17parseUserPriorityEPKc @2793
    _ZN4inet13QosClassifier20parseUserPriorityMapEPKcRSt3mapIiiSt4lessIiESaISt4pairIKiiEEE @2794
    _ZN4inet13QosClassifier21handleRegisterServiceERKNS_8ProtocolEPN7omnetpp5cGateENS_16ServicePrimitiveE @2795
    _ZN4inet13QosClassifier22handleRegisterProtocolERKNS_8ProtocolEPN7omnetpp5cGateENS_16ServicePrimitiveE @2796
    _ZN4inet13ReceiveAtPort10initializeEi @2797
    _ZN4inet13ReceiveAtPort13processPacketEPNS_6PacketE @2798
    _ZN4inet13ReorderBuffer16popAvailableDataENS_5units5valueIxNS1_5units1bEEE @2799
    _ZN4inet13RsbTimeoutMsg12parsimUnpackEPN7omnetpp11cCommBufferE @2800
    _ZN4inet13RsbTimeoutMsg4copyERKS0_ @2801
    _ZN4inet13RsbTimeoutMsg5setIdEi @2802
    _ZN4inet13RsbTimeoutMsgC1EPKcs @2803
    _ZN4inet13RsbTimeoutMsgC1ERKS0_ @2804
    _ZN4inet13RsbTimeoutMsgC2EPKcs @2805
    _ZN4inet13RsbTimeoutMsgC2ERKS0_ @2806
    _ZN4inet13RsbTimeoutMsgD0Ev @2807
    _ZN4inet13RsbTimeoutMsgD1Ev @2808
    _ZN4inet13RsbTimeoutMsgD2Ev @2809
    _ZN4inet13RsbTimeoutMsgaSERKS0_ @2810
    _ZN4inet13RsvpPathError12parsimUnpackEPN7omnetpp11cCommBufferE @2811
    _ZN4inet13RsvpPathError12setErrorCodeEi @2812
    _ZN4inet13RsvpPathError12setErrorNodeERKNS_11Ipv4AddressE @2813
    _ZN4inet13RsvpPathError20setSender_descriptorERKNS_18SenderDescriptor_tE @2814
    _ZN4inet13RsvpPathError4copyERKS0_ @2815
    _ZN4inet13RsvpPathErrorC1ERKS0_ @2816
    _ZN4inet13RsvpPathErrorC1Ev @2817
    _ZN4inet13RsvpPathErrorC2ERKS0_ @2818
    _ZN4inet13RsvpPathErrorC2Ev @2819
    _ZN4inet13RsvpPathErrorD0Ev @2820
    _ZN4inet13RsvpPathErrorD1Ev @2821
    _ZN4inet13RsvpPathErrorD2Ev @2822
    _ZN4inet13RsvpPathErroraSERKS0_ @2823
    _ZN4inet13RsvpResvError12parsimUnpackEPN7omnetpp11cCommBufferE @2824
    _ZN4inet13RsvpResvError12setErrorCodeEi @2825
    _ZN4inet13RsvpResvError12setErrorNodeERKNS_11Ipv4AddressE @2826
    _ZN4inet13RsvpResvError4copyERKS0_ @2827
    _ZN4inet13RsvpResvError6setHopERKNS_10RsvpHopObjE @2828
    _ZN4inet13RsvpResvErrorC1ERKS0_ @2829
    _ZN4inet13RsvpResvErrorC1Ev @2830
    _ZN4inet13RsvpResvErrorC2ERKS0_ @2831
    _ZN4inet13RsvpResvErrorC2Ev @2832
    _ZN4inet13RsvpResvErrorD0Ev @2833
    _ZN4inet13RsvpResvErrorD1Ev @2834
    _ZN4inet13RsvpResvErrorD2Ev @2835
    _ZN4inet13RsvpResvErroraSERKS0_ @2836
    _ZN4inet13ScenarioTimer10setXmlNodeEPN7omnetpp11cXMLElementE @2837
    _ZN4inet13ScenarioTimer12parsimUnpackEPN7omnetpp11cCommBufferE @2838
    _ZN4inet13ScenarioTimer4copyERKS0_ @2839
    _ZN4inet13ScenarioTimerC1EPKcs @2840
    _ZN4inet13ScenarioTimerC1ERKS0_ @2841
    _ZN4inet13ScenarioTimerC2EPKcs @2842
    _ZN4inet13ScenarioTimerC2ERKS0_ @2843
    _ZN4inet13ScenarioTimerD0Ev @2844
    _ZN4inet13ScenarioTimerD1Ev @2845
    _ZN4inet13ScenarioTimerD2Ev @2846
    _ZN4inet13ScenarioTimeraSERKS0_ @2847
    _ZN4inet13SctpNatServer10initializeEi @2848
    _ZN4inet13SctpNatServer11handleTimerEPN7omnetpp8cMessageE @2849
    _ZN4inet13SctpNatServer13handleMessageEPN7omnetpp8cMessageE @2850
    _ZN4inet13SctpNatServer14printNatVectorEv @2851
    _ZN4inet13SctpNatServer15generateAndSendEv @2852
    _ZN4inet13SctpNatServer6finishEv @2853
    _ZN4inet13SctpNatServer8sendInfoEPNS_7natInfoE @2854
    _ZN4inet13SctpNatServer9natVectorE @2855 DATA
    _ZN4inet13SctpStatusReq12parsimUnpackEPN7omnetpp11cCommBufferE @2856
    _ZN4inet13SctpStatusReq12setStateNameEPKc @2857
    _ZN4inet13SctpStatusReq4copyERKS0_ @2858
    _ZN4inet13SctpStatusReq8setStateEi @2859
    _ZN4inet13SctpStatusReq9setActiveEb @2860
    _ZN4inet13SctpStatusReq9setPathIdERKNS_9L3AddressE @2861
    _ZN4inet13SctpStatusReqC1ERKS0_ @2862
    _ZN4inet13SctpStatusReqC1Ev @2863
    _ZN4inet13SctpStatusReqC2ERKS0_ @2864
    _ZN4inet13SctpStatusReqC2Ev @2865
    _ZN4inet13SctpStatusReqD0Ev @2866
    _ZN4inet13SctpStatusReqD1Ev @2867
    _ZN4inet13SctpStatusReqD2Ev @2868
    _ZN4inet13SctpStatusReqaSERKS0_ @2869
    _ZN4inet13SequenceChunk12convertChunkERKSt9type_infoRKNS_12IntrusivePtrINS_5ChunkEEENS_5units5valueIxNS9_5units1bEEESD_i @2870
    _ZN4inet13SequenceChunk12forEachChildEPN7omnetpp8cVisitorE @2871
    _ZN4inet13SequenceChunk12parsimUnpackEPN7omnetpp11cCommBufferE @2872
    _ZN4inet13SequenceChunk14doInsertAtBackERKNS_12IntrusivePtrIKNS_5ChunkEEE @2873
    _ZN4inet13SequenceChunk14doRemoveAtBackENS_5units5valueIxNS1_5units1bEEE @2874
    _ZN4inet13SequenceChunk15doInsertAtFrontERKNS_12IntrusivePtrIKNS_5ChunkEEE @2875
    _ZN4inet13SequenceChunk15doRemoveAtFrontENS_5units5valueIxNS1_5units1bEEE @2876
    _ZN4inet13SequenceChunk19doInsertChunkAtBackERKNS_12IntrusivePtrIKNS_5ChunkEEE @2877
    _ZN4inet13SequenceChunk20doInsertChunkAtFrontERKNS_12IntrusivePtrIKNS_5ChunkEEE @2878
    _ZN4inet13SequenceChunk24doInsertSliceChunkAtBackERKNS_12IntrusivePtrIKNS_10SliceChunkEEE @2879
    _ZN4inet13SequenceChunk25doInsertSliceChunkAtFrontERKNS_12IntrusivePtrIKNS_10SliceChunkEEE @2880
    _ZN4inet13SequenceChunk27doInsertSequenceChunkAtBackERKNS_12IntrusivePtrIKS0_EE @2881
    _ZN4inet13SequenceChunk28doInsertSequenceChunkAtFrontERKNS_12IntrusivePtrIKS0_EE @2882
    _ZN4inet13SequenceChunk9setChunksERKSt5dequeINS_12IntrusivePtrIKNS_5ChunkEEESaIS5_EE @2883
    _ZN4inet13SequenceChunkC1ERKS0_ @2884
    _ZN4inet13SequenceChunkC1ERKSt5dequeINS_12IntrusivePtrIKNS_5ChunkEEESaIS5_EE @2885
    _ZN4inet13SequenceChunkC1Ev @2886
    _ZN4inet13SequenceChunkC2ERKS0_ @2887
    _ZN4inet13SequenceChunkC2ERKSt5dequeINS_12IntrusivePtrIKNS_5ChunkEEESaIS5_EE @2888
    _ZN4inet13SequenceChunkC2Ev @2889
    _ZN4inet13SettableClock10initializeEi @2890
    _ZN4inet13SettableClock12setClockTimeENS_9ClockTimeEb @2891
    _ZN4inet13SettableClock14processCommandERKN7omnetpp11cXMLElementE @2892
    _ZN4inet13SettableClock23handleOverdueClockEventEPNS_10ClockEventEN7omnetpp7SimTimeE @2893
    _ZN4inet13SharingTagSet12parsimUnpackEPN7omnetpp11cCommBufferE @2894
    _ZN4inet13SharingTagSet25ensureTagsVectorAllocatedEv @2895
    _ZN4inet13SharingTagSet26prepareTagsVectorForUpdateEv @2896
    _ZN4inet13SharingTagSet6addTagERKNS_12IntrusivePtrIKNS_7TagBaseEEE @2897
    _ZN4inet13SharingTagSet9removeTagEi @2898
    _ZN4inet13SignalBandInd12parsimUnpackEPN7omnetpp11cCommBufferE @2899
    _ZN4inet13SignalBandInd4copyERKS0_ @2900
    _ZN4inet13SignalBandIndC1ERKS0_ @2901
    _ZN4inet13SignalBandIndC1Ev @2902
    _ZN4inet13SignalBandIndC2ERKS0_ @2903
    _ZN4inet13SignalBandIndC2Ev @2904
    _ZN4inet13SignalBandIndD0Ev @2905
    _ZN4inet13SignalBandIndD1Ev @2906
    _ZN4inet13SignalBandIndD2Ev @2907
    _ZN4inet13SignalBandIndaSERKS0_ @2908
    _ZN4inet13SignalBandReq12parsimUnpackEPN7omnetpp11cCommBufferE @2909
    _ZN4inet13SignalBandReq4copyERKS0_ @2910
    _ZN4inet13SignalBandReqC1ERKS0_ @2911
    _ZN4inet13SignalBandReqC1Ev @2912
    _ZN4inet13SignalBandReqC2ERKS0_ @2913
    _ZN4inet13SignalBandReqC2Ev @2914
    _ZN4inet13SignalBandReqD0Ev @2915
    _ZN4inet13SignalBandReqD1Ev @2916
    _ZN4inet13SignalBandReqD2Ev @2917
    _ZN4inet13SignalBandReqaSERKS0_ @2918
    _ZN4inet13SignalTagBase12parsimUnpackEPN7omnetpp11cCommBufferE @2919
    _ZN4inet13SignalTagBase4copyERKS0_ @2920
    _ZN4inet13SignalTagBaseC1ERKS0_ @2921
    _ZN4inet13SignalTagBaseC1Ev @2922
    _ZN4inet13SignalTagBaseC2ERKS0_ @2923
    _ZN4inet13SignalTagBaseC2Ev @2924
    _ZN4inet13SignalTagBaseD0Ev @2925
    _ZN4inet13SignalTagBaseD1Ev @2926
    _ZN4inet13SignalTagBaseD2Ev @2927
    _ZN4inet13SignalTagBaseaSERKS0_ @2928
    _ZN4inet13SignalTimeInd10setEndTimeEN7omnetpp7SimTimeE @2929
    _ZN4inet13SignalTimeInd12parsimUnpackEPN7omnetpp11cCommBufferE @2930
    _ZN4inet13SignalTimeInd12setStartTimeEN7omnetpp7SimTimeE @2931
    _ZN4inet13SignalTimeInd4copyERKS0_ @2932
    _ZN4inet13SignalTimeIndC1ERKS0_ @2933
    _ZN4inet13SignalTimeIndC1Ev @2934
    _ZN4inet13SignalTimeIndC2ERKS0_ @2935
    _ZN4inet13SignalTimeIndC2Ev @2936
    _ZN4inet13SignalTimeIndD0Ev @2937
    _ZN4inet13SignalTimeIndD1Ev @2938
    _ZN4inet13SignalTimeIndD2Ev @2939
    _ZN4inet13SignalTimeIndaSERKS0_ @2940
    _ZN4inet13SignallingMsg10setCommandEi @2941
    _ZN4inet13SignallingMsg12parsimUnpackEPN7omnetpp11cCommBufferE @2942
    _ZN4inet13SignallingMsg4copyERKS0_ @2943
    _ZN4inet13SignallingMsgC1EPKcs @2944
    _ZN4inet13SignallingMsgC1ERKS0_ @2945
    _ZN4inet13SignallingMsgC2EPKcs @2946
    _ZN4inet13SignallingMsgC2ERKS0_ @2947
    _ZN4inet13SignallingMsgD0Ev @2948
    _ZN4inet13SignallingMsgD1Ev @2949
    _ZN4inet13SignallingMsgD2Ev @2950
    _ZN4inet13SignallingMsgaSERKS0_ @2951
    _ZN4inet13SocketTagBase11setSocketIdEi @2952
    _ZN4inet13SocketTagBase12parsimUnpackEPN7omnetpp11cCommBufferE @2953
    _ZN4inet13SocketTagBase4copyERKS0_ @2954
    _ZN4inet13SocketTagBaseC1ERKS0_ @2955
    _ZN4inet13SocketTagBaseC1Ev @2956
    _ZN4inet13SocketTagBaseC2ERKS0_ @2957
    _ZN4inet13SocketTagBaseC2Ev @2958
    _ZN4inet13SocketTagBaseD0Ev @2959
    _ZN4inet13SocketTagBaseD1Ev @2960
    _ZN4inet13SocketTagBaseD2Ev @2961
    _ZN4inet13SocketTagBaseaSERKS0_ @2962
    _ZN4inet13StreamDecoder10initializeEi @2963
    _ZN4inet13StreamDecoder13processPacketEPNS_6PacketE @2964
    _ZN4inet13StreamDecoder17configureMappingsEv @2965
    _ZN4inet13StreamDecoder21handleParameterChangeEPKc @2966
    _ZN4inet13StreamDecoder29getRegistrationForwardingGateEPN7omnetpp5cGateE @2967
    _ZN4inet13StreamDecoderD0Ev @2968
    _ZN4inet13StreamDecoderD1Ev @2969
    _ZN4inet13StreamDecoderD2Ev @2970
    _ZN4inet13StreamEncoder10initializeEi @2971
    _ZN4inet13StreamEncoder13processPacketEPNS_6PacketE @2972
    _ZN4inet13StreamEncoder17configureMappingsEv @2973
    _ZN4inet13StreamEncoder21handleParameterChangeEPKc @2974
    _ZN4inet13StreamEncoder29getRegistrationForwardingGateEPN7omnetpp5cGateE @2975
    _ZN4inet13StreamTagBase12parsimUnpackEPN7omnetpp11cCommBufferE @2976
    _ZN4inet13StreamTagBase13setStreamNameEPKc @2977
    _ZN4inet13StreamTagBase4copyERKS0_ @2978
    _ZN4inet13StreamTagBaseC1ERKS0_ @2979
    _ZN4inet13StreamTagBaseC1Ev @2980
    _ZN4inet13StreamTagBaseC2ERKS0_ @2981
    _ZN4inet13StreamTagBaseC2Ev @2982
    _ZN4inet13StreamTagBaseD0Ev @2983
    _ZN4inet13StreamTagBaseD1Ev @2984
    _ZN4inet13StreamTagBaseD2Ev @2985
    _ZN4inet13StreamTagBaseaSERKS0_ @2986
    _ZN4inet13TcpIpChecksum9_checksumEPKvj @2987
    _ZN4inet13TcpIpChecksum9_checksumERKSt6vectorIhSaIhEE @2988
    _ZN4inet13TcpSessionApp10initializeEi @2989
    _ZN4inet13TcpSessionApp11handleTimerEPN7omnetpp8cMessageE @2990
    _ZN4inet13TcpSessionApp11parseScriptEPKc @2991
    _ZN4inet13TcpSessionApp12socketClosedEPNS_9TcpSocketE @2992
    _ZN4inet13TcpSessionApp13socketFailureEPNS_9TcpSocketEi @2993
    _ZN4inet13TcpSessionApp16createDataPacketEl @2994
    _ZN4inet13TcpSessionApp17socketDataArrivedEPNS_9TcpSocketEPNS_6PacketEb @2995
    _ZN4inet13TcpSessionApp17socketEstablishedEPNS_9TcpSocketE @2996
    _ZN4inet13TcpSessionApp19handleStopOperationEPNS_18LifecycleOperationE @2997
    _ZN4inet13TcpSessionApp20handleCrashOperationEPNS_18LifecycleOperationE @2998
    _ZN4inet13TcpSessionApp20handleStartOperationEPNS_18LifecycleOperationE @2999
    _ZN4inet13TcpSessionApp6finishEv @3000
    _ZN4inet13TcpSessionApp8sendDataEv @3001
    _ZN4inet13TcpSessionAppD0Ev @3002
    _ZN4inet13TcpSessionAppD1Ev @3003
    _ZN4inet13TcpSessionAppD2Ev @3004
    _ZN4inet13TcpStatusInfo10setRcv_nxtEj @3005
    _ZN4inet13TcpStatusInfo10setRcv_wndEj @3006
    _ZN4inet13TcpStatusInfo10setSnd_maxEj @3007
    _ZN4inet13TcpStatusInfo10setSnd_mssEj @3008
    _ZN4inet13TcpStatusInfo10setSnd_nxtEj @3009
    _ZN4inet13TcpStatusInfo10setSnd_unaEj @3010
    _ZN4inet13TcpStatusInfo10setSnd_wl1Ej @3011
    _ZN4inet13TcpStatusInfo10setSnd_wl2Ej @3012
    _ZN4inet13TcpStatusInfo10setSnd_wndEj @3013
    _ZN4inet13TcpStatusInfo12parsimUnpackEPN7omnetpp11cCommBufferE @3014
    _ZN4inet13TcpStatusInfo12setLocalAddrERKNS_9L3AddressE @3015
    _ZN4inet13TcpStatusInfo12setLocalPortEi @3016
    _ZN4inet13TcpStatusInfo12setStateNameEPKc @3017
    _ZN4inet13TcpStatusInfo13setRemoteAddrERKNS_9L3AddressE @3018
    _ZN4inet13TcpStatusInfo13setRemotePortEi @3019
    _ZN4inet13TcpStatusInfo15setFin_ack_rcvdEb @3020
    _ZN4inet13TcpStatusInfo4copyERKS0_ @3021
    _ZN4inet13TcpStatusInfo6setIrsEj @3022
    _ZN4inet13TcpStatusInfo6setIssEj @3023
    _ZN4inet13TcpStatusInfo8setStateEi @3024
    _ZN4inet13TcpStatusInfo9setRcv_upEj @3025
    _ZN4inet13TcpStatusInfo9setSnd_upEj @3026
    _ZN4inet13TcpStatusInfoC1ERKS0_ @3027
    _ZN4inet13TcpStatusInfoC1Ev @3028
    _ZN4inet13TcpStatusInfoC2ERKS0_ @3029
    _ZN4inet13TcpStatusInfoC2Ev @3030
    _ZN4inet13TcpStatusInfoD0Ev @3031
    _ZN4inet13TcpStatusInfoD1Ev @3032
    _ZN4inet13TcpStatusInfoD2Ev @3033
    _ZN4inet13TcpStatusInfoaSERKS0_ @3034
    _ZN4inet13TedChangeInfo12parsimUnpackEPN7omnetpp11cCommBufferE @3035
    _ZN4inet13TedChangeInfo17setTedLinkIndicesEyi @3036
    _ZN4inet13TedChangeInfo19eraseTedLinkIndicesEy @3037
    _ZN4inet13TedChangeInfo20appendTedLinkIndicesEi @3038
    _ZN4inet13TedChangeInfo20insertTedLinkIndicesEyi @3039
    _ZN4inet13TedChangeInfo26setTedLinkIndicesArraySizeEy @3040
    _ZN4inet13TedChangeInfo4copyERKS0_ @3041
    _ZN4inet13TedChangeInfoC1ERKS0_ @3042
    _ZN4inet13TedChangeInfoC1Ev @3043
    _ZN4inet13TedChangeInfoC2ERKS0_ @3044
    _ZN4inet13TedChangeInfoC2Ev @3045
    _ZN4inet13TedChangeInfoD0Ev @3046
    _ZN4inet13TedChangeInfoD1Ev @3047
    _ZN4inet13TedChangeInfoD2Ev @3048
    _ZN4inet13TedChangeInfoaSERKS0_ @3049
    _ZN4inet13TlvOptionBase12parsimUnpackEPN7omnetpp11cCommBufferE @3050
    _ZN4inet13TlvOptionBase4copyERKS0_ @3051
    _ZN4inet13TlvOptionBase7setTypeEs @3052
    _ZN4inet13TlvOptionBase9setLengthEs @3053
    _ZN4inet13TlvOptionBaseC1ERKS0_ @3054
    _ZN4inet13TlvOptionBaseC1Ev @3055
    _ZN4inet13TlvOptionBaseC2ERKS0_ @3056
    _ZN4inet13TlvOptionBaseC2Ev @3057
    _ZN4inet13TlvOptionBaseD0Ev @3058
    _ZN4inet13TlvOptionBaseD1Ev @3059
    _ZN4inet13TlvOptionBaseD2Ev @3060
    _ZN4inet13TlvOptionBaseaSERKS0_ @3061
    _ZN4inet13UdpBasicBurst10initializeEi @3062
    _ZN4inet13UdpBasicBurst11processSendEv @3063
    _ZN4inet13UdpBasicBurst11processStopEv @3064
    _ZN4inet13UdpBasicBurst12createPacketEv @3065
    _ZN4inet13UdpBasicBurst12processStartEv @3066
    _ZN4inet13UdpBasicBurst12socketClosedEPNS_9UdpSocketE @3067
    _ZN4inet13UdpBasicBurst13generateBurstEv @3068
    _ZN4inet13UdpBasicBurst13processPacketEPNS_6PacketE @3069
    _ZN4inet13UdpBasicBurst14chooseDestAddrEv @3070
    _ZN4inet13UdpBasicBurst17socketDataArrivedEPNS_9UdpSocketEPNS_6PacketE @3071
    _ZN4inet13UdpBasicBurst18outOfOrderPkSignalE @3072 DATA
    _ZN4inet13UdpBasicBurst18socketErrorArrivedEPNS_9UdpSocketEPNS_10IndicationE @3073
    _ZN4inet13UdpBasicBurst19handleMessageWhenUpEPN7omnetpp8cMessageE @3074
    _ZN4inet13UdpBasicBurst19handleStopOperationEPNS_18LifecycleOperationE @3075
    _ZN4inet13UdpBasicBurst20handleCrashOperationEPNS_18LifecycleOperationE @3076
    _ZN4inet13UdpBasicBurst20handleStartOperationEPNS_18LifecycleOperationE @3077
    _ZN4inet13UdpBasicBurst6finishEv @3078
    _ZN4inet13UdpBasicBurst7counterE @3079 DATA
    _ZN4inet13UdpBasicBurstD0Ev @3080
    _ZN4inet13UdpBasicBurstD1Ev @3081
    _ZN4inet13UdpBasicBurstD2Ev @3082
    _ZN4inet13VirtualTunnel10initializeEi @3083
    _ZN4inet13VirtualTunnel10pushPacketEPNS_6PacketEPN7omnetpp5cGateE @3084
    _ZN4inet13VirtualTunnel13handleMessageEPN7omnetpp8cMessageE @3085
    _ZN4inet13VirtualTunnel17socketDataArrivedEPNS_14EthernetSocketEPNS_6PacketE @3086
    _ZN4inet13VirtualTunnel17socketDataArrivedEPNS_15Ieee8021qSocketEPNS_6PacketE @3087
    _ZN4inet13VlanIndFilter10dropPacketEPNS_6PacketE @3088
    _ZN4inet13VlanIndFilter10initializeEi @3089
    _ZN4inet13VlanIndFilter29getRegistrationForwardingGateEPN7omnetpp5cGateE @3090
    _ZN4inet13VlanReqFilter10dropPacketEPNS_6PacketE @3091
    _ZN4inet13VlanReqFilter10initializeEi @3092
    _ZN4inet13VlanReqFilter29getRegistrationForwardingGateEPN7omnetpp5cGateE @3093
    _ZN4inet13VlanReqMapper10initializeEi @3094
    _ZN4inet13VlanReqMapper13processPacketEPNS_6PacketE @3095
    _ZN4inet13VlanReqMapper29getRegistrationForwardingGateEPN7omnetpp5cGateE @3096
    _ZN4inet13__doUnpackingEPN7omnetpp11cCommBufferERNS_10RsvpHopObjE @3097
    _ZN4inet13__doUnpackingEPN7omnetpp11cCommBufferERNS_10SessionObjE @3098
    _ZN4inet13__doUnpackingEPN7omnetpp11cCommBufferERNS_11FlowSpecObjE @3099
    _ZN4inet13__doUnpackingEPN7omnetpp11cCommBufferERNS_12EigrpKValuesE @3100
    _ZN4inet13__doUnpackingEPN7omnetpp11cCommBufferERNS_12EigrpTlvStubE @3101
    _ZN4inet13__doUnpackingEPN7omnetpp11cCommBufferERNS_12PortIdentityE @3102
    _ZN4inet13__doUnpackingEPN7omnetpp11cCommBufferERNS_13EigrpMsgRouteE @3103
    _ZN4inet13__doUnpackingEPN7omnetpp11cCommBufferERNS_13FilterSpecObjE @3104
    _ZN4inet13__doUnpackingEPN7omnetpp11cCommBufferERNS_14SenderTspecObjE @3105
    _ZN4inet13__doUnpackingEPN7omnetpp11cCommBufferERNS_15EigrpRouteFlagsE @3106
    _ZN4inet13__doUnpackingEPN7omnetpp11cCommBufferERNS_15LabelRequestObjE @3107
    _ZN4inet13__doUnpackingEPN7omnetpp11cCommBufferERNS_15TeLinkStateInfoE @3108
    _ZN4inet13__doUnpackingEPN7omnetpp11cCommBufferERNS_16FlowDescriptor_tE @3109
    _ZN4inet13__doUnpackingEPN7omnetpp11cCommBufferERNS_17EigrpTlvParameterE @3110
    _ZN4inet13__doUnpackingEPN7omnetpp11cCommBufferERNS_17SenderTemplateObjE @3111
    _ZN4inet13__doUnpackingEPN7omnetpp11cCommBufferERNS_18EigrpWideMetricParE @3112
    _ZN4inet13__doUnpackingEPN7omnetpp11cCommBufferERNS_18SenderDescriptor_tE @3113
    _ZN4inet13__doUnpackingEPN7omnetpp11cCommBufferERNS_19EigrpMpIpv4InternalE @3114
    _ZN4inet13__doUnpackingEPN7omnetpp11cCommBufferERNS_19EigrpMpIpv6InternalE @3115
    _ZN4inet13__doUnpackingEPN7omnetpp11cCommBufferERNS_19EncodedGroupAddressE @3116
    _ZN4inet13__doUnpackingEPN7omnetpp11cCommBufferERNS_20EncodedSourceAddressE @3117
    _ZN4inet13__doUnpackingEPN7omnetpp11cCommBufferERNS_21EncodedUnicastAddressE @3118
    _ZN4inet13__doUnpackingEPN7omnetpp11cCommBufferERNS_6EroObjE @3119
    _ZN4inet13__doUnpackingEPN7omnetpp11cCommBufferERNS_6FecTlvE @3120
    _ZN4inet13__doUnpackingEPN7omnetpp11cCommBufferERNS_8RipEntryE @3121
    _ZN4inet13__doUnpackingEPN7omnetpp11cCommBufferERNS_9EigrpStubE @3122
    _ZN4inet13endPacketFlowEPN7omnetpp7cModuleEPNS_6PacketEPKc @3123
    _ZN4inet13getProtocolIdEPNS_6PacketE @3124
    _ZN4inet13isNetworkNodeEPKN7omnetpp7cModuleE @3125
    _ZN4inet13physicallayer10ScalarSnirC1EPKNS0_10IReceptionEPKNS0_6INoiseE @3126
    _ZN4inet13physicallayer10ScalarSnirC2EPKNS0_10IReceptionEPKNS0_6INoiseE @3127
    _ZN4inet13physicallayer11AntennaBase10initializeEi @3128
    _ZN4inet13physicallayer11AntennaBaseC2Ev @3129
    _ZN4inet13physicallayer11ApskDecoder10initializeEi @3130
    _ZN4inet13physicallayer11ApskDecoderC1Ev @3131
    _ZN4inet13physicallayer11ApskDecoderC2Ev @3132
    _ZN4inet13physicallayer11ApskDecoderD0Ev @3133
    _ZN4inet13physicallayer11ApskDecoderD1Ev @3134
    _ZN4inet13physicallayer11ApskDecoderD2Ev @3135
    _ZN4inet13physicallayer11ApskEncoder10initializeEi @3136
    _ZN4inet13physicallayer11ApskEncoderC1Ev @3137
    _ZN4inet13physicallayer11ApskEncoderC2Ev @3138
    _ZN4inet13physicallayer11ApskEncoderD0Ev @3139
    _ZN4inet13physicallayer11ApskEncoderD1Ev @3140
    _ZN4inet13physicallayer11ApskEncoderD2Ev @3141
    _ZN4inet13physicallayer11EthernetPhy10initializeEi @3142
    _ZN4inet13physicallayer11EthernetPhy13handleMessageEPN7omnetpp8cMessageE @3143
    _ZN4inet13physicallayer11NoiseSource10initializeEi @3144
    _ZN4inet13physicallayer11NoiseSource13handleMessageEPN7omnetpp8cMessageE @3145
    _ZN4inet13physicallayer11NoiseSource15endTransmissionEv @3146
    _ZN4inet13physicallayer11NoiseSource17startTransmissionEv @3147
    _ZN4inet13physicallayer11NoiseSource18scheduleSleepTimerEv @3148
    _ZN4inet13physicallayer11NoiseSource25scheduleTransmissionTimerEPKNS0_13ITransmissionE @3149
    _ZN4inet13physicallayer11NoiseSourceD0Ev @3150
    _ZN4inet13physicallayer11NoiseSourceD1Ev @3151
    _ZN4inet13physicallayer11NoiseSourceD2Ev @3152
    _ZN4inet13physicallayer11PulseFilterC1Ev @3153
    _ZN4inet13physicallayer11PulseFilterC2Ev @3154
    _ZN4inet13physicallayer11PulseShaperC1Ev @3155
    _ZN4inet13physicallayer11PulseShaperC2Ev @3156
    _ZN4inet13physicallayer11RadioMedium10initializeEi @3157
    _ZN4inet13physicallayer11RadioMedium11removeRadioEPKNS0_6IRadioE @3158
    _ZN4inet13physicallayer11RadioMedium11sendToRadioEPNS0_6IRadioEPKS2_PKNS0_15IWirelessSignalE @3159
    _ZN4inet13physicallayer11RadioMedium13handleMessageEPN7omnetpp8cMessageE @3160
    _ZN4inet13physicallayer11RadioMedium13pickUpSignalsEPNS0_6IRadioE @3161
    _ZN4inet13physicallayer11RadioMedium13receivePacketEPKNS0_6IRadioEPNS0_15IWirelessSignalE @3162
    _ZN4inet13physicallayer11RadioMedium13receiveSignalEPN7omnetpp10cComponentEiPNS2_7cObjectES6_ @3163
    _ZN4inet13physicallayer11RadioMedium13receiveSignalEPN7omnetpp10cComponentEixPNS2_7cObjectE @3164
    _ZN4inet13physicallayer11RadioMedium14transmitPacketEPKNS0_6IRadioEPNS_6PacketE @3165
    _ZN4inet13physicallayer11RadioMedium15addTransmissionEPKNS0_6IRadioEPKNS0_13ITransmissionE @3166
    _ZN4inet13physicallayer11RadioMedium15sendToAllRadiosEPNS0_6IRadioEPKNS0_15IWirelessSignalE @3167
    _ZN4inet13physicallayer11RadioMedium18removeTransmissionEPKNS0_13ITransmissionE @3168
    _ZN4inet13physicallayer11RadioMedium20createReceiverSignalEPKNS0_13ITransmissionE @3169
    _ZN4inet13physicallayer11RadioMedium20sendToAffectedRadiosEPNS0_6IRadioEPKNS0_15IWirelessSignalE @3170
    _ZN4inet13physicallayer11RadioMedium23createTransmitterSignalEPKNS0_6IRadioEPNS_6PacketE @3171
    _ZN4inet13physicallayer11RadioMedium33removeNonInterferingTransmissionsEv @3172
    _ZN4inet13physicallayer11RadioMedium6finishEv @3173
    _ZN4inet13physicallayer11RadioMedium8addRadioEPKNS0_6IRadioE @3174
    _ZN4inet13physicallayer11RadioMediumC1Ev @3175
    _ZN4inet13physicallayer11RadioMediumC2Ev @3176
    _ZN4inet13physicallayer11RadioMediumD0Ev @3177
    _ZN4inet13physicallayer11RadioMediumD1Ev @3178
    _ZN4inet13physicallayer11RadioMediumD2Ev @3179
    _ZN4inet13physicallayer11ScalarNoiseC1EN7omnetpp7SimTimeES3_NS_5units5valueIdNS4_3powINS4_5units1sELin1ELi1EEEEESA_PKSt3mapIS3_NS5_IdNS4_7composeINSC_INSC_INS7_1mENSC_INS7_2kgENS6_IS8_Lin2ELi1EEEEEEESD_EES9_EEEESt4lessIS3_ESaISt4pairIKS3_SK_EEE @3180
    _ZN4inet13physicallayer11ScalarNoiseC2EN7omnetpp7SimTimeES3_NS_5units5valueIdNS4_3powINS4_5units1sELin1ELi1EEEEESA_PKSt3mapIS3_NS5_IdNS4_7composeINSC_INSC_INS7_1mENSC_INS7_2kgENS6_IS8_Lin2ELi1EEEEEEESD_EES9_EEEESt4lessIS3_ESaISt4pairIKS3_SK_EEE @3181
    _ZN4inet13physicallayer11SuiPathLoss10initializeEi @3182
    _ZN4inet13physicallayer11SuiPathLossC1Ev @3183
    _ZN4inet13physicallayer11SuiPathLossC2Ev @3184
    _ZN4inet13physicallayer12BerParseFile12setPhyOpModeEc @3185
    _ZN4inet13physicallayer12BerParseFile13clearBerTableEv @3186
    _ZN4inet13physicallayer12BerParseFile16getTablePositionEd @3187
    _ZN4inet13physicallayer12BerParseFile6getPerEddi @3188
    _ZN4inet13physicallayer12BerParseFile9parseFileEPKc @3189
    _ZN4inet13physicallayer12BerParseFileD1Ev @3190
    _ZN4inet13physicallayer12BerParseFileD2Ev @3191
    _ZN4inet13physicallayer12IRadioMedium16radioAddedSignalE @3192 DATA
    _ZN4inet13physicallayer12IRadioMedium17signalAddedSignalE @3193 DATA
    _ZN4inet13physicallayer12IRadioMedium18radioRemovedSignalE @3194 DATA
    _ZN4inet13physicallayer12IRadioMedium19signalRemovedSignalE @3195 DATA
    _ZN4inet13physicallayer12IRadioMedium24signalArrivalEndedSignalE @3196 DATA
    _ZN4inet13physicallayer12IRadioMedium26signalArrivalStartedSignalE @3197 DATA
    _ZN4inet13physicallayer12IRadioMedium26signalDepartureEndedSignalE @3198 DATA
    _ZN4inet13physicallayer12IRadioMedium28signalDepartureStartedSignalE @3199 DATA
    _ZN4inet13physicallayer12IRadioSignal14signalPartEnumE @3200 DATA
    _ZN4inet13physicallayer12IRadioSignal17getSignalPartNameENS1_10SignalPartE @3201
    _ZN4inet13physicallayer12InterferenceC1EPKNS0_6INoiseEPKSt6vectorIPKNS0_10IReceptionESaIS8_EE @3202
    _ZN4inet13physicallayer12InterferenceC2EPKNS0_6INoiseEPKSt6vectorIPKNS0_10IReceptionESaIS8_EE @3203
    _ZN4inet13physicallayer12InterferenceD0Ev @3204
    _ZN4inet13physicallayer12InterferenceD1Ev @3205
    _ZN4inet13physicallayer12InterferenceD2Ev @3206
    _ZN4inet13physicallayer12RicianFading10initializeEi @3207
    _ZN4inet13physicallayer12RicianFadingC1Ev @3208
    _ZN4inet13physicallayer12RicianFadingC2Ev @3209
    _ZN4inet13physicallayer12UnitDiskSnirC1EPKNS0_10IReceptionEPKNS0_6INoiseE @3210
    _ZN4inet13physicallayer12UnitDiskSnirC2EPKNS0_10IReceptionEPKNS0_6INoiseE @3211
    _ZN4inet13physicallayer12WireJunction10findTxInfoEli @3212
    _ZN4inet13physicallayer12WireJunction10initializeEv @3213
    _ZN4inet13physicallayer12WireJunction12setGateModesEv @3214
    _ZN4inet13physicallayer12WireJunction13handleMessageEPN7omnetpp8cMessageE @3215
    _ZN4inet13physicallayer12WireJunction13receiveSignalEPN7omnetpp10cComponentEiPNS2_7cObjectES6_ @3216
    _ZN4inet13physicallayer12WireJunction15setChannelModesEv @3217
    _ZN4inet13physicallayer12WireJunction9addTxInfoElilN7omnetpp7SimTimeE @3218
    _ZN4inet13physicallayer13ApskModulator10initializeEi @3219
    _ZN4inet13physicallayer13ApskModulatorC1Ev @3220
    _ZN4inet13physicallayer13ApskModulatorC2Ev @3221
    _ZN4inet13physicallayer13BandListeningC1EPKNS0_6IRadioEN7omnetpp7SimTimeES6_NS_5CoordES7_NS_5units5valueIdNS8_3powINS8_5units1sELin1ELi1EEEEESE_ @3222
    _ZN4inet13physicallayer13BandListeningC2EPKNS0_6IRadioEN7omnetpp7SimTimeES6_NS_5CoordES7_NS_5units5valueIdNS8_3powINS8_5units1sELin1ELi1EEEEESE_ @3223
    _ZN4inet13physicallayer13CosineAntenna10initializeEi @3224
    _ZN4inet13physicallayer13CosineAntenna11AntennaGainC1EdNS_5units5valueIdNS3_6fscaleINS3_5units3radEXadL_ZNS6_12rad2degScaleEvEEEEEE @3225
    _ZN4inet13physicallayer13CosineAntenna11AntennaGainC2EdNS_5units5valueIdNS3_6fscaleINS3_5units3radEXadL_ZNS6_12rad2degScaleEvEEEEEE @3226
    _ZN4inet13physicallayer13CosineAntennaC1Ev @3227
    _ZN4inet13physicallayer13CosineAntennaC2Ev @3228
    _ZN4inet13physicallayer13DipoleAntenna10initializeEi @3229
    _ZN4inet13physicallayer13DipoleAntenna11AntennaGainC1EPKcNS_5units5valueIdNS5_5units1mEEE @3230
    _ZN4inet13physicallayer13DipoleAntenna11AntennaGainC2EPKcNS_5units5valueIdNS5_5units1mEEE @3231
    _ZN4inet13physicallayer13DipoleAntennaC1Ev @3232
    _ZN4inet13physicallayer13DipoleAntennaC2Ev @3233
    _ZN4inet13physicallayer13FlatRadioBase10setBitrateENS_5units5valueIdNS2_7composeINS2_5units1bENS2_3powINS5_1sELin1ELi1EEEEEEE @3234
    _ZN4inet13physicallayer13FlatRadioBase18handleUpperCommandEPN7omnetpp8cMessageE @3235
    _ZN4inet13physicallayer13FlatRadioBase8setPowerENS_5units5valueIdNS2_7composeINS4_INS4_INS2_5units1mENS4_INS5_2kgENS2_3powINS5_1sELin2ELi1EEEEEEES6_EENS8_IS9_Lin1ELi1EEEEEEE @3236
    _ZN4inet13physicallayer13FlatRadioBaseC1Ev @3237
    _ZN4inet13physicallayer13FlatRadioBaseC2Ev @3238
    _ZN4inet13physicallayer13ITransmission6nextIdE @3239 DATA
    _ZN4inet13physicallayer13ListeningBaseC1EPKNS0_6IRadioEN7omnetpp7SimTimeES6_NS_5CoordES7_ @3240
    _ZN4inet13physicallayer13ListeningBaseC2EPKNS0_6IRadioEN7omnetpp7SimTimeES6_NS_5CoordES7_ @3241
    _ZN4inet13physicallayer13ReceptionBaseC1EPKNS0_6IRadioEPKNS0_13ITransmissionEN7omnetpp7SimTimeES9_RKNS_5CoordESC_RKNS_10QuaternionESF_ @3242
    _ZN4inet13physicallayer13ReceptionBaseC2EPKNS0_6IRadioEPKNS0_13ITransmissionEN7omnetpp7SimTimeES9_RKNS_5CoordESC_RKNS_10QuaternionESF_ @3243
    _ZN4inet13physicallayer13ShortcutRadio10initializeEi @3244
    _ZN4inet13physicallayer13ShortcutRadio10sendToPeerEPNS_6PacketEPS1_ @3245
    _ZN4inet13physicallayer13ShortcutRadio14shortcutRadiosE @3246 DATA
    _ZN4inet13physicallayer13ShortcutRadio15receiveFromPeerEPNS_6PacketE @3247
    _ZN4inet13physicallayer13ShortcutRadio17handleUpperPacketEPNS_6PacketE @3248
    _ZN4inet13physicallayer13ShortcutRadio19handleMessageWhenUpEPN7omnetpp8cMessageE @3249
    _ZN4inet13physicallayer13ShortcutRadio8findPeerENS_10MacAddressE @3250
    _ZN4inet13physicallayer13UnitDiskNoiseC1EN7omnetpp7SimTimeES3_b @3251
    _ZN4inet13physicallayer13UnitDiskNoiseC2EN7omnetpp7SimTimeES3_b @3252
    _ZN4inet13physicallayer13UnitDiskRadioC1Ev @3253
    _ZN4inet13physicallayer13UnitDiskRadioC2Ev @3254
    _ZN4inet13physicallayer14BpskModulation13constellationE @3255 DATA
    _ZN4inet13physicallayer14BpskModulation9singletonE @3256 DATA
    _ZN4inet13physicallayer14BpskModulationC1Ev @3257
    _ZN4inet13physicallayer14BpskModulationC2Ev @3258
    _ZN4inet13physicallayer14ErrorModelBase10initializeEi @3259
    _ZN4inet13physicallayer14EthernetSignal12parsimUnpackEPN7omnetpp11cCommBufferE @3260
    _ZN4inet13physicallayer14EthernetSignal4copyERKS1_ @3261
    _ZN4inet13physicallayer14EthernetSignalC1EPKcs @3262
    _ZN4inet13physicallayer14EthernetSignalC1ERKS1_ @3263
    _ZN4inet13physicallayer14EthernetSignalC2EPKcs @3264
    _ZN4inet13physicallayer14EthernetSignalC2ERKS1_ @3265
    _ZN4inet13physicallayer14EthernetSignalD0Ev @3266
    _ZN4inet13physicallayer14EthernetSignalD1Ev @3267
    _ZN4inet13physicallayer14EthernetSignalD2Ev @3268
    _ZN4inet13physicallayer14EthernetSignalaSERKS1_ @3269
    _ZN4inet13physicallayer14Ieee80211HtmcsC1EjPKNS0_15Ieee80211HtCodeEPKNS0_23Ieee80211OfdmModulationES7_S7_S7_ @3270
    _ZN4inet13physicallayer14Ieee80211HtmcsC1EjPKNS0_23Ieee80211OfdmModulationEPKNS0_26Ieee80211ConvolutionalCodeENS_5units5valueIdNS8_3powINS8_5units1sELin1ELi1EEEEE @3271
    _ZN4inet13physicallayer14Ieee80211HtmcsC1EjPKNS0_23Ieee80211OfdmModulationES4_PKNS0_26Ieee80211ConvolutionalCodeENS_5units5valueIdNS8_3powINS8_5units1sELin1ELi1EEEEE @3272
    _ZN4inet13physicallayer14Ieee80211HtmcsC1EjPKNS0_23Ieee80211OfdmModulationES4_S4_PKNS0_26Ieee80211ConvolutionalCodeENS_5units5valueIdNS8_3powINS8_5units1sELin1ELi1EEEEE @3273
    _ZN4inet13physicallayer14Ieee80211HtmcsC1EjPKNS0_23Ieee80211OfdmModulationES4_S4_S4_PKNS0_26Ieee80211ConvolutionalCodeENS_5units5valueIdNS8_3powINS8_5units1sELin1ELi1EEEEE @3274
    _ZN4inet13physicallayer14Ieee80211HtmcsC2EjPKNS0_15Ieee80211HtCodeEPKNS0_23Ieee80211OfdmModulationES7_S7_S7_ @3275
    _ZN4inet13physicallayer14Ieee80211HtmcsC2EjPKNS0_23Ieee80211OfdmModulationEPKNS0_26Ieee80211ConvolutionalCodeENS_5units5valueIdNS8_3powINS8_5units1sELin1ELi1EEEEE @3276
    _ZN4inet13physicallayer14Ieee80211HtmcsC2EjPKNS0_23Ieee80211OfdmModulationES4_PKNS0_26Ieee80211ConvolutionalCodeENS_5units5valueIdNS8_3powINS8_5units1sELin1ELi1EEEEE @3277
    _ZN4inet13physicallayer14Ieee80211HtmcsC2EjPKNS0_23Ieee80211OfdmModulationES4_S4_PKNS0_26Ieee80211ConvolutionalCodeENS_5units5valueIdNS8_3powINS8_5units1sELin1ELi1EEEEE @3278
    _ZN4inet13physicallayer14Ieee80211HtmcsC2EjPKNS0_23Ieee80211OfdmModulationES4_S4_S4_PKNS0_26Ieee80211ConvolutionalCodeENS_5units5valueIdNS8_3powINS8_5units1sELin1ELi1EEEEE @3279
    _ZN4inet13physicallayer14Ieee80211HtmcsD0Ev @3280
    _ZN4inet13physicallayer14Ieee80211HtmcsD1Ev @3281
    _ZN4inet13physicallayer14Ieee80211HtmcsD2Ev @3282
    _ZN4inet13physicallayer14Ieee80211Radio10initializeEi @3283
    _ZN4inet13physicallayer14Ieee80211Radio10setChannelEPKNS0_16Ieee80211ChannelE @3284
    _ZN4inet13physicallayer14Ieee80211Radio10setModeSetEPKNS0_16Ieee80211ModeSetE @3285
    _ZN4inet13physicallayer14Ieee80211Radio16setChannelNumberEi @3286
    _ZN4inet13physicallayer14Ieee80211Radio18handleUpperCommandEPN7omnetpp8cMessageE @3287
    _ZN4inet13physicallayer14Ieee80211Radio25radioChannelChangedSignalE @3288 DATA
    _ZN4inet13physicallayer14Ieee80211Radio28popIeee80211PhyHeaderAtFrontEPNS_6PacketENS_5units5valueIxNS4_5units1bEEEi @3289
    _ZN4inet13physicallayer14Ieee80211Radio29peekIeee80211PhyHeaderAtFrontEPKNS_6PacketENS_5units5valueIxNS5_5units1bEEEi @3290
    _ZN4inet13physicallayer14Ieee80211Radio7setBandEPKNS0_14IIeee80211BandE @3291
    _ZN4inet13physicallayer14Ieee80211Radio7setModeEPKNS0_14IIeee80211ModeE @3292
    _ZN4inet13physicallayer14Ieee80211RadioC1Ev @3293
    _ZN4inet13physicallayer14Ieee80211RadioC2Ev @3294
    _ZN4inet13physicallayer14MaskModulationC1Edj @3295
    _ZN4inet13physicallayer14MaskModulationC2Edj @3296
    _ZN4inet13physicallayer14MaskModulationD0Ev @3297
    _ZN4inet13physicallayer14MaskModulationD1Ev @3298
    _ZN4inet13physicallayer14MaskModulationD2Ev @3299
    _ZN4inet13physicallayer14MfskModulationC1Ej @3300
    _ZN4inet13physicallayer14MfskModulationC2Ej @3301
    _ZN4inet13physicallayer14MpskModulationC1Ej @3302
    _ZN4inet13physicallayer14MpskModulationC2Ej @3303
    _ZN4inet13physicallayer14MpskModulationD0Ev @3304
    _ZN4inet13physicallayer14MpskModulationD1Ev @3305
    _ZN4inet13physicallayer14MpskModulationD2Ev @3306
    _ZN4inet13physicallayer14MqamModulationC1Ej @3307
    _ZN4inet13physicallayer14MqamModulationC2Ej @3308
    _ZN4inet13physicallayer14MqamModulationD0Ev @3309
    _ZN4inet13physicallayer14MqamModulationD1Ev @3310
    _ZN4inet13physicallayer14MqamModulationD2Ev @3311
    _ZN4inet13physicallayer14NakagamiFading10initializeEi @3312
    _ZN4inet13physicallayer14NakagamiFadingC1Ev @3313
    _ZN4inet13physicallayer14NakagamiFadingC2Ev @3314
    _ZN4inet13physicallayer14QpskModulation13constellationE @3315 DATA
    _ZN4inet13physicallayer14QpskModulation9singletonE @3316 DATA
    _ZN4inet13physicallayer14QpskModulationC1Ev @3317
    _ZN4inet13physicallayer14QpskModulationC2Ev @3318
    _ZN4inet13physicallayer14SignalBitModelC1ENS_5units5valueIxNS2_5units1bEEENS3_IdNS2_7composeIS5_NS2_3powINS4_1sELin1ELi1EEEEEEES6_SC_PKNS_9BitVectorE @3319
    _ZN4inet13physicallayer14SignalBitModelC2ENS_5units5valueIxNS2_5units1bEEENS3_IdNS2_7composeIS5_NS2_3powINS4_1sELin1ELi1EEEEEEES6_SC_PKNS_9BitVectorE @3320
    _ZN4inet13physicallayer14SignalBitModelD0Ev @3321
    _ZN4inet13physicallayer14SignalBitModelD1Ev @3322
    _ZN4inet13physicallayer14SignalBitModelD2Ev @3323
    _ZN4inet13physicallayer14WirelessSignalC1EPKNS0_13ITransmissionE @3324
    _ZN4inet13physicallayer14WirelessSignalC1ERKS1_ @3325
    _ZN4inet13physicallayer14WirelessSignalC2EPKNS0_13ITransmissionE @3326
    _ZN4inet13physicallayer14WirelessSignalC2ERKS1_ @3327
    _ZN4inet13physicallayer15ApskDemodulator10initializeEi @3328
    _ZN4inet13physicallayer15ApskDemodulatorC1Ev @3329
    _ZN4inet13physicallayer15ApskDemodulatorC2Ev @3330
    _ZN4inet13physicallayer15DbpskModulation9singletonE @3331 DATA
    _ZN4inet13physicallayer15DbpskModulationC1Ev @3332
    _ZN4inet13physicallayer15DbpskModulationC2Ev @3333
    _ZN4inet13physicallayer15DimensionalSnirC1EPKNS0_20DimensionalReceptionEPKNS0_16DimensionalNoiseE @3334
    _ZN4inet13physicallayer15DimensionalSnirC2EPKNS0_20DimensionalReceptionEPKNS0_16DimensionalNoiseE @3335
    _ZN4inet13physicallayer15DqpskModulation9singletonE @3336 DATA
    _ZN4inet13physicallayer15DqpskModulationC1Ev @3337
    _ZN4inet13physicallayer15DqpskModulationC2Ev @3338
    _ZN4inet13physicallayer15Ieee80211HtCodeC1EPKNS0_26Ieee80211ConvolutionalCodeEPKNS0_23Ieee80211HtInterleavingEPKNS0_18AdditiveScramblingE @3339
    _ZN4inet13physicallayer15Ieee80211HtCodeC2EPKNS0_26Ieee80211ConvolutionalCodeEPKNS0_23Ieee80211HtInterleavingEPKNS0_18AdditiveScramblingE @3340
    _ZN4inet13physicallayer15Ieee80211HtCodeD0Ev @3341
    _ZN4inet13physicallayer15Ieee80211HtCodeD1Ev @3342
    _ZN4inet13physicallayer15Ieee80211HtCodeD2Ev @3343
    _ZN4inet13physicallayer15Ieee80211HtModeC1EPKcPKNS0_23Ieee80211HtPreambleModeEPKNS0_19Ieee80211HtDataModeENS1_8BandModeE @3344
    _ZN4inet13physicallayer15Ieee80211HtModeC2EPKcPKNS0_23Ieee80211HtPreambleModeEPKNS0_19Ieee80211HtDataModeENS1_8BandModeE @3345
    _ZN4inet13physicallayer15Ieee80211IrModeC1EPKcPKNS0_23Ieee80211IrPreambleModeEPKNS0_21Ieee80211IrHeaderModeEPKNS0_19Ieee80211IrDataModeE @3346
    _ZN4inet13physicallayer15Ieee80211IrModeC2EPKcPKNS0_23Ieee80211IrPreambleModeEPKNS0_21Ieee80211IrHeaderModeEPKNS0_19Ieee80211IrDataModeE @3347
    _ZN4inet13physicallayer15Ieee80211VhtmcsC1EjPKNS0_16Ieee80211VhtCodeEPKNS0_23Ieee80211OfdmModulationES7_S7_S7_S7_S7_S7_S7_ @3348
    _ZN4inet13physicallayer15Ieee80211VhtmcsC1EjPKNS0_23Ieee80211OfdmModulationEPKNS0_26Ieee80211ConvolutionalCodeENS_5units5valueIdNS8_3powINS8_5units1sELin1ELi1EEEEE @3349
    _ZN4inet13physicallayer15Ieee80211VhtmcsC1EjPKNS0_23Ieee80211OfdmModulationEPKNS0_26Ieee80211ConvolutionalCodeENS_5units5valueIdNS8_3powINS8_5units1sELin1ELi1EEEEEi @3350
    _ZN4inet13physicallayer15Ieee80211VhtmcsC1EjPKNS0_23Ieee80211OfdmModulationES4_PKNS0_26Ieee80211ConvolutionalCodeENS_5units5valueIdNS8_3powINS8_5units1sELin1ELi1EEEEE @3351
    _ZN4inet13physicallayer15Ieee80211VhtmcsC1EjPKNS0_23Ieee80211OfdmModulationES4_S4_PKNS0_26Ieee80211ConvolutionalCodeENS_5units5valueIdNS8_3powINS8_5units1sELin1ELi1EEEEE @3352
    _ZN4inet13physicallayer15Ieee80211VhtmcsC1EjPKNS0_23Ieee80211OfdmModulationES4_S4_S4_PKNS0_26Ieee80211ConvolutionalCodeENS_5units5valueIdNS8_3powINS8_5units1sELin1ELi1EEEEE @3353
    _ZN4inet13physicallayer15Ieee80211VhtmcsC1EjPKNS0_23Ieee80211OfdmModulationES4_S4_S4_S4_PKNS0_26Ieee80211ConvolutionalCodeENS_5units5valueIdNS8_3powINS8_5units1sELin1ELi1EEEEE @3354
    _ZN4inet13physicallayer15Ieee80211VhtmcsC1EjPKNS0_23Ieee80211OfdmModulationES4_S4_S4_S4_S4_PKNS0_26Ieee80211ConvolutionalCodeENS_5units5valueIdNS8_3powINS8_5units1sELin1ELi1EEEEE @3355
    _ZN4inet13physicallayer15Ieee80211VhtmcsC1EjPKNS0_23Ieee80211OfdmModulationES4_S4_S4_S4_S4_S4_PKNS0_26Ieee80211ConvolutionalCodeENS_5units5valueIdNS8_3powINS8_5units1sELin1ELi1EEEEE @3356
    _ZN4inet13physicallayer15Ieee80211VhtmcsC1EjPKNS0_23Ieee80211OfdmModulationES4_S4_S4_S4_S4_S4_S4_PKNS0_26Ieee80211ConvolutionalCodeENS_5units5valueIdNS8_3powINS8_5units1sELin1ELi1EEEEE @3357
    _ZN4inet13physicallayer15Ieee80211VhtmcsC2EjPKNS0_16Ieee80211VhtCodeEPKNS0_23Ieee80211OfdmModulationES7_S7_S7_S7_S7_S7_S7_ @3358
    _ZN4inet13physicallayer15Ieee80211VhtmcsC2EjPKNS0_23Ieee80211OfdmModulationEPKNS0_26Ieee80211ConvolutionalCodeENS_5units5valueIdNS8_3powINS8_5units1sELin1ELi1EEEEE @3359
    _ZN4inet13physicallayer15Ieee80211VhtmcsC2EjPKNS0_23Ieee80211OfdmModulationEPKNS0_26Ieee80211ConvolutionalCodeENS_5units5valueIdNS8_3powINS8_5units1sELin1ELi1EEEEEi @3360
    _ZN4inet13physicallayer15Ieee80211VhtmcsC2EjPKNS0_23Ieee80211OfdmModulationES4_PKNS0_26Ieee80211ConvolutionalCodeENS_5units5valueIdNS8_3powINS8_5units1sELin1ELi1EEEEE @3361
    _ZN4inet13physicallayer15Ieee80211VhtmcsC2EjPKNS0_23Ieee80211OfdmModulationES4_S4_PKNS0_26Ieee80211ConvolutionalCodeENS_5units5valueIdNS8_3powINS8_5units1sELin1ELi1EEEEE @3362
    _ZN4inet13physicallayer15Ieee80211VhtmcsC2EjPKNS0_23Ieee80211OfdmModulationES4_S4_S4_PKNS0_26Ieee80211ConvolutionalCodeENS_5units5valueIdNS8_3powINS8_5units1sELin1ELi1EEEEE @3363
    _ZN4inet13physicallayer15Ieee80211VhtmcsC2EjPKNS0_23Ieee80211OfdmModulationES4_S4_S4_S4_PKNS0_26Ieee80211ConvolutionalCodeENS_5units5valueIdNS8_3powINS8_5units1sELin1ELi1EEEEE @3364
    _ZN4inet13physicallayer15Ieee80211VhtmcsC2EjPKNS0_23Ieee80211OfdmModulationES4_S4_S4_S4_S4_PKNS0_26Ieee80211ConvolutionalCodeENS_5units5valueIdNS8_3powINS8_5units1sELin1ELi1EEEEE @3365
    _ZN4inet13physicallayer15Ieee80211VhtmcsC2EjPKNS0_23Ieee80211OfdmModulationES4_S4_S4_S4_S4_S4_PKNS0_26Ieee80211ConvolutionalCodeENS_5units5valueIdNS8_3powINS8_5units1sELin1ELi1EEEEE @3366
    _ZN4inet13physicallayer15Ieee80211VhtmcsC2EjPKNS0_23Ieee80211OfdmModulationES4_S4_S4_S4_S4_S4_S4_PKNS0_26Ieee80211ConvolutionalCodeENS_5units5valueIdNS8_3powINS8_5units1sELin1ELi1EEEEE @3367
    _ZN4inet13physicallayer15Ieee80211VhtmcsD0Ev @3368
    _ZN4inet13physicallayer15Ieee80211VhtmcsD1Ev @3369
    _ZN4inet13physicallayer15Ieee80211VhtmcsD2Ev @3370
    _ZN4inet13physicallayer15PropagationBase10initializeEi @3371
    _ZN4inet13physicallayer15PropagationBase6finishEv @3372
    _ZN4inet13physicallayer15PropagationBaseC2Ev @3373
    _ZN4inet13physicallayer15Qam16Modulation13constellationE @3374 DATA
    _ZN4inet13physicallayer15Qam16Modulation9singletonE @3375 DATA
    _ZN4inet13physicallayer15Qam16ModulationC1Ev @3376
    _ZN4inet13physicallayer15Qam16ModulationC2Ev @3377
    _ZN4inet13physicallayer15Qam64Modulation13constellationE @3378 DATA
    _ZN4inet13physicallayer15Qam64Modulation9singletonE @3379 DATA
    _ZN4inet13physicallayer15Qam64ModulationC1Ev @3380
    _ZN4inet13physicallayer15Qam64ModulationC2Ev @3381
    _ZN4inet13physicallayer15QbpskModulation13constellationE @3382 DATA
    _ZN4inet13physicallayer15QbpskModulation9singletonE @3383 DATA
    _ZN4inet13physicallayer15QbpskModulationC1Ev @3384
    _ZN4inet13physicallayer15QbpskModulationC2Ev @3385
    _ZN4inet13physicallayer15ReceptionResultC1EPKNS0_10IReceptionEPKSt6vectorIPKNS0_18IReceptionDecisionESaIS8_EEPKNS_6PacketE @3386
    _ZN4inet13physicallayer15ReceptionResultC2EPKNS0_10IReceptionEPKSt6vectorIPKNS0_18IReceptionDecisionESaIS8_EEPKNS_6PacketE @3387
    _ZN4inet13physicallayer15ReceptionResultD0Ev @3388
    _ZN4inet13physicallayer15ReceptionResultD1Ev @3389
    _ZN4inet13physicallayer15ReceptionResultD2Ev @3390
    _ZN4inet13physicallayer15ScalarReceptionC1EPKNS0_6IRadioEPKNS0_13ITransmissionEN7omnetpp7SimTimeES9_RKNS_5CoordESC_RKNS_10QuaternionESF_NS_5units5valueIdNSG_3powINSG_5units1sELin1ELi1EEEEESM_NSH_IdNSG_7composeINSN_INSN_INSJ_1mENSN_INSJ_2kgENSI_ISK_Lin2ELi1EEEEEEESO_EESL_EEEE @3391
    _ZN4inet13physicallayer15ScalarReceptionC2EPKNS0_6IRadioEPKNS0_13ITransmissionEN7omnetpp7SimTimeES9_RKNS_5CoordESC_RKNS_10QuaternionESF_NS_5units5valueIdNSG_3powINSG_5units1sELin1ELi1EEEEESM_NSH_IdNSG_7composeINSN_INSN_INSJ_1mENSN_INSJ_2kgENSI_ISK_Lin2ELi1EEEEEEESO_EESL_EEEE @3392
    _ZN4inet13physicallayer15_4PpmModulation9singletonE @3393 DATA
    _ZN4inet13physicallayer15_4PpmModulationC1Ev @3394
    _ZN4inet13physicallayer15_4PpmModulationC2Ev @3395
    _ZN4inet13physicallayer16CommunicationLog14writeReceptionEPKNS0_6IRadioEPKNS0_15IWirelessSignalE @3396
    _ZN4inet13physicallayer16CommunicationLog17writeTransmissionEPKNS0_6IRadioEPKNS0_15IWirelessSignalE @3397
    _ZN4inet13physicallayer16CommunicationLog4openEv @3398
    _ZN4inet13physicallayer16CommunicationLog5closeEv @3399
    _ZN4inet13physicallayer16DimensionalNoiseC1EN7omnetpp7SimTimeES3_NS_5units5valueIdNS4_3powINS4_5units1sELin1ELi1EEEEESA_RKNS_12IntrusivePtrIKNS_4math9IFunctionINS5_IdNS4_7composeINSE_INSE_INSE_INS7_1mENSE_INS7_2kgENS6_IS8_Lin2ELi1EEEEEEESF_EES9_EENS6_IS9_Lin1ELi1EEEEEEENSC_6DomainIJNS5_IS3_S8_EESA_EEEEEEE @3400
    _ZN4inet13physicallayer16DimensionalNoiseC2EN7omnetpp7SimTimeES3_NS_5units5valueIdNS4_3powINS4_5units1sELin1ELi1EEEEESA_RKNS_12IntrusivePtrIKNS_4math9IFunctionINS5_IdNS4_7composeINSE_INSE_INSE_INS7_1mENSE_INS7_2kgENS6_IS8_Lin2ELi1EEEEEEESF_EES9_EENS6_IS9_Lin1ELi1EEEEEEENSC_6DomainIJNS5_IS3_S8_EESA_EEEEEEE @3401
    _ZN4inet13physicallayer16FlatReceiverBase10initializeEi @3402
    _ZN4inet13physicallayer16FlatReceiverBaseC1Ev @3403
    _ZN4inet13physicallayer16FlatReceiverBaseC2Ev @3404
    _ZN4inet13physicallayer16Ieee80211ChannelC1EPKNS0_14IIeee80211BandEi @3405
    _ZN4inet13physicallayer16Ieee80211ChannelC2EPKNS0_14IIeee80211BandEi @3406
    _ZN4inet13physicallayer16Ieee80211ModeInd12parsimUnpackEPN7omnetpp11cCommBufferE @3407
    _ZN4inet13physicallayer16Ieee80211ModeInd4copyERKS1_ @3408
    _ZN4inet13physicallayer16Ieee80211ModeIndC1ERKS1_ @3409
    _ZN4inet13physicallayer16Ieee80211ModeIndC1Ev @3410
    _ZN4inet13physicallayer16Ieee80211ModeIndC2ERKS1_ @3411
    _ZN4inet13physicallayer16Ieee80211ModeIndC2Ev @3412
    _ZN4inet13physicallayer16Ieee80211ModeIndD0Ev @3413
    _ZN4inet13physicallayer16Ieee80211ModeIndD1Ev @3414
    _ZN4inet13physicallayer16Ieee80211ModeIndD2Ev @3415
    _ZN4inet13physicallayer16Ieee80211ModeIndaSERKS1_ @3416
    _ZN4inet13physicallayer16Ieee80211ModeReq12parsimUnpackEPN7omnetpp11cCommBufferE @3417
    _ZN4inet13physicallayer16Ieee80211ModeReq4copyERKS1_ @3418
    _ZN4inet13physicallayer16Ieee80211ModeReqC1ERKS1_ @3419
    _ZN4inet13physicallayer16Ieee80211ModeReqC1Ev @3420
    _ZN4inet13physicallayer16Ieee80211ModeReqC2ERKS1_ @3421
    _ZN4inet13physicallayer16Ieee80211ModeReqC2Ev @3422
    _ZN4inet13physicallayer16Ieee80211ModeReqD0Ev @3423
    _ZN4inet13physicallayer16Ieee80211ModeReqD1Ev @3424
    _ZN4inet13physicallayer16Ieee80211ModeReqD2Ev @3425
    _ZN4inet13physicallayer16Ieee80211ModeReqaSERKS1_ @3426
    _ZN4inet13physicallayer16Ieee80211ModeSet10getModeSetEPKc @3427
    _ZN4inet13physicallayer16Ieee80211ModeSet11findModeSetEPKc @3428
    _ZN4inet13physicallayer16Ieee80211ModeSet8modeSetsE @3429 DATA
    _ZN4inet13physicallayer16Ieee80211ModeSetC1EPKcSt6vectorINS1_5EntryESaIS5_EE @3430
    _ZN4inet13physicallayer16Ieee80211ModeSetC2EPKcSt6vectorINS1_5EntryESaIS5_EE @3431
    _ZN4inet13physicallayer16Ieee80211VhtCodeC1EPKNS0_26Ieee80211ConvolutionalCodeEPKNS0_24Ieee80211VhtInterleavingEPKNS0_18AdditiveScramblingE @3432
    _ZN4inet13physicallayer16Ieee80211VhtCodeC2EPKNS0_26Ieee80211ConvolutionalCodeEPKNS0_24Ieee80211VhtInterleavingEPKNS0_18AdditiveScramblingE @3433
    _ZN4inet13physicallayer16Ieee80211VhtCodeD0Ev @3434
    _ZN4inet13physicallayer16Ieee80211VhtCodeD1Ev @3435
    _ZN4inet13physicallayer16Ieee80211VhtCodeD2Ev @3436
    _ZN4inet13physicallayer16Ieee80211VhtModeC1EPKcPKNS0_24Ieee80211VhtPreambleModeEPKNS0_20Ieee80211VhtDataModeENS1_8BandModeE @3437
    _ZN4inet13physicallayer16Ieee80211VhtModeC2EPKcPKNS0_24Ieee80211VhtPreambleModeEPKNS0_20Ieee80211VhtDataModeENS1_8BandModeE @3438
    _ZN4inet13physicallayer16IsotropicAntennaC1Ev @3439
    _ZN4inet13physicallayer16IsotropicAntennaC2Ev @3440
    _ZN4inet13physicallayer16LayeredReceptionC1EPKNS0_21IReceptionAnalogModelEPKNS0_6IRadioEPKNS0_13ITransmissionEN7omnetpp7SimTimeESC_RKNS_5CoordESF_RKNS_10QuaternionESI_ @3441
    _ZN4inet13physicallayer16LayeredReceptionC2EPKNS0_21IReceptionAnalogModelEPKNS0_6IRadioEPKNS0_13ITransmissionEN7omnetpp7SimTimeESC_RKNS_5CoordESF_RKNS_10QuaternionESI_ @3442
    _ZN4inet13physicallayer16LayeredReceptionD0Ev @3443
    _ZN4inet13physicallayer16LayeredReceptionD1Ev @3444
    _ZN4inet13physicallayer16LayeredReceptionD2Ev @3445
    _ZN4inet13physicallayer16MediumLimitCache10initializeEi @3446
    _ZN4inet13physicallayer16MediumLimitCache11removeRadioEPKNS0_6IRadioE @3447
    _ZN4inet13physicallayer16MediumLimitCache12updateLimitsEv @3448
    _ZN4inet13physicallayer16MediumLimitCache8addRadioEPKNS0_6IRadioE @3449
    _ZN4inet13physicallayer16MediumLimitCacheC1Ev @3450
    _ZN4inet13physicallayer16MediumLimitCacheC2Ev @3451
    _ZN4inet13physicallayer16ParabolicAntenna10initializeEi @3452
    _ZN4inet13physicallayer16ParabolicAntenna11AntennaGainC1EddNS_5units5valueIdNS3_6fscaleINS3_5units3radEXadL_ZNS6_12rad2degScaleEvEEEEEE @3453
    _ZN4inet13physicallayer16ParabolicAntenna11AntennaGainC2EddNS_5units5valueIdNS3_6fscaleINS3_5units3radEXadL_ZNS6_12rad2degScaleEvEEEEEE @3454
    _ZN4inet13physicallayer16ParabolicAntennaC1Ev @3455
    _ZN4inet13physicallayer16ParabolicAntennaC2Ev @3456
    _ZN4inet13physicallayer16Qam256Modulation13constellationE @3457 DATA
    _ZN4inet13physicallayer16Qam256Modulation9singletonE @3458 DATA
    _ZN4inet13physicallayer16Qam256ModulationC1Ev @3459
    _ZN4inet13physicallayer16Qam256ModulationC2Ev @3460
    _ZN4inet13physicallayer16SnirReceiverBase10initializeEi @3461
    _ZN4inet13physicallayer16TransmissionBaseC1EPKNS0_6IRadioEPKNS_6PacketEN7omnetpp7SimTimeES9_S9_S9_S9_RKNS_5CoordESC_RKNS_10QuaternionESF_ @3462
    _ZN4inet13physicallayer16TransmissionBaseC2EPKNS0_6IRadioEPKNS_6PacketEN7omnetpp7SimTimeES9_S9_S9_S9_RKNS_5CoordESC_RKNS_10QuaternionESF_ @3463
    _ZN4inet13physicallayer16UnitDiskReceiver10initializeEi @3464
    _ZN4inet13physicallayer16UnitDiskReceiverC1Ev @3465
    _ZN4inet13physicallayer16UnitDiskReceiverC2Ev @3466
    _ZN4inet13physicallayer16_16PpmModulation9singletonE @3467 DATA
    _ZN4inet13physicallayer16_16PpmModulationC1Ev @3468
    _ZN4inet13physicallayer16_16PpmModulationC2Ev @3469
    _ZN4inet13physicallayer16_2GfskModulation9singletonE @3470 DATA
    _ZN4inet13physicallayer16_2GfskModulationC1Ev @3471
    _ZN4inet13physicallayer16_2GfskModulationC2Ev @3472
    _ZN4inet13physicallayer16_4GfskModulation9singletonE @3473 DATA
    _ZN4inet13physicallayer16_4GfskModulationC1Ev @3474
    _ZN4inet13physicallayer16_4GfskModulationC2Ev @3475
    _ZN4inet13physicallayer17AdditiveScramblerC1EPKNS0_18AdditiveScramblingE @3476
    _ZN4inet13physicallayer17AdditiveScramblerC2EPKNS0_18AdditiveScramblingE @3477
    _ZN4inet13physicallayer17ConvolutionalCodeC1EPKcS3_S3_iiS3_ @3478
    _ZN4inet13physicallayer17ConvolutionalCodeC2EPKcS3_S3_iiS3_ @3479
    _ZN4inet13physicallayer17EthernetJamSignal12parsimUnpackEPN7omnetpp11cCommBufferE @3480
    _ZN4inet13physicallayer17EthernetJamSignal18setAbortedPkTreeIDEl @3481
    _ZN4inet13physicallayer17EthernetJamSignal4copyERKS1_ @3482
    _ZN4inet13physicallayer17EthernetJamSignalC1EPKcs @3483
    _ZN4inet13physicallayer17EthernetJamSignalC1ERKS1_ @3484
    _ZN4inet13physicallayer17EthernetJamSignalC2EPKcs @3485
    _ZN4inet13physicallayer17EthernetJamSignalC2ERKS1_ @3486
    _ZN4inet13physicallayer17EthernetJamSignalD0Ev @3487
    _ZN4inet13physicallayer17EthernetJamSignalD1Ev @3488
    _ZN4inet13physicallayer17EthernetJamSignalD2Ev @3489
    _ZN4inet13physicallayer17EthernetJamSignalaSERKS1_ @3490
    _ZN4inet13physicallayer17EthernetPhyHeader12parsimUnpackEPN7omnetpp11cCommBufferE @3491
    _ZN4inet13physicallayer17EthernetPhyHeader4copyERKS1_ @3492
    _ZN4inet13physicallayer17EthernetPhyHeaderC1ERKS1_ @3493
    _ZN4inet13physicallayer17EthernetPhyHeaderC1Ev @3494
    _ZN4inet13physicallayer17EthernetPhyHeaderC2ERKS1_ @3495
    _ZN4inet13physicallayer17EthernetPhyHeaderC2Ev @3496
    _ZN4inet13physicallayer17EthernetPhyHeaderD0Ev @3497
    _ZN4inet13physicallayer17EthernetPhyHeaderD1Ev @3498
    _ZN4inet13physicallayer17EthernetPhyHeaderD2Ev @3499
    _ZN4inet13physicallayer17EthernetPhyHeaderaSERKS1_ @3500
    _ZN4inet13physicallayer17FlatReceptionBaseC2EPKNS0_6IRadioEPKNS0_13ITransmissionEN7omnetpp7SimTimeES9_RKNS_5CoordESC_RKNS_10QuaternionESF_NS_5units5valueIdNSG_3powINSG_5units1sELin1ELi1EEEEESM_ @3501
    _ZN4inet13physicallayer17FreeSpacePathLoss10initializeEi @3502
    _ZN4inet13physicallayer17FreeSpacePathLossC1Ev @3503
    _ZN4inet13physicallayer17FreeSpacePathLossC2Ev @3504
    _ZN4inet13physicallayer17GridNeighborCache10initializeEi @3505
    _ZN4inet13physicallayer17GridNeighborCache11removeRadioEPKNS0_6IRadioE @3506
    _ZN4inet13physicallayer17GridNeighborCache13handleMessageEPN7omnetpp8cMessageE @3507
    _ZN4inet13physicallayer17GridNeighborCache14fillCubeVectorEv @3508
    _ZN4inet13physicallayer17GridNeighborCache8addRadioEPKNS0_6IRadioE @3509
    _ZN4inet13physicallayer17GridNeighborCacheC1Ev @3510
    _ZN4inet13physicallayer17GridNeighborCacheC2Ev @3511
    _ZN4inet13physicallayer17GridNeighborCacheD0Ev @3512
    _ZN4inet13physicallayer17GridNeighborCacheD1Ev @3513
    _ZN4inet13physicallayer17GridNeighborCacheD2Ev @3514
    _ZN4inet13physicallayer17IdealObstacleLoss10initializeEi @3515
    _ZN4inet13physicallayer17IdealObstacleLoss28TotalObstacleLossComputationC1EPKS1_RKNS_5CoordES7_ @3516
    _ZN4inet13physicallayer17IdealObstacleLoss28TotalObstacleLossComputationC2EPKS1_RKNS_5CoordES7_ @3517
    _ZN4inet13physicallayer17IdealObstacleLossC1Ev @3518
    _ZN4inet13physicallayer17IdealObstacleLossC2Ev @3519
    _ZN4inet13physicallayer17Ieee80211BandBaseC2EPKc @3520
    _ZN4inet13physicallayer17Ieee80211DsssModeC1EPKcPKNS0_25Ieee80211DsssPreambleModeEPKNS0_23Ieee80211DsssHeaderModeEPKNS0_21Ieee80211DsssDataModeE @3521
    _ZN4inet13physicallayer17Ieee80211DsssModeC2EPKcPKNS0_25Ieee80211DsssPreambleModeEPKNS0_23Ieee80211DsssHeaderModeEPKNS0_21Ieee80211DsssDataModeE @3522
    _ZN4inet13physicallayer17Ieee80211FhssModeC1EPKcPKNS0_25Ieee80211FhssPreambleModeEPKNS0_23Ieee80211FhssHeaderModeEPKNS0_21Ieee80211FhssDataModeE @3523
    _ZN4inet13physicallayer17Ieee80211FhssModeC2EPKcPKNS0_25Ieee80211FhssPreambleModeEPKNS0_23Ieee80211FhssHeaderModeEPKNS0_21Ieee80211FhssDataModeE @3524
    _ZN4inet13physicallayer17Ieee80211OfdmCodeC1EPKNS0_17ConvolutionalCodeEPKNS0_25Ieee80211OfdmInterleavingEPKNS0_18AdditiveScramblingE @3525
    _ZN4inet13physicallayer17Ieee80211OfdmCodeC2EPKNS0_17ConvolutionalCodeEPKNS0_25Ieee80211OfdmInterleavingEPKNS0_18AdditiveScramblingE @3526
    _ZN4inet13physicallayer17Ieee80211OfdmModeC1EPKcPKNS0_25Ieee80211OfdmPreambleModeEPKNS0_23Ieee80211OfdmSignalModeEPKNS0_21Ieee80211OfdmDataModeENS_5units5valueIdNSD_3powINSD_5units1sELin1ELi1EEEEESJ_ @3527
    _ZN4inet13physicallayer17Ieee80211OfdmModeC2EPKcPKNS0_25Ieee80211OfdmPreambleModeEPKNS0_23Ieee80211OfdmSignalModeEPKNS0_21Ieee80211OfdmDataModeENS_5units5valueIdNSD_3powINSD_5units1sELin1ELi1EEEEESJ_ @3528
    _ZN4inet13physicallayer17ListeningDecisionC1EPKNS0_10IListeningEb @3529
    _ZN4inet13physicallayer17ListeningDecisionC2EPKNS0_10IListeningEb @3530
    _ZN4inet13physicallayer17PhysicalLayerBase10initializeEi @3531
    _ZN4inet13physicallayer17PhysicalLayerBase12handleSignalEPNS0_14WirelessSignalE @3532
    _ZN4inet13physicallayer17PhysicalLayerBase18handleLowerMessageEPN7omnetpp8cMessageE @3533
    _ZN4inet13physicallayer17PhysicalLayerBase6sendUpEPN7omnetpp8cMessageE @3534
    _ZN4inet13physicallayer17PpmModulationBaseC1Ej @3535
    _ZN4inet13physicallayer17PpmModulationBaseC2Ej @3536
    _ZN4inet13physicallayer17Qam1024Modulation13constellationE @3537 DATA
    _ZN4inet13physicallayer17Qam1024Modulation9singletonE @3538 DATA
    _ZN4inet13physicallayer17Qam1024ModulationC1Ev @3539
    _ZN4inet13physicallayer17Qam1024ModulationC2Ev @3540
    _ZN4inet13physicallayer17ReceptionBitModelC1ENS_5units5valueIxNS2_5units1bEEENS3_IdNS2_7composeIS5_NS2_3powINS4_1sELin1ELi1EEEEEEES6_SC_PKNS_9BitVectorEd @3541
    _ZN4inet13physicallayer17ReceptionBitModelC2ENS_5units5valueIxNS2_5units1bEEENS3_IdNS2_7composeIS5_NS2_3powINS4_1sELin1ELi1EEEEEEES6_SC_PKNS_9BitVectorEd @3542
    _ZN4inet13physicallayer17ReceptionDecisionC1EPKNS0_10IReceptionENS0_12IRadioSignal10SignalPartEbbb @3543
    _ZN4inet13physicallayer17ReceptionDecisionC2EPKNS0_10IReceptionENS0_12IRadioSignal10SignalPartEbbb @3544
    _ZN4inet13physicallayer17SignalAnalogModelC1EN7omnetpp7SimTimeE @3545
    _ZN4inet13physicallayer17SignalAnalogModelC2EN7omnetpp7SimTimeE @3546
    _ZN4inet13physicallayer17SignalPacketModelC1EPKNS_6PacketENS_5units5valueIdNS5_7composeINS5_5units1bENS5_3powINS8_1sELin1ELi1EEEEEEE @3547
    _ZN4inet13physicallayer17SignalPacketModelC2EPKNS_6PacketENS_5units5valueIdNS5_7composeINS5_5units1bENS5_3powINS8_1sELin1ELi1EEEEEEE @3548
    _ZN4inet13physicallayer17SignalSampleModelC1EidPKSt6vectorINS_5units5valueIdNS3_7composeINS5_INS5_INS3_5units1mENS5_INS6_2kgENS3_3powINS6_1sELin2ELi1EEEEEEES7_EENS9_ISA_Lin1ELi1EEEEEEESaISH_EE @3549
    _ZN4inet13physicallayer17SignalSampleModelC2EidPKSt6vectorINS_5units5valueIdNS3_7composeINS5_INS5_INS3_5units1mENS5_INS6_2kgENS3_3powINS6_1sELin2ELi1EEEEEEES7_EENS9_ISA_Lin1ELi1EEEEEEESaISH_EE @3550
    _ZN4inet13physicallayer17SignalSampleModelD0Ev @3551
    _ZN4inet13physicallayer17SignalSampleModelD1Ev @3552
    _ZN4inet13physicallayer17SignalSampleModelD2Ev @3553
    _ZN4inet13physicallayer17SignalSymbolModelC1EididPKSt6vectorIPKNS0_7ISymbolESaIS5_EE @3554
    _ZN4inet13physicallayer17SignalSymbolModelC2EididPKSt6vectorIPKNS0_7ISymbolESaIS5_EE @3555
    _ZN4inet13physicallayer17SignalSymbolModelD0Ev @3556
    _ZN4inet13physicallayer17SignalSymbolModelD1Ev @3557
    _ZN4inet13physicallayer17SignalSymbolModelD2Ev @3558
    _ZN4inet13physicallayer17UnitDiskListeningC1EPKNS0_6IRadioEN7omnetpp7SimTimeES6_NS_5CoordES7_ @3559
    _ZN4inet13physicallayer17UnitDiskListeningC2EPKNS0_6IRadioEN7omnetpp7SimTimeES6_NS_5CoordES7_ @3560
    _ZN4inet13physicallayer17UnitDiskReceptionC1EPKNS0_6IRadioEPKNS0_13ITransmissionEN7omnetpp7SimTimeES9_RKNS_5CoordESC_RKNS_10QuaternionESF_NS1_5PowerE @3561
    _ZN4inet13physicallayer17UnitDiskReceptionC2EPKNS0_6IRadioEPKNS0_13ITransmissionEN7omnetpp7SimTimeES9_RKNS_5CoordESC_RKNS_10QuaternionESF_NS1_5PowerE @3562
    _ZN4inet13physicallayer18AdditiveScramblingC1ERKNS_14ShortBitVectorES4_ @3563
    _ZN4inet13physicallayer18AdditiveScramblingC2ERKNS_14ShortBitVectorES4_ @3564
    _ZN4inet13physicallayer18ApskModulationBase14findModulationEPKc @3565
    _ZN4inet13physicallayer18ApskModulationBaseC2EPKSt6vectorINS0_10ApskSymbolESaIS3_EE @3566
    _ZN4inet13physicallayer18ApskScalarReceiverC1Ev @3567
    _ZN4inet13physicallayer18ApskScalarReceiverC2Ev @3568
    _ZN4inet13physicallayer18BreakpointPathLoss10initializeEi @3569
    _ZN4inet13physicallayer18BreakpointPathLossC1Ev @3570
    _ZN4inet13physicallayer18BreakpointPathLossC2Ev @3571
    _ZN4inet13physicallayer18ConvolutionalCoder14initParametersEv @3572
    _ZN4inet13physicallayer18ConvolutionalCoder17memoryAllocationsEv @3573
    _ZN4inet13physicallayer18ConvolutionalCoder18computeMemorySizesEv @3574
    _ZN4inet13physicallayer18ConvolutionalCoder20computeMemorySizeSumEv @3575
    _ZN4inet13physicallayer18ConvolutionalCoder21computeNumberOfStatesEv @3576
    _ZN4inet13physicallayer18ConvolutionalCoder23computeStateTransitionsEv @3577
    _ZN4inet13physicallayer18ConvolutionalCoder25setTransferFunctionMatrixERSt6vectorIS2_IiSaIiEESaIS4_EE @3578
    _ZN4inet13physicallayer18ConvolutionalCoder28computeOutputAndInputSymbolsEv @3579
    _ZN4inet13physicallayer18ConvolutionalCoder33computeHammingDistanceLookupTableEv @3580
    _ZN4inet13physicallayer18ConvolutionalCoder34computeDecimalToOutputSymbolVectorEv @3581
    _ZN4inet13physicallayer18ConvolutionalCoder36computeNumberOfInputAndOutputSymbolsEv @3582
    _ZN4inet13physicallayer18ConvolutionalCoderC1EPKNS0_17ConvolutionalCodeE @3583
    _ZN4inet13physicallayer18ConvolutionalCoderC2EPKNS0_17ConvolutionalCodeE @3584
    _ZN4inet13physicallayer18ConvolutionalCoderD0Ev @3585
    _ZN4inet13physicallayer18ConvolutionalCoderD1Ev @3586
    _ZN4inet13physicallayer18ConvolutionalCoderD2Ev @3587
    _ZN4inet13physicallayer18DpskModulationBaseC1Ej @3588
    _ZN4inet13physicallayer18DpskModulationBaseC2Ej @3589
    _ZN4inet13physicallayer18EthernetSignalBase10setBitrateEd @3590
    _ZN4inet13physicallayer18EthernetSignalBase12parsimUnpackEPN7omnetpp11cCommBufferE @3591
    _ZN4inet13physicallayer18EthernetSignalBase19setSrcMacFullDuplexEb @3592
    _ZN4inet13physicallayer18EthernetSignalBase4copyERKS1_ @3593
    _ZN4inet13physicallayer18EthernetSignalBaseC1EPKcs @3594
    _ZN4inet13physicallayer18EthernetSignalBaseC1ERKS1_ @3595
    _ZN4inet13physicallayer18EthernetSignalBaseC2EPKcs @3596
    _ZN4inet13physicallayer18EthernetSignalBaseC2ERKS1_ @3597
    _ZN4inet13physicallayer18EthernetSignalBaseD0Ev @3598
    _ZN4inet13physicallayer18EthernetSignalBaseD1Ev @3599
    _ZN4inet13physicallayer18EthernetSignalBaseD2Ev @3600
    _ZN4inet13physicallayer18EthernetSignalBaseaSERKS1_ @3601
    _ZN4inet13physicallayer18GfskModulationBaseC1Ej @3602
    _ZN4inet13physicallayer18GfskModulationBaseC2Ej @3603
    _ZN4inet13physicallayer18Ieee80211OfdmRadioC1Ev @3604
    _ZN4inet13physicallayer18Ieee80211OfdmRadioC2Ev @3605
    _ZN4inet13physicallayer18Ieee80211PhyHeader12parsimUnpackEPN7omnetpp11cCommBufferE @3606
    _ZN4inet13physicallayer18Ieee80211PhyHeader14setLengthFieldENS_5units5valueIxNS2_8intscaleINS2_5units1bELi1ELi8EEEEE @3607
    _ZN4inet13physicallayer18Ieee80211PhyHeader4copyERKS1_ @3608
    _ZN4inet13physicallayer18Ieee80211PhyHeaderC1ERKS1_ @3609
    _ZN4inet13physicallayer18Ieee80211PhyHeaderC1Ev @3610
    _ZN4inet13physicallayer18Ieee80211PhyHeaderC2ERKS1_ @3611
    _ZN4inet13physicallayer18Ieee80211PhyHeaderC2Ev @3612
    _ZN4inet13physicallayer18Ieee80211PhyHeaderD0Ev @3613
    _ZN4inet13physicallayer18Ieee80211PhyHeaderD1Ev @3614
    _ZN4inet13physicallayer18Ieee80211PhyHeaderD2Ev @3615
    _ZN4inet13physicallayer18Ieee80211PhyHeaderaSERKS1_ @3616
    _ZN4inet13physicallayer18LogNormalShadowing10initializeEi @3617
    _ZN4inet13physicallayer18LogNormalShadowingC1Ev @3618
    _ZN4inet13physicallayer18LogNormalShadowingC2Ev @3619
    _ZN4inet13physicallayer18MqamModulationBaseC1EdPKSt6vectorINS0_10ApskSymbolESaIS3_EE @3620
    _ZN4inet13physicallayer18MqamModulationBaseC2EdPKSt6vectorINS0_10ApskSymbolESaIS3_EE @3621
    _ZN4inet13physicallayer18ScalarTransmissionC1EPKNS0_6IRadioEPKNS_6PacketEN7omnetpp7SimTimeES9_S9_S9_S9_RKNS_5CoordESC_RKNS_10QuaternionESF_PKNS0_11IModulationENS_5units5valueIxNSJ_5units1bEEESN_NSK_IdNSJ_3powINSL_1sELin1ELi1EEEEESR_NSK_IdNSJ_7composeISM_SQ_EEEENSK_IdNSS_INSS_INSS_INSL_1mENSS_INSL_2kgENSO_ISP_Lin2ELi1EEEEEEESV_EESQ_EEEE @3622
    _ZN4inet13physicallayer18ScalarTransmissionC2EPKNS0_6IRadioEPKNS_6PacketEN7omnetpp7SimTimeES9_S9_S9_S9_RKNS_5CoordESC_RKNS_10QuaternionESF_PKNS0_11IModulationENS_5units5valueIxNSJ_5units1bEEESN_NSK_IdNSJ_3powINSL_1sELin1ELi1EEEEESR_NSK_IdNSJ_7composeISM_SQ_EEEENSK_IdNSS_INSS_INSS_INSL_1mENSS_INSL_2kgENSO_ISP_Lin2ELi1EEEEEEESV_EESQ_EEEE @3623
    _ZN4inet13physicallayer18TwoRayInterference10initializeEi @3624
    _ZN4inet13physicallayer18TwoRayInterferenceC1Ev @3625
    _ZN4inet13physicallayer18TwoRayInterferenceC2Ev @3626
    _ZN4inet13physicallayer19ApskLayeredReceiver10initializeEi @3627
    _ZN4inet13physicallayer19ApskLayeredReceiverC1Ev @3628
    _ZN4inet13physicallayer19ApskLayeredReceiverC2Ev @3629
    _ZN4inet13physicallayer19ConstantGainAntenna10initializeEi @3630
    _ZN4inet13physicallayer19ConstantGainAntennaC1Ev @3631
    _ZN4inet13physicallayer19ConstantGainAntennaC2Ev @3632
    _ZN4inet13physicallayer19FlatTransmitterBase10initializeEi @3633
    _ZN4inet13physicallayer19FlatTransmitterBaseC2Ev @3634
    _ZN4inet13physicallayer19Ieee80211ChannelInd12parsimUnpackEPN7omnetpp11cCommBufferE @3635
    _ZN4inet13physicallayer19Ieee80211ChannelInd4copyERKS1_ @3636
    _ZN4inet13physicallayer19Ieee80211ChannelIndC1ERKS1_ @3637
    _ZN4inet13physicallayer19Ieee80211ChannelIndC1Ev @3638
    _ZN4inet13physicallayer19Ieee80211ChannelIndC2ERKS1_ @3639
    _ZN4inet13physicallayer19Ieee80211ChannelIndC2Ev @3640
    _ZN4inet13physicallayer19Ieee80211ChannelIndD0Ev @3641
    _ZN4inet13physicallayer19Ieee80211ChannelIndD1Ev @3642
    _ZN4inet13physicallayer19Ieee80211ChannelIndD2Ev @3643
    _ZN4inet13physicallayer19Ieee80211ChannelIndaSERKS1_ @3644
    _ZN4inet13physicallayer19Ieee80211ChannelReq12parsimUnpackEPN7omnetpp11cCommBufferE @3645
    _ZN4inet13physicallayer19Ieee80211ChannelReq4copyERKS1_ @3646
    _ZN4inet13physicallayer19Ieee80211ChannelReqC1ERKS1_ @3647
    _ZN4inet13physicallayer19Ieee80211ChannelReqC1Ev @3648
    _ZN4inet13physicallayer19Ieee80211ChannelReqC2ERKS1_ @3649
    _ZN4inet13physicallayer19Ieee80211ChannelReqC2Ev @3650
    _ZN4inet13physicallayer19Ieee80211ChannelReqD0Ev @3651
    _ZN4inet13physicallayer19Ieee80211ChannelReqD1Ev @3652
    _ZN4inet13physicallayer19Ieee80211ChannelReqD2Ev @3653
    _ZN4inet13physicallayer19Ieee80211ChannelReqaSERKS1_ @3654
    _ZN4inet13physicallayer19Ieee80211HrDsssModeC1EPKcPKNS0_27Ieee80211HrDsssPreambleModeEPKNS0_25Ieee80211HrDsssHeaderModeEPKNS0_23Ieee80211HrDsssDataModeE @3655
    _ZN4inet13physicallayer19Ieee80211HrDsssModeC2EPKcPKNS0_27Ieee80211HrDsssPreambleModeEPKNS0_25Ieee80211HrDsssHeaderModeEPKNS0_23Ieee80211HrDsssDataModeE @3656
    _ZN4inet13physicallayer19Ieee80211HtDataModeC1EPKNS0_14Ieee80211HtmcsENS_5units5valueIdNS5_3powINS5_5units1sELin1ELi1EEEEENS0_19Ieee80211HtModeBase17GuardIntervalTypeE @3657
    _ZN4inet13physicallayer19Ieee80211HtDataModeC2EPKNS0_14Ieee80211HtmcsENS_5units5valueIdNS5_3powINS5_5units1sELin1ELi1EEEEENS0_19Ieee80211HtModeBase17GuardIntervalTypeE @3658
    _ZN4inet13physicallayer19Ieee80211HtModeBaseC2EjjNS_5units5valueIdNS2_3powINS2_5units1sELin1ELi1EEEEENS1_17GuardIntervalTypeE @3659
    _ZN4inet13physicallayer19Ieee80211HtmcsTable13htMcs0BW20MHzE @3660 DATA
    _ZN4inet13physicallayer19Ieee80211HtmcsTable13htMcs0BW40MHzE @3661 DATA
    _ZN4inet13physicallayer19Ieee80211HtmcsTable13htMcs1BW20MHzE @3662 DATA
    _ZN4inet13physicallayer19Ieee80211HtmcsTable13htMcs1BW40MHzE @3663 DATA
    _ZN4inet13physicallayer19Ieee80211HtmcsTable13htMcs2BW20MHzE @3664 DATA
    _ZN4inet13physicallayer19Ieee80211HtmcsTable13htMcs2BW40MHzE @3665 DATA
    _ZN4inet13physicallayer19Ieee80211HtmcsTable13htMcs3BW20MHzE @3666 DATA
    _ZN4inet13physicallayer19Ieee80211HtmcsTable13htMcs3BW40MHzE @3667 DATA
    _ZN4inet13physicallayer19Ieee80211HtmcsTable13htMcs4BW20MHzE @3668 DATA
    _ZN4inet13physicallayer19Ieee80211HtmcsTable13htMcs4BW40MHzE @3669 DATA
    _ZN4inet13physicallayer19Ieee80211HtmcsTable13htMcs5BW20MHzE @3670 DATA
    _ZN4inet13physicallayer19Ieee80211HtmcsTable13htMcs5BW40MHzE @3671 DATA
    _ZN4inet13physicallayer19Ieee80211HtmcsTable13htMcs6BW20MHzE @3672 DATA
    _ZN4inet13physicallayer19Ieee80211HtmcsTable13htMcs6BW40MHzE @3673 DATA
    _ZN4inet13physicallayer19Ieee80211HtmcsTable13htMcs7BW20MHzE @3674 DATA
    _ZN4inet13physicallayer19Ieee80211HtmcsTable13htMcs7BW40MHzE @3675 DATA
    _ZN4inet13physicallayer19Ieee80211HtmcsTable13htMcs8BW20MHzE @3676 DATA
    _ZN4inet13physicallayer19Ieee80211HtmcsTable13htMcs8BW40MHzE @3677 DATA
    _ZN4inet13physicallayer19Ieee80211HtmcsTable13htMcs9BW20MHzE @3678 DATA
    _ZN4inet13physicallayer19Ieee80211HtmcsTable13htMcs9BW40MHzE @3679 DATA
    _ZN4inet13physicallayer19Ieee80211HtmcsTable14htMcs10BW20MHzE @3680 DATA
    _ZN4inet13physicallayer19Ieee80211HtmcsTable14htMcs10BW40MHzE @3681 DATA
    _ZN4inet13physicallayer19Ieee80211HtmcsTable14htMcs11BW20MHzE @3682 DATA
    _ZN4inet13physicallayer19Ieee80211HtmcsTable14htMcs11BW40MHzE @3683 DATA
    _ZN4inet13physicallayer19Ieee80211HtmcsTable14htMcs12BW20MHzE @3684 DATA
    _ZN4inet13physicallayer19Ieee80211HtmcsTable14htMcs12BW40MHzE @3685 DATA
    _ZN4inet13physicallayer19Ieee80211HtmcsTable14htMcs13BW20MHzE @3686 DATA
    _ZN4inet13physicallayer19Ieee80211HtmcsTable14htMcs13BW40MHzE @3687 DATA
    _ZN4inet13physicallayer19Ieee80211HtmcsTable14htMcs14BW20MHzE @3688 DATA
    _ZN4inet13physicallayer19Ieee80211HtmcsTable14htMcs14BW40MHzE @3689 DATA
    _ZN4inet13physicallayer19Ieee80211HtmcsTable14htMcs15BW20MHzE @3690 DATA
    _ZN4inet13physicallayer19Ieee80211HtmcsTable14htMcs15BW40MHzE @3691 DATA
    _ZN4inet13physicallayer19Ieee80211HtmcsTable14htMcs16BW20MHzE @3692 DATA
    _ZN4inet13physicallayer19Ieee80211HtmcsTable14htMcs16BW40MHzE @3693 DATA
    _ZN4inet13physicallayer19Ieee80211HtmcsTable14htMcs17BW20MHzE @3694 DATA
    _ZN4inet13physicallayer19Ieee80211HtmcsTable14htMcs17BW40MHzE @3695 DATA
    _ZN4inet13physicallayer19Ieee80211HtmcsTable14htMcs18BW20MHzE @3696 DATA
    _ZN4inet13physicallayer19Ieee80211HtmcsTable14htMcs18BW40MHzE @3697 DATA
    _ZN4inet13physicallayer19Ieee80211HtmcsTable14htMcs19BW20MHzE @3698 DATA
    _ZN4inet13physicallayer19Ieee80211HtmcsTable14htMcs19BW40MHzE @3699 DATA
    _ZN4inet13physicallayer19Ieee80211HtmcsTable14htMcs20BW20MHzE @3700 DATA
    _ZN4inet13physicallayer19Ieee80211HtmcsTable14htMcs20BW40MHzE @3701 DATA
    _ZN4inet13physicallayer19Ieee80211HtmcsTable14htMcs21BW20MHzE @3702 DATA
    _ZN4inet13physicallayer19Ieee80211HtmcsTable14htMcs21BW40MHzE @3703 DATA
    _ZN4inet13physicallayer19Ieee80211HtmcsTable14htMcs22BW20MHzE @3704 DATA
    _ZN4inet13physicallayer19Ieee80211HtmcsTable14htMcs22BW40MHzE @3705 DATA
    _ZN4inet13physicallayer19Ieee80211HtmcsTable14htMcs23BW20MHzE @3706 DATA
    _ZN4inet13physicallayer19Ieee80211HtmcsTable14htMcs23BW40MHzE @3707 DATA
    _ZN4inet13physicallayer19Ieee80211HtmcsTable14htMcs24BW20MHzE @3708 DATA
    _ZN4inet13physicallayer19Ieee80211HtmcsTable14htMcs24BW40MHzE @3709 DATA
    _ZN4inet13physicallayer19Ieee80211HtmcsTable14htMcs25BW20MHzE @3710 DATA
    _ZN4inet13physicallayer19Ieee80211HtmcsTable14htMcs25BW40MHzE @3711 DATA
    _ZN4inet13physicallayer19Ieee80211HtmcsTable14htMcs26BW20MHzE @3712 DATA
    _ZN4inet13physicallayer19Ieee80211HtmcsTable14htMcs26BW40MHzE @3713 DATA
    _ZN4inet13physicallayer19Ieee80211HtmcsTable14htMcs27BW20MHzE @3714 DATA
    _ZN4inet13physicallayer19Ieee80211HtmcsTable14htMcs27BW40MHzE @3715 DATA
    _ZN4inet13physicallayer19Ieee80211HtmcsTable14htMcs28BW20MHzE @3716 DATA
    _ZN4inet13physicallayer19Ieee80211HtmcsTable14htMcs28BW40MHzE @3717 DATA
    _ZN4inet13physicallayer19Ieee80211HtmcsTable14htMcs29BW20MHzE @3718 DATA
    _ZN4inet13physicallayer19Ieee80211HtmcsTable14htMcs29BW40MHzE @3719 DATA
    _ZN4inet13physicallayer19Ieee80211HtmcsTable14htMcs30BW20MHzE @3720 DATA
    _ZN4inet13physicallayer19Ieee80211HtmcsTable14htMcs30BW40MHzE @3721 DATA
    _ZN4inet13physicallayer19Ieee80211HtmcsTable14htMcs31BW20MHzE @3722 DATA
    _ZN4inet13physicallayer19Ieee80211HtmcsTable14htMcs31BW40MHzE @3723 DATA
    _ZN4inet13physicallayer19Ieee80211HtmcsTable14htMcs32BW40MHzE @3724 DATA
    _ZN4inet13physicallayer19Ieee80211HtmcsTable14htMcs33BW20MHzE @3725 DATA
    _ZN4inet13physicallayer19Ieee80211HtmcsTable14htMcs33BW40MHzE @3726 DATA
    _ZN4inet13physicallayer19Ieee80211HtmcsTable14htMcs34BW20MHzE @3727 DATA
    _ZN4inet13physicallayer19Ieee80211HtmcsTable14htMcs34BW40MHzE @3728 DATA
    _ZN4inet13physicallayer19Ieee80211HtmcsTable14htMcs35BW20MHzE @3729 DATA
    _ZN4inet13physicallayer19Ieee80211HtmcsTable14htMcs35BW40MHzE @3730 DATA
    _ZN4inet13physicallayer19Ieee80211HtmcsTable14htMcs36BW20MHzE @3731 DATA
    _ZN4inet13physicallayer19Ieee80211HtmcsTable14htMcs36BW40MHzE @3732 DATA
    _ZN4inet13physicallayer19Ieee80211HtmcsTable14htMcs37BW20MHzE @3733 DATA
    _ZN4inet13physicallayer19Ieee80211HtmcsTable14htMcs37BW40MHzE @3734 DATA
    _ZN4inet13physicallayer19Ieee80211HtmcsTable14htMcs38BW20MHzE @3735 DATA
    _ZN4inet13physicallayer19Ieee80211HtmcsTable14htMcs38BW40MHzE @3736 DATA
    _ZN4inet13physicallayer19Ieee80211HtmcsTable14htMcs39BW20MHzE @3737 DATA
    _ZN4inet13physicallayer19Ieee80211HtmcsTable14htMcs39BW40MHzE @3738 DATA
    _ZN4inet13physicallayer19Ieee80211HtmcsTable14htMcs40BW20MHzE @3739 DATA
    _ZN4inet13physicallayer19Ieee80211HtmcsTable14htMcs40BW40MHzE @3740 DATA
    _ZN4inet13physicallayer19Ieee80211HtmcsTable14htMcs41BW20MHzE @3741 DATA
    _ZN4inet13physicallayer19Ieee80211HtmcsTable14htMcs41BW40MHzE @3742 DATA
    _ZN4inet13physicallayer19Ieee80211HtmcsTable14htMcs42BW20MHzE @3743 DATA
    _ZN4inet13physicallayer19Ieee80211HtmcsTable14htMcs42BW40MHzE @3744 DATA
    _ZN4inet13physicallayer19Ieee80211HtmcsTable14htMcs43BW20MHzE @3745 DATA
    _ZN4inet13physicallayer19Ieee80211HtmcsTable14htMcs43BW40MHzE @3746 DATA
    _ZN4inet13physicallayer19Ieee80211HtmcsTable14htMcs44BW20MHzE @3747 DATA
    _ZN4inet13physicallayer19Ieee80211HtmcsTable14htMcs44BW40MHzE @3748 DATA
    _ZN4inet13physicallayer19Ieee80211HtmcsTable14htMcs45BW20MHzE @3749 DATA
    _ZN4inet13physicallayer19Ieee80211HtmcsTable14htMcs45BW40MHzE @3750 DATA
    _ZN4inet13physicallayer19Ieee80211HtmcsTable14htMcs46BW20MHzE @3751 DATA
    _ZN4inet13physicallayer19Ieee80211HtmcsTable14htMcs46BW40MHzE @3752 DATA
    _ZN4inet13physicallayer19Ieee80211HtmcsTable14htMcs47BW20MHzE @3753 DATA
    _ZN4inet13physicallayer19Ieee80211HtmcsTable14htMcs47BW40MHzE @3754 DATA
    _ZN4inet13physicallayer19Ieee80211HtmcsTable14htMcs48BW20MHzE @3755 DATA
    _ZN4inet13physicallayer19Ieee80211HtmcsTable14htMcs48BW40MHzE @3756 DATA
    _ZN4inet13physicallayer19Ieee80211HtmcsTable14htMcs49BW20MHzE @3757 DATA
    _ZN4inet13physicallayer19Ieee80211HtmcsTable14htMcs49BW40MHzE @3758 DATA
    _ZN4inet13physicallayer19Ieee80211HtmcsTable14htMcs50BW20MHzE @3759 DATA
    _ZN4inet13physicallayer19Ieee80211HtmcsTable14htMcs50BW40MHzE @3760 DATA
    _ZN4inet13physicallayer19Ieee80211HtmcsTable14htMcs51BW20MHzE @3761 DATA
    _ZN4inet13physicallayer19Ieee80211HtmcsTable14htMcs51BW40MHzE @3762 DATA
    _ZN4inet13physicallayer19Ieee80211HtmcsTable14htMcs52BW20MHzE @3763 DATA
    _ZN4inet13physicallayer19Ieee80211HtmcsTable14htMcs52BW40MHzE @3764 DATA
    _ZN4inet13physicallayer19Ieee80211HtmcsTable14htMcs53BW20MHzE @3765 DATA
    _ZN4inet13physicallayer19Ieee80211HtmcsTable14htMcs53BW40MHzE @3766 DATA
    _ZN4inet13physicallayer19Ieee80211HtmcsTable14htMcs54BW20MHzE @3767 DATA
    _ZN4inet13physicallayer19Ieee80211HtmcsTable14htMcs54BW40MHzE @3768 DATA
    _ZN4inet13physicallayer19Ieee80211HtmcsTable14htMcs55BW20MHzE @3769 DATA
    _ZN4inet13physicallayer19Ieee80211HtmcsTable14htMcs55BW40MHzE @3770 DATA
    _ZN4inet13physicallayer19Ieee80211HtmcsTable14htMcs56BW20MHzE @3771 DATA
    _ZN4inet13physicallayer19Ieee80211HtmcsTable14htMcs56BW40MHzE @3772 DATA
    _ZN4inet13physicallayer19Ieee80211HtmcsTable14htMcs57BW20MHzE @3773 DATA
    _ZN4inet13physicallayer19Ieee80211HtmcsTable14htMcs57BW40MHzE @3774 DATA
    _ZN4inet13physicallayer19Ieee80211HtmcsTable14htMcs58BW20MHzE @3775 DATA
    _ZN4inet13physicallayer19Ieee80211HtmcsTable14htMcs58BW40MHzE @3776 DATA
    _ZN4inet13physicallayer19Ieee80211HtmcsTable14htMcs59BW20MHzE @3777 DATA
    _ZN4inet13physicallayer19Ieee80211HtmcsTable14htMcs59BW40MHzE @3778 DATA
    _ZN4inet13physicallayer19Ieee80211HtmcsTable14htMcs60BW20MHzE @3779 DATA
    _ZN4inet13physicallayer19Ieee80211HtmcsTable14htMcs60BW40MHzE @3780 DATA
    _ZN4inet13physicallayer19Ieee80211HtmcsTable14htMcs61BW20MHzE @3781 DATA
    _ZN4inet13physicallayer19Ieee80211HtmcsTable14htMcs61BW40MHzE @3782 DATA
    _ZN4inet13physicallayer19Ieee80211HtmcsTable14htMcs62BW20MHzE @3783 DATA
    _ZN4inet13physicallayer19Ieee80211HtmcsTable14htMcs62BW40MHzE @3784 DATA
    _ZN4inet13physicallayer19Ieee80211HtmcsTable14htMcs63BW20MHzE @3785 DATA
    _ZN4inet13physicallayer19Ieee80211HtmcsTable14htMcs63BW40MHzE @3786 DATA
    _ZN4inet13physicallayer19Ieee80211HtmcsTable14htMcs64BW20MHzE @3787 DATA
    _ZN4inet13physicallayer19Ieee80211HtmcsTable14htMcs64BW40MHzE @3788 DATA
    _ZN4inet13physicallayer19Ieee80211HtmcsTable14htMcs65BW20MHzE @3789 DATA
    _ZN4inet13physicallayer19Ieee80211HtmcsTable14htMcs65BW40MHzE @3790 DATA
    _ZN4inet13physicallayer19Ieee80211HtmcsTable14htMcs66BW20MHzE @3791 DATA
    _ZN4inet13physicallayer19Ieee80211HtmcsTable14htMcs66BW40MHzE @3792 DATA
    _ZN4inet13physicallayer19Ieee80211HtmcsTable14htMcs67BW20MHzE @3793 DATA
    _ZN4inet13physicallayer19Ieee80211HtmcsTable14htMcs67BW40MHzE @3794 DATA
    _ZN4inet13physicallayer19Ieee80211HtmcsTable14htMcs68BW20MHzE @3795 DATA
    _ZN4inet13physicallayer19Ieee80211HtmcsTable14htMcs68BW40MHzE @3796 DATA
    _ZN4inet13physicallayer19Ieee80211HtmcsTable14htMcs69BW20MHzE @3797 DATA
    _ZN4inet13physicallayer19Ieee80211HtmcsTable14htMcs69BW40MHzE @3798 DATA
    _ZN4inet13physicallayer19Ieee80211HtmcsTable14htMcs70BW20MHzE @3799 DATA
    _ZN4inet13physicallayer19Ieee80211HtmcsTable14htMcs70BW40MHzE @3800 DATA
    _ZN4inet13physicallayer19Ieee80211HtmcsTable14htMcs71BW20MHzE @3801 DATA
    _ZN4inet13physicallayer19Ieee80211HtmcsTable14htMcs71BW40MHzE @3802 DATA
    _ZN4inet13physicallayer19Ieee80211HtmcsTable14htMcs72BW20MHzE @3803 DATA
    _ZN4inet13physicallayer19Ieee80211HtmcsTable14htMcs72BW40MHzE @3804 DATA
    _ZN4inet13physicallayer19Ieee80211HtmcsTable14htMcs73BW20MHzE @3805 DATA
    _ZN4inet13physicallayer19Ieee80211HtmcsTable14htMcs73BW40MHzE @3806 DATA
    _ZN4inet13physicallayer19Ieee80211HtmcsTable14htMcs74BW20MHzE @3807 DATA
    _ZN4inet13physicallayer19Ieee80211HtmcsTable14htMcs74BW40MHzE @3808 DATA
    _ZN4inet13physicallayer19Ieee80211HtmcsTable14htMcs75BW20MHzE @3809 DATA
    _ZN4inet13physicallayer19Ieee80211HtmcsTable14htMcs75BW40MHzE @3810 DATA
    _ZN4inet13physicallayer19Ieee80211HtmcsTable14htMcs76BW20MHzE @3811 DATA
    _ZN4inet13physicallayer19Ieee80211HtmcsTable14htMcs76BW40MHzE @3812 DATA
    _ZN4inet13physicallayer19Ieee80211IrDataModeC1EPKNS0_17PpmModulationBaseE @3813
    _ZN4inet13physicallayer19Ieee80211IrDataModeC2EPKNS0_17PpmModulationBaseE @3814
    _ZN4inet13physicallayer19Ieee80211OfdmSymbol14pushApskSymbolEPKNS0_10ApskSymbolEi @3815
    _ZN4inet13physicallayer19Ieee802154UwbIrMode15mandatory_pulseE @3816 DATA
    _ZN4inet13physicallayer19Ieee802154UwbIrMode16cfg_mandatory_4ME @3817 DATA
    _ZN4inet13physicallayer19Ieee802154UwbIrMode17cfg_mandatory_16ME @3818 DATA
    _ZN4inet13physicallayer19Ieee802154UwbIrMode3C31E @3819 DATA
    _ZN4inet13physicallayer19Ieee802154UwbIrMode6last_sE @3820 DATA
    _ZN4inet13physicallayer19Ieee802154UwbIrMode7s_arrayE @3821 DATA
    _ZN4inet13physicallayer19Ieee802154UwbIrMode8maxPulseE @3822 DATA
    _ZN4inet13physicallayer19Ieee802154UwbIrMode8shortSFDE @3823 DATA
    _ZN4inet13physicallayer19LayeredTransmissionC1EPKNS0_24ITransmissionPacketModelEPKNS0_21ITransmissionBitModelEPKNS0_24ITransmissionSymbolModelEPKNS0_24ITransmissionSampleModelEPKNS0_24ITransmissionAnalogModelEPKNS0_6IRadioEPKNS_6PacketEN7omnetpp7SimTimeESO_SO_SO_SO_RKNS_5CoordESR_RKNS_10QuaternionESU_ @3824
    _ZN4inet13physicallayer19LayeredTransmissionC2EPKNS0_24ITransmissionPacketModelEPKNS0_21ITransmissionBitModelEPKNS0_24ITransmissionSymbolModelEPKNS0_24ITransmissionSampleModelEPKNS0_24ITransmissionAnalogModelEPKNS0_6IRadioEPKNS_6PacketEN7omnetpp7SimTimeESO_SO_SO_SO_RKNS_5CoordESR_RKNS_10QuaternionESU_ @3825
    _ZN4inet13physicallayer19LayeredTransmissionD0Ev @3826
    _ZN4inet13physicallayer19LayeredTransmissionD1Ev @3827
    _ZN4inet13physicallayer19LayeredTransmissionD2Ev @3828
    _ZN4inet13physicallayer19NarrowbandNoiseBaseC2EN7omnetpp7SimTimeES3_NS_5units5valueIdNS4_3powINS4_5units1sELin1ELi1EEEEESA_ @3829
    _ZN4inet13physicallayer19NarrowbandRadioBase12setBandwidthENS_5units5valueIdNS2_3powINS2_5units1sELin1ELi1EEEEE @3830
    _ZN4inet13physicallayer19NarrowbandRadioBase13setModulationEPKNS0_11IModulationE @3831
    _ZN4inet13physicallayer19NarrowbandRadioBase18handleUpperCommandEPN7omnetpp8cMessageE @3832
    _ZN4inet13physicallayer19NarrowbandRadioBase18setCenterFrequencyENS_5units5valueIdNS2_3powINS2_5units1sELin1ELi1EEEEE @3833
    _ZN4inet13physicallayer19NarrowbandRadioBaseC1Ev @3834
    _ZN4inet13physicallayer19NarrowbandRadioBaseC2Ev @3835
    _ZN4inet13physicallayer19UnitDiskTransmitter10initializeEi @3836
    _ZN4inet13physicallayer19UnitDiskTransmitterC1Ev @3837
    _ZN4inet13physicallayer19UnitDiskTransmitterC2Ev @3838
    _ZN4inet13physicallayer20DimensionalReceptionC1EPKNS0_6IRadioEPKNS0_13ITransmissionEN7omnetpp7SimTimeES9_RKNS_5CoordESC_RKNS_10QuaternionESF_NS_5units5valueIdNSG_3powINSG_5units1sELin1ELi1EEEEESM_RKNS_12IntrusivePtrIKNS_4math9IFunctionINSH_IdNSG_7composeINSQ_INSQ_INSQ_INSJ_1mENSQ_INSJ_2kgENSI_ISK_Lin2ELi1EEEEEEESR_EESL_EENSI_ISL_Lin1ELi1EEEEEEENSO_6DomainIJNSH_IS9_SK_EESM_EEEEEEE @3839
    _ZN4inet13physicallayer20DimensionalReceptionC2EPKNS0_6IRadioEPKNS0_13ITransmissionEN7omnetpp7SimTimeES9_RKNS_5CoordESC_RKNS_10QuaternionESF_NS_5units5valueIdNSG_3powINSG_5units1sELin1ELi1EEEEESM_RKNS_12IntrusivePtrIKNS_4math9IFunctionINSH_IdNSG_7composeINSQ_INSQ_INSQ_INSJ_1mENSQ_INSJ_2kgENSI_ISK_Lin2ELi1EEEEEEESR_EESL_EENSI_ISL_Lin1ELi1EEEEEEENSO_6DomainIJNSH_IS9_SK_EESM_EEEEEEE @3840
    _ZN4inet13physicallayer20FlatTransmissionBaseC2EPKNS0_6IRadioEPKNS_6PacketEN7omnetpp7SimTimeES9_S9_S9_S9_RKNS_5CoordESC_RKNS_10QuaternionESF_NS_5units5valueIxNSG_5units1bEEESK_NSH_IdNSG_7composeISJ_NSG_3powINSI_1sELin1ELi1EEEEEEEPKNS0_11IModulationENSH_IdSO_EESU_ @3841
    _ZN4inet13physicallayer20ITracingObstacleLoss23ObstaclePenetratedEventC1EPKNS_19physicalenvironment15IPhysicalObjectENS_5CoordES7_S7_S7_d @3842
    _ZN4inet13physicallayer20ITracingObstacleLoss23ObstaclePenetratedEventC2EPKNS_19physicalenvironment15IPhysicalObjectENS_5CoordES7_S7_S7_d @3843
    _ZN4inet13physicallayer20ITracingObstacleLoss24obstaclePenetratedSignalE @3844 DATA
    _ZN4inet13physicallayer20Ieee80211ErpOfdmModeC1EPKcbPKNS0_25Ieee80211OfdmPreambleModeEPKNS0_23Ieee80211OfdmSignalModeEPKNS0_21Ieee80211OfdmDataModeE @3845
    _ZN4inet13physicallayer20Ieee80211ErpOfdmModeC2EPKcbPKNS0_25Ieee80211OfdmPreambleModeEPKNS0_23Ieee80211OfdmSignalModeEPKNS0_21Ieee80211OfdmDataModeE @3846
    _ZN4inet13physicallayer20Ieee80211HtPhyHeader12parsimUnpackEPN7omnetpp11cCommBufferE @3847
    _ZN4inet13physicallayer20Ieee80211HtPhyHeader4copyERKS1_ @3848
    _ZN4inet13physicallayer20Ieee80211HtPhyHeaderC1ERKS1_ @3849
    _ZN4inet13physicallayer20Ieee80211HtPhyHeaderC1Ev @3850
    _ZN4inet13physicallayer20Ieee80211HtPhyHeaderC2ERKS1_ @3851
    _ZN4inet13physicallayer20Ieee80211HtPhyHeaderC2Ev @3852
    _ZN4inet13physicallayer20Ieee80211HtPhyHeaderD0Ev @3853
    _ZN4inet13physicallayer20Ieee80211HtPhyHeaderD1Ev @3854
    _ZN4inet13physicallayer20Ieee80211HtPhyHeaderD2Ev @3855
    _ZN4inet13physicallayer20Ieee80211HtPhyHeaderaSERKS1_ @3856
    _ZN4inet13physicallayer20Ieee80211IrPhyHeader10setCrcModeENS_7CrcModeE @3857
    _ZN4inet13physicallayer20Ieee80211IrPhyHeader12parsimUnpackEPN7omnetpp11cCommBufferE @3858
    _ZN4inet13physicallayer20Ieee80211IrPhyHeader4copyERKS1_ @3859
    _ZN4inet13physicallayer20Ieee80211IrPhyHeader6setCrcEt @3860
    _ZN4inet13physicallayer20Ieee80211IrPhyHeaderC1ERKS1_ @3861
    _ZN4inet13physicallayer20Ieee80211IrPhyHeaderC1Ev @3862
    _ZN4inet13physicallayer20Ieee80211IrPhyHeaderC2ERKS1_ @3863
    _ZN4inet13physicallayer20Ieee80211IrPhyHeaderC2Ev @3864
    _ZN4inet13physicallayer20Ieee80211IrPhyHeaderD0Ev @3865
    _ZN4inet13physicallayer20Ieee80211IrPhyHeaderD1Ev @3866
    _ZN4inet13physicallayer20Ieee80211IrPhyHeaderD2Ev @3867
    _ZN4inet13physicallayer20Ieee80211IrPhyHeaderaSERKS1_ @3868
    _ZN4inet13physicallayer20Ieee80211ModeTagBase12parsimUnpackEPN7omnetpp11cCommBufferE @3869
    _ZN4inet13physicallayer20Ieee80211ModeTagBase4copyERKS1_ @3870
    _ZN4inet13physicallayer20Ieee80211ModeTagBase7setModeEPKNS0_14IIeee80211ModeE @3871
    _ZN4inet13physicallayer20Ieee80211ModeTagBaseC1ERKS1_ @3872
    _ZN4inet13physicallayer20Ieee80211ModeTagBaseC1Ev @3873
    _ZN4inet13physicallayer20Ieee80211ModeTagBaseC2ERKS1_ @3874
    _ZN4inet13physicallayer20Ieee80211ModeTagBaseC2Ev @3875
    _ZN4inet13physicallayer20Ieee80211ModeTagBaseD0Ev @3876
    _ZN4inet13physicallayer20Ieee80211ModeTagBaseD1Ev @3877
    _ZN4inet13physicallayer20Ieee80211ModeTagBaseD2Ev @3878
    _ZN4inet13physicallayer20Ieee80211ModeTagBaseaSERKS1_ @3879
    _ZN4inet13physicallayer20Ieee80211OfdmDecoderC1EPKNS0_17Ieee80211OfdmCodeE @3880
    _ZN4inet13physicallayer20Ieee80211OfdmDecoderC2EPKNS0_17Ieee80211OfdmCodeE @3881
    _ZN4inet13physicallayer20Ieee80211OfdmDecoderD0Ev @3882
    _ZN4inet13physicallayer20Ieee80211OfdmDecoderD1Ev @3883
    _ZN4inet13physicallayer20Ieee80211OfdmDecoderD2Ev @3884
    _ZN4inet13physicallayer20Ieee80211OfdmEncoderC1EPKNS0_17Ieee80211OfdmCodeE @3885
    _ZN4inet13physicallayer20Ieee80211OfdmEncoderC2EPKNS0_17Ieee80211OfdmCodeE @3886
    _ZN4inet13physicallayer20Ieee80211OfdmEncoderD0Ev @3887
    _ZN4inet13physicallayer20Ieee80211OfdmEncoderD1Ev @3888
    _ZN4inet13physicallayer20Ieee80211OfdmEncoderD2Ev @3889
    _ZN4inet13physicallayer20Ieee80211PhyPreamble12parsimUnpackEPN7omnetpp11cCommBufferE @3890
    _ZN4inet13physicallayer20Ieee80211PhyPreamble4copyERKS1_ @3891
    _ZN4inet13physicallayer20Ieee80211PhyPreambleC1ERKS1_ @3892
    _ZN4inet13physicallayer20Ieee80211PhyPreambleC1Ev @3893
    _ZN4inet13physicallayer20Ieee80211PhyPreambleC2ERKS1_ @3894
    _ZN4inet13physicallayer20Ieee80211PhyPreambleC2Ev @3895
    _ZN4inet13physicallayer20Ieee80211PhyPreambleD0Ev @3896
    _ZN4inet13physicallayer20Ieee80211PhyPreambleD1Ev @3897
    _ZN4inet13physicallayer20Ieee80211PhyPreambleD2Ev @3898
    _ZN4inet13physicallayer20Ieee80211PhyPreambleaSERKS1_ @3899
    _ZN4inet13physicallayer20Ieee80211VhtDataModeC1EPKNS0_15Ieee80211VhtmcsENS_5units5valueIdNS5_3powINS5_5units1sELin1ELi1EEEEENS0_20Ieee80211VhtModeBase17GuardIntervalTypeE @3900
    _ZN4inet13physicallayer20Ieee80211VhtDataModeC2EPKNS0_15Ieee80211VhtmcsENS_5units5valueIdNS5_3powINS5_5units1sELin1ELi1EEEEENS0_20Ieee80211VhtModeBase17GuardIntervalTypeE @3901
    _ZN4inet13physicallayer20Ieee80211VhtModeBaseC2EjjNS_5units5valueIdNS2_3powINS2_5units1sELin1ELi1EEEEENS1_17GuardIntervalTypeE @3902
    _ZN4inet13physicallayer20Ieee80211VhtmcsTable18vhtMcs0BW20MHzNss1E @3903 DATA
    _ZN4inet13physicallayer20Ieee80211VhtmcsTable18vhtMcs0BW20MHzNss2E @3904 DATA
    _ZN4inet13physicallayer20Ieee80211VhtmcsTable18vhtMcs0BW20MHzNss3E @3905 DATA
    _ZN4inet13physicallayer20Ieee80211VhtmcsTable18vhtMcs0BW20MHzNss4E @3906 DATA
    _ZN4inet13physicallayer20Ieee80211VhtmcsTable18vhtMcs0BW20MHzNss5E @3907 DATA
    _ZN4inet13physicallayer20Ieee80211VhtmcsTable18vhtMcs0BW20MHzNss6E @3908 DATA
    _ZN4inet13physicallayer20Ieee80211VhtmcsTable18vhtMcs0BW20MHzNss7E @3909 DATA
    _ZN4inet13physicallayer20Ieee80211VhtmcsTable18vhtMcs0BW20MHzNss8E @3910 DATA
    _ZN4inet13physicallayer20Ieee80211VhtmcsTable18vhtMcs0BW40MHzNss1E @3911 DATA
    _ZN4inet13physicallayer20Ieee80211VhtmcsTable18vhtMcs0BW40MHzNss2E @3912 DATA
    _ZN4inet13physicallayer20Ieee80211VhtmcsTable18vhtMcs0BW40MHzNss3E @3913 DATA
    _ZN4inet13physicallayer20Ieee80211VhtmcsTable18vhtMcs0BW40MHzNss4E @3914 DATA
    _ZN4inet13physicallayer20Ieee80211VhtmcsTable18vhtMcs0BW40MHzNss5E @3915 DATA
    _ZN4inet13physicallayer20Ieee80211VhtmcsTable18vhtMcs0BW40MHzNss6E @3916 DATA
    _ZN4inet13physicallayer20Ieee80211VhtmcsTable18vhtMcs0BW40MHzNss7E @3917 DATA
    _ZN4inet13physicallayer20Ieee80211VhtmcsTable18vhtMcs0BW40MHzNss8E @3918 DATA
    _ZN4inet13physicallayer20Ieee80211VhtmcsTable18vhtMcs0BW80MHzNss1E @3919 DATA
    _ZN4inet13physicallayer20Ieee80211VhtmcsTable18vhtMcs0BW80MHzNss2E @3920 DATA
    _ZN4inet13physicallayer20Ieee80211VhtmcsTable18vhtMcs0BW80MHzNss3E @3921 DATA
    _ZN4inet13physicallayer20Ieee80211VhtmcsTable18vhtMcs0BW80MHzNss4E @3922 DATA
    _ZN4inet13physicallayer20Ieee80211VhtmcsTable18vhtMcs0BW80MHzNss5E @3923 DATA
    _ZN4inet13physicallayer20Ieee80211VhtmcsTable18vhtMcs0BW80MHzNss6E @3924 DATA
    _ZN4inet13physicallayer20Ieee80211VhtmcsTable18vhtMcs0BW80MHzNss7E @3925 DATA
    _ZN4inet13physicallayer20Ieee80211VhtmcsTable18vhtMcs0BW80MHzNss8E @3926 DATA
    _ZN4inet13physicallayer20Ieee80211VhtmcsTable18vhtMcs1BW20MHzNss1E @3927 DATA
    _ZN4inet13physicallayer20Ieee80211VhtmcsTable18vhtMcs1BW20MHzNss2E @3928 DATA
    _ZN4inet13physicallayer20Ieee80211VhtmcsTable18vhtMcs1BW20MHzNss3E @3929 DATA
    _ZN4inet13physicallayer20Ieee80211VhtmcsTable18vhtMcs1BW20MHzNss4E @3930 DATA
    _ZN4inet13physicallayer20Ieee80211VhtmcsTable18vhtMcs1BW20MHzNss5E @3931 DATA
    _ZN4inet13physicallayer20Ieee80211VhtmcsTable18vhtMcs1BW20MHzNss6E @3932 DATA
    _ZN4inet13physicallayer20Ieee80211VhtmcsTable18vhtMcs1BW20MHzNss7E @3933 DATA
    _ZN4inet13physicallayer20Ieee80211VhtmcsTable18vhtMcs1BW20MHzNss8E @3934 DATA
    _ZN4inet13physicallayer20Ieee80211VhtmcsTable18vhtMcs1BW40MHzNss1E @3935 DATA
    _ZN4inet13physicallayer20Ieee80211VhtmcsTable18vhtMcs1BW40MHzNss2E @3936 DATA
    _ZN4inet13physicallayer20Ieee80211VhtmcsTable18vhtMcs1BW40MHzNss3E @3937 DATA
    _ZN4inet13physicallayer20Ieee80211VhtmcsTable18vhtMcs1BW40MHzNss4E @3938 DATA
    _ZN4inet13physicallayer20Ieee80211VhtmcsTable18vhtMcs1BW40MHzNss5E @3939 DATA
    _ZN4inet13physicallayer20Ieee80211VhtmcsTable18vhtMcs1BW40MHzNss6E @3940 DATA
    _ZN4inet13physicallayer20Ieee80211VhtmcsTable18vhtMcs1BW40MHzNss7E @3941 DATA
    _ZN4inet13physicallayer20Ieee80211VhtmcsTable18vhtMcs1BW40MHzNss8E @3942 DATA
    _ZN4inet13physicallayer20Ieee80211VhtmcsTable18vhtMcs1BW80MHzNss1E @3943 DATA
    _ZN4inet13physicallayer20Ieee80211VhtmcsTable18vhtMcs1BW80MHzNss2E @3944 DATA
    _ZN4inet13physicallayer20Ieee80211VhtmcsTable18vhtMcs1BW80MHzNss3E @3945 DATA
    _ZN4inet13physicallayer20Ieee80211VhtmcsTable18vhtMcs1BW80MHzNss4E @3946 DATA
    _ZN4inet13physicallayer20Ieee80211VhtmcsTable18vhtMcs1BW80MHzNss5E @3947 DATA
    _ZN4inet13physicallayer20Ieee80211VhtmcsTable18vhtMcs1BW80MHzNss6E @3948 DATA
    _ZN4inet13physicallayer20Ieee80211VhtmcsTable18vhtMcs1BW80MHzNss7E @3949 DATA
    _ZN4inet13physicallayer20Ieee80211VhtmcsTable18vhtMcs1BW80MHzNss8E @3950 DATA
    _ZN4inet13physicallayer20Ieee80211VhtmcsTable18vhtMcs2BW20MHzNss1E @3951 DATA
    _ZN4inet13physicallayer20Ieee80211VhtmcsTable18vhtMcs2BW20MHzNss2E @3952 DATA
    _ZN4inet13physicallayer20Ieee80211VhtmcsTable18vhtMcs2BW20MHzNss3E @3953 DATA
    _ZN4inet13physicallayer20Ieee80211VhtmcsTable18vhtMcs2BW20MHzNss4E @3954 DATA
    _ZN4inet13physicallayer20Ieee80211VhtmcsTable18vhtMcs2BW20MHzNss5E @3955 DATA
    _ZN4inet13physicallayer20Ieee80211VhtmcsTable18vhtMcs2BW20MHzNss6E @3956 DATA
    _ZN4inet13physicallayer20Ieee80211VhtmcsTable18vhtMcs2BW20MHzNss7E @3957 DATA
    _ZN4inet13physicallayer20Ieee80211VhtmcsTable18vhtMcs2BW20MHzNss8E @3958 DATA
    _ZN4inet13physicallayer20Ieee80211VhtmcsTable18vhtMcs2BW40MHzNss1E @3959 DATA
    _ZN4inet13physicallayer20Ieee80211VhtmcsTable18vhtMcs2BW40MHzNss2E @3960 DATA
    _ZN4inet13physicallayer20Ieee80211VhtmcsTable18vhtMcs2BW40MHzNss3E @3961 DATA
    _ZN4inet13physicallayer20Ieee80211VhtmcsTable18vhtMcs2BW40MHzNss4E @3962 DATA
    _ZN4inet13physicallayer20Ieee80211VhtmcsTable18vhtMcs2BW40MHzNss5E @3963 DATA
    _ZN4inet13physicallayer20Ieee80211VhtmcsTable18vhtMcs2BW40MHzNss6E @3964 DATA
    _ZN4inet13physicallayer20Ieee80211VhtmcsTable18vhtMcs2BW40MHzNss7E @3965 DATA
    _ZN4inet13physicallayer20Ieee80211VhtmcsTable18vhtMcs2BW40MHzNss8E @3966 DATA
    _ZN4inet13physicallayer20Ieee80211VhtmcsTable18vhtMcs2BW80MHzNss1E @3967 DATA
    _ZN4inet13physicallayer20Ieee80211VhtmcsTable18vhtMcs2BW80MHzNss2E @3968 DATA
    _ZN4inet13physicallayer20Ieee80211VhtmcsTable18vhtMcs2BW80MHzNss3E @3969 DATA
    _ZN4inet13physicallayer20Ieee80211VhtmcsTable18vhtMcs2BW80MHzNss4E @3970 DATA
    _ZN4inet13physicallayer20Ieee80211VhtmcsTable18vhtMcs2BW80MHzNss5E @3971 DATA
    _ZN4inet13physicallayer20Ieee80211VhtmcsTable18vhtMcs2BW80MHzNss6E @3972 DATA
    _ZN4inet13physicallayer20Ieee80211VhtmcsTable18vhtMcs2BW80MHzNss7E @3973 DATA
    _ZN4inet13physicallayer20Ieee80211VhtmcsTable18vhtMcs2BW80MHzNss8E @3974 DATA
    _ZN4inet13physicallayer20Ieee80211VhtmcsTable18vhtMcs3BW20MHzNss1E @3975 DATA
    _ZN4inet13physicallayer20Ieee80211VhtmcsTable18vhtMcs3BW20MHzNss2E @3976 DATA
    _ZN4inet13physicallayer20Ieee80211VhtmcsTable18vhtMcs3BW20MHzNss3E @3977 DATA
    _ZN4inet13physicallayer20Ieee80211VhtmcsTable18vhtMcs3BW20MHzNss4E @3978 DATA
    _ZN4inet13physicallayer20Ieee80211VhtmcsTable18vhtMcs3BW20MHzNss5E @3979 DATA
    _ZN4inet13physicallayer20Ieee80211VhtmcsTable18vhtMcs3BW20MHzNss6E @3980 DATA
    _ZN4inet13physicallayer20Ieee80211VhtmcsTable18vhtMcs3BW20MHzNss7E @3981 DATA
    _ZN4inet13physicallayer20Ieee80211VhtmcsTable18vhtMcs3BW20MHzNss8E @3982 DATA
    _ZN4inet13physicallayer20Ieee80211VhtmcsTable18vhtMcs3BW40MHzNss1E @3983 DATA
    _ZN4inet13physicallayer20Ieee80211VhtmcsTable18vhtMcs3BW40MHzNss2E @3984 DATA
    _ZN4inet13physicallayer20Ieee80211VhtmcsTable18vhtMcs3BW40MHzNss3E @3985 DATA
    _ZN4inet13physicallayer20Ieee80211VhtmcsTable18vhtMcs3BW40MHzNss4E @3986 DATA
    _ZN4inet13physicallayer20Ieee80211VhtmcsTable18vhtMcs3BW40MHzNss5E @3987 DATA
    _ZN4inet13physicallayer20Ieee80211VhtmcsTable18vhtMcs3BW40MHzNss6E @3988 DATA
    _ZN4inet13physicallayer20Ieee80211VhtmcsTable18vhtMcs3BW40MHzNss7E @3989 DATA
    _ZN4inet13physicallayer20Ieee80211VhtmcsTable18vhtMcs3BW40MHzNss8E @3990 DATA
    _ZN4inet13physicallayer20Ieee80211VhtmcsTable18vhtMcs3BW80MHzNss1E @3991 DATA
    _ZN4inet13physicallayer20Ieee80211VhtmcsTable18vhtMcs3BW80MHzNss2E @3992 DATA
    _ZN4inet13physicallayer20Ieee80211VhtmcsTable18vhtMcs3BW80MHzNss3E @3993 DATA
    _ZN4inet13physicallayer20Ieee80211VhtmcsTable18vhtMcs3BW80MHzNss4E @3994 DATA
    _ZN4inet13physicallayer20Ieee80211VhtmcsTable18vhtMcs3BW80MHzNss5E @3995 DATA
    _ZN4inet13physicallayer20Ieee80211VhtmcsTable18vhtMcs3BW80MHzNss6E @3996 DATA
    _ZN4inet13physicallayer20Ieee80211VhtmcsTable18vhtMcs3BW80MHzNss7E @3997 DATA
    _ZN4inet13physicallayer20Ieee80211VhtmcsTable18vhtMcs3BW80MHzNss8E @3998 DATA
    _ZN4inet13physicallayer20Ieee80211VhtmcsTable18vhtMcs4BW20MHzNss1E @3999 DATA
    _ZN4inet13physicallayer20Ieee80211VhtmcsTable18vhtMcs4BW20MHzNss2E @4000 DATA
    _ZN4inet13physicallayer20Ieee80211VhtmcsTable18vhtMcs4BW20MHzNss3E @4001 DATA
    _ZN4inet13physicallayer20Ieee80211VhtmcsTable18vhtMcs4BW20MHzNss4E @4002 DATA
    _ZN4inet13physicallayer20Ieee80211VhtmcsTable18vhtMcs4BW20MHzNss5E @4003 DATA
    _ZN4inet13physicallayer20Ieee80211VhtmcsTable18vhtMcs4BW20MHzNss6E @4004 DATA
    _ZN4inet13physicallayer20Ieee80211VhtmcsTable18vhtMcs4BW20MHzNss7E @4005 DATA
    _ZN4inet13physicallayer20Ieee80211VhtmcsTable18vhtMcs4BW20MHzNss8E @4006 DATA
    _ZN4inet13physicallayer20Ieee80211VhtmcsTable18vhtMcs4BW40MHzNss1E @4007 DATA
    _ZN4inet13physicallayer20Ieee80211VhtmcsTable18vhtMcs4BW40MHzNss2E @4008 DATA
    _ZN4inet13physicallayer20Ieee80211VhtmcsTable18vhtMcs4BW40MHzNss3E @4009 DATA
    _ZN4inet13physicallayer20Ieee80211VhtmcsTable18vhtMcs4BW40MHzNss4E @4010 DATA
    _ZN4inet13physicallayer20Ieee80211VhtmcsTable18vhtMcs4BW40MHzNss5E @4011 DATA
    _ZN4inet13physicallayer20Ieee80211VhtmcsTable18vhtMcs4BW40MHzNss6E @4012 DATA
    _ZN4inet13physicallayer20Ieee80211VhtmcsTable18vhtMcs4BW40MHzNss7E @4013 DATA
    _ZN4inet13physicallayer20Ieee80211VhtmcsTable18vhtMcs4BW40MHzNss8E @4014 DATA
    _ZN4inet13physicallayer20Ieee80211VhtmcsTable18vhtMcs4BW80MHzNss1E @4015 DATA
    _ZN4inet13physicallayer20Ieee80211VhtmcsTable18vhtMcs4BW80MHzNss2E @4016 DATA
    _ZN4inet13physicallayer20Ieee80211VhtmcsTable18vhtMcs4BW80MHzNss3E @4017 DATA
    _ZN4inet13physicallayer20Ieee80211VhtmcsTable18vhtMcs4BW80MHzNss4E @4018 DATA
    _ZN4inet13physicallayer20Ieee80211VhtmcsTable18vhtMcs4BW80MHzNss5E @4019 DATA
    _ZN4inet13physicallayer20Ieee80211VhtmcsTable18vhtMcs4BW80MHzNss6E @4020 DATA
    _ZN4inet13physicallayer20Ieee80211VhtmcsTable18vhtMcs4BW80MHzNss7E @4021 DATA
    _ZN4inet13physicallayer20Ieee80211VhtmcsTable18vhtMcs4BW80MHzNss8E @4022 DATA
    _ZN4inet13physicallayer20Ieee80211VhtmcsTable18vhtMcs5BW20MHzNss1E @4023 DATA
    _ZN4inet13physicallayer20Ieee80211VhtmcsTable18vhtMcs5BW20MHzNss2E @4024 DATA
    _ZN4inet13physicallayer20Ieee80211VhtmcsTable18vhtMcs5BW20MHzNss3E @4025 DATA
    _ZN4inet13physicallayer20Ieee80211VhtmcsTable18vhtMcs5BW20MHzNss4E @4026 DATA
    _ZN4inet13physicallayer20Ieee80211VhtmcsTable18vhtMcs5BW20MHzNss5E @4027 DATA
    _ZN4inet13physicallayer20Ieee80211VhtmcsTable18vhtMcs5BW20MHzNss6E @4028 DATA
    _ZN4inet13physicallayer20Ieee80211VhtmcsTable18vhtMcs5BW20MHzNss7E @4029 DATA
    _ZN4inet13physicallayer20Ieee80211VhtmcsTable18vhtMcs5BW20MHzNss8E @4030 DATA
    _ZN4inet13physicallayer20Ieee80211VhtmcsTable18vhtMcs5BW40MHzNss1E @4031 DATA
    _ZN4inet13physicallayer20Ieee80211VhtmcsTable18vhtMcs5BW40MHzNss2E @4032 DATA
    _ZN4inet13physicallayer20Ieee80211VhtmcsTable18vhtMcs5BW40MHzNss3E @4033 DATA
    _ZN4inet13physicallayer20Ieee80211VhtmcsTable18vhtMcs5BW40MHzNss4E @4034 DATA
    _ZN4inet13physicallayer20Ieee80211VhtmcsTable18vhtMcs5BW40MHzNss5E @4035 DATA
    _ZN4inet13physicallayer20Ieee80211VhtmcsTable18vhtMcs5BW40MHzNss6E @4036 DATA
    _ZN4inet13physicallayer20Ieee80211VhtmcsTable18vhtMcs5BW40MHzNss7E @4037 DATA
    _ZN4inet13physicallayer20Ieee80211VhtmcsTable18vhtMcs5BW40MHzNss8E @4038 DATA
    _ZN4inet13physicallayer20Ieee80211VhtmcsTable18vhtMcs5BW80MHzNss1E @4039 DATA
    _ZN4inet13physicallayer20Ieee80211VhtmcsTable18vhtMcs5BW80MHzNss2E @4040 DATA
    _ZN4inet13physicallayer20Ieee80211VhtmcsTable18vhtMcs5BW80MHzNss3E @4041 DATA
    _ZN4inet13physicallayer20Ieee80211VhtmcsTable18vhtMcs5BW80MHzNss4E @4042 DATA
    _ZN4inet13physicallayer20Ieee80211VhtmcsTable18vhtMcs5BW80MHzNss5E @4043 DATA
    _ZN4inet13physicallayer20Ieee80211VhtmcsTable18vhtMcs5BW80MHzNss6E @4044 DATA
    _ZN4inet13physicallayer20Ieee80211VhtmcsTable18vhtMcs5BW80MHzNss7E @4045 DATA
    _ZN4inet13physicallayer20Ieee80211VhtmcsTable18vhtMcs5BW80MHzNss8E @4046 DATA
    _ZN4inet13physicallayer20Ieee80211VhtmcsTable18vhtMcs6BW20MHzNss1E @4047 DATA
    _ZN4inet13physicallayer20Ieee80211VhtmcsTable18vhtMcs6BW20MHzNss2E @4048 DATA
    _ZN4inet13physicallayer20Ieee80211VhtmcsTable18vhtMcs6BW20MHzNss3E @4049 DATA
    _ZN4inet13physicallayer20Ieee80211VhtmcsTable18vhtMcs6BW20MHzNss4E @4050 DATA
    _ZN4inet13physicallayer20Ieee80211VhtmcsTable18vhtMcs6BW20MHzNss5E @4051 DATA
    _ZN4inet13physicallayer20Ieee80211VhtmcsTable18vhtMcs6BW20MHzNss6E @4052 DATA
    _ZN4inet13physicallayer20Ieee80211VhtmcsTable18vhtMcs6BW20MHzNss7E @4053 DATA
    _ZN4inet13physicallayer20Ieee80211VhtmcsTable18vhtMcs6BW20MHzNss8E @4054 DATA
    _ZN4inet13physicallayer20Ieee80211VhtmcsTable18vhtMcs6BW40MHzNss1E @4055 DATA
    _ZN4inet13physicallayer20Ieee80211VhtmcsTable18vhtMcs6BW40MHzNss2E @4056 DATA
    _ZN4inet13physicallayer20Ieee80211VhtmcsTable18vhtMcs6BW40MHzNss3E @4057 DATA
    _ZN4inet13physicallayer20Ieee80211VhtmcsTable18vhtMcs6BW40MHzNss4E @4058 DATA
    _ZN4inet13physicallayer20Ieee80211VhtmcsTable18vhtMcs6BW40MHzNss5E @4059 DATA
    _ZN4inet13physicallayer20Ieee80211VhtmcsTable18vhtMcs6BW40MHzNss6E @4060 DATA
    _ZN4inet13physicallayer20Ieee80211VhtmcsTable18vhtMcs6BW40MHzNss7E @4061 DATA
    _ZN4inet13physicallayer20Ieee80211VhtmcsTable18vhtMcs6BW40MHzNss8E @4062 DATA
    _ZN4inet13physicallayer20Ieee80211VhtmcsTable18vhtMcs6BW80MHzNss1E @4063 DATA
    _ZN4inet13physicallayer20Ieee80211VhtmcsTable18vhtMcs6BW80MHzNss2E @4064 DATA
    _ZN4inet13physicallayer20Ieee80211VhtmcsTable18vhtMcs6BW80MHzNss3E @4065 DATA
    _ZN4inet13physicallayer20Ieee80211VhtmcsTable18vhtMcs6BW80MHzNss4E @4066 DATA
    _ZN4inet13physicallayer20Ieee80211VhtmcsTable18vhtMcs6BW80MHzNss5E @4067 DATA
    _ZN4inet13physicallayer20Ieee80211VhtmcsTable18vhtMcs6BW80MHzNss6E @4068 DATA
    _ZN4inet13physicallayer20Ieee80211VhtmcsTable18vhtMcs6BW80MHzNss7E @4069 DATA
    _ZN4inet13physicallayer20Ieee80211VhtmcsTable18vhtMcs6BW80MHzNss8E @4070 DATA
    _ZN4inet13physicallayer20Ieee80211VhtmcsTable18vhtMcs7BW20MHzNss1E @4071 DATA
    _ZN4inet13physicallayer20Ieee80211VhtmcsTable18vhtMcs7BW20MHzNss2E @4072 DATA
    _ZN4inet13physicallayer20Ieee80211VhtmcsTable18vhtMcs7BW20MHzNss3E @4073 DATA
    _ZN4inet13physicallayer20Ieee80211VhtmcsTable18vhtMcs7BW20MHzNss4E @4074 DATA
    _ZN4inet13physicallayer20Ieee80211VhtmcsTable18vhtMcs7BW20MHzNss5E @4075 DATA
    _ZN4inet13physicallayer20Ieee80211VhtmcsTable18vhtMcs7BW20MHzNss6E @4076 DATA
    _ZN4inet13physicallayer20Ieee80211VhtmcsTable18vhtMcs7BW20MHzNss7E @4077 DATA
    _ZN4inet13physicallayer20Ieee80211VhtmcsTable18vhtMcs7BW20MHzNss8E @4078 DATA
    _ZN4inet13physicallayer20Ieee80211VhtmcsTable18vhtMcs7BW40MHzNss1E @4079 DATA
    _ZN4inet13physicallayer20Ieee80211VhtmcsTable18vhtMcs7BW40MHzNss2E @4080 DATA
    _ZN4inet13physicallayer20Ieee80211VhtmcsTable18vhtMcs7BW40MHzNss3E @4081 DATA
    _ZN4inet13physicallayer20Ieee80211VhtmcsTable18vhtMcs7BW40MHzNss4E @4082 DATA
    _ZN4inet13physicallayer20Ieee80211VhtmcsTable18vhtMcs7BW40MHzNss5E @4083 DATA
    _ZN4inet13physicallayer20Ieee80211VhtmcsTable18vhtMcs7BW40MHzNss6E @4084 DATA
    _ZN4inet13physicallayer20Ieee80211VhtmcsTable18vhtMcs7BW40MHzNss7E @4085 DATA
    _ZN4inet13physicallayer20Ieee80211VhtmcsTable18vhtMcs7BW40MHzNss8E @4086 DATA
    _ZN4inet13physicallayer20Ieee80211VhtmcsTable18vhtMcs7BW80MHzNss1E @4087 DATA
    _ZN4inet13physicallayer20Ieee80211VhtmcsTable18vhtMcs7BW80MHzNss2E @4088 DATA
    _ZN4inet13physicallayer20Ieee80211VhtmcsTable18vhtMcs7BW80MHzNss3E @4089 DATA
    _ZN4inet13physicallayer20Ieee80211VhtmcsTable18vhtMcs7BW80MHzNss4E @4090 DATA
    _ZN4inet13physicallayer20Ieee80211VhtmcsTable18vhtMcs7BW80MHzNss5E @4091 DATA
    _ZN4inet13physicallayer20Ieee80211VhtmcsTable18vhtMcs7BW80MHzNss6E @4092 DATA
    _ZN4inet13physicallayer20Ieee80211VhtmcsTable18vhtMcs7BW80MHzNss7E @4093 DATA
    _ZN4inet13physicallayer20Ieee80211VhtmcsTable18vhtMcs7BW80MHzNss8E @4094 DATA
    _ZN4inet13physicallayer20Ieee80211VhtmcsTable18vhtMcs8BW20MHzNss1E @4095 DATA
    _ZN4inet13physicallayer20Ieee80211VhtmcsTable18vhtMcs8BW20MHzNss2E @4096 DATA
    _ZN4inet13physicallayer20Ieee80211VhtmcsTable18vhtMcs8BW20MHzNss3E @4097 DATA
    _ZN4inet13physicallayer20Ieee80211VhtmcsTable18vhtMcs8BW20MHzNss4E @4098 DATA
    _ZN4inet13physicallayer20Ieee80211VhtmcsTable18vhtMcs8BW20MHzNss5E @4099 DATA
    _ZN4inet13physicallayer20Ieee80211VhtmcsTable18vhtMcs8BW20MHzNss6E @4100 DATA
    _ZN4inet13physicallayer20Ieee80211VhtmcsTable18vhtMcs8BW20MHzNss7E @4101 DATA
    _ZN4inet13physicallayer20Ieee80211VhtmcsTable18vhtMcs8BW20MHzNss8E @4102 DATA
    _ZN4inet13physicallayer20Ieee80211VhtmcsTable18vhtMcs8BW40MHzNss1E @4103 DATA
    _ZN4inet13physicallayer20Ieee80211VhtmcsTable18vhtMcs8BW40MHzNss2E @4104 DATA
    _ZN4inet13physicallayer20Ieee80211VhtmcsTable18vhtMcs8BW40MHzNss3E @4105 DATA
    _ZN4inet13physicallayer20Ieee80211VhtmcsTable18vhtMcs8BW40MHzNss4E @4106 DATA
    _ZN4inet13physicallayer20Ieee80211VhtmcsTable18vhtMcs8BW40MHzNss5E @4107 DATA
    _ZN4inet13physicallayer20Ieee80211VhtmcsTable18vhtMcs8BW40MHzNss6E @4108 DATA
    _ZN4inet13physicallayer20Ieee80211VhtmcsTable18vhtMcs8BW40MHzNss7E @4109 DATA
    _ZN4inet13physicallayer20Ieee80211VhtmcsTable18vhtMcs8BW40MHzNss8E @4110 DATA
    _ZN4inet13physicallayer20Ieee80211VhtmcsTable18vhtMcs8BW80MHzNss1E @4111 DATA
    _ZN4inet13physicallayer20Ieee80211VhtmcsTable18vhtMcs8BW80MHzNss2E @4112 DATA
    _ZN4inet13physicallayer20Ieee80211VhtmcsTable18vhtMcs8BW80MHzNss3E @4113 DATA
    _ZN4inet13physicallayer20Ieee80211VhtmcsTable18vhtMcs8BW80MHzNss4E @4114 DATA
    _ZN4inet13physicallayer20Ieee80211VhtmcsTable18vhtMcs8BW80MHzNss5E @4115 DATA
    _ZN4inet13physicallayer20Ieee80211VhtmcsTable18vhtMcs8BW80MHzNss6E @4116 DATA
    _ZN4inet13physicallayer20Ieee80211VhtmcsTable18vhtMcs8BW80MHzNss7E @4117 DATA
    _ZN4inet13physicallayer20Ieee80211VhtmcsTable18vhtMcs8BW80MHzNss8E @4118 DATA
    _ZN4inet13physicallayer20Ieee80211VhtmcsTable18vhtMcs9BW20MHzNss1E @4119 DATA
    _ZN4inet13physicallayer20Ieee80211VhtmcsTable18vhtMcs9BW20MHzNss2E @4120 DATA
    _ZN4inet13physicallayer20Ieee80211VhtmcsTable18vhtMcs9BW20MHzNss3E @4121 DATA
    _ZN4inet13physicallayer20Ieee80211VhtmcsTable18vhtMcs9BW20MHzNss4E @4122 DATA
    _ZN4inet13physicallayer20Ieee80211VhtmcsTable18vhtMcs9BW20MHzNss5E @4123 DATA
    _ZN4inet13physicallayer20Ieee80211VhtmcsTable18vhtMcs9BW20MHzNss6E @4124 DATA
    _ZN4inet13physicallayer20Ieee80211VhtmcsTable18vhtMcs9BW20MHzNss7E @4125 DATA
    _ZN4inet13physicallayer20Ieee80211VhtmcsTable18vhtMcs9BW20MHzNss8E @4126 DATA
    _ZN4inet13physicallayer20Ieee80211VhtmcsTable18vhtMcs9BW40MHzNss1E @4127 DATA
    _ZN4inet13physicallayer20Ieee80211VhtmcsTable18vhtMcs9BW40MHzNss2E @4128 DATA
    _ZN4inet13physicallayer20Ieee80211VhtmcsTable18vhtMcs9BW40MHzNss3E @4129 DATA
    _ZN4inet13physicallayer20Ieee80211VhtmcsTable18vhtMcs9BW40MHzNss4E @4130 DATA
    _ZN4inet13physicallayer20Ieee80211VhtmcsTable18vhtMcs9BW40MHzNss5E @4131 DATA
    _ZN4inet13physicallayer20Ieee80211VhtmcsTable18vhtMcs9BW40MHzNss6E @4132 DATA
    _ZN4inet13physicallayer20Ieee80211VhtmcsTable18vhtMcs9BW40MHzNss7E @4133 DATA
    _ZN4inet13physicallayer20Ieee80211VhtmcsTable18vhtMcs9BW40MHzNss8E @4134 DATA
    _ZN4inet13physicallayer20Ieee80211VhtmcsTable18vhtMcs9BW80MHzNss1E @4135 DATA
    _ZN4inet13physicallayer20Ieee80211VhtmcsTable18vhtMcs9BW80MHzNss2E @4136 DATA
    _ZN4inet13physicallayer20Ieee80211VhtmcsTable18vhtMcs9BW80MHzNss3E @4137 DATA
    _ZN4inet13physicallayer20Ieee80211VhtmcsTable18vhtMcs9BW80MHzNss4E @4138 DATA
    _ZN4inet13physicallayer20Ieee80211VhtmcsTable18vhtMcs9BW80MHzNss5E @4139 DATA
    _ZN4inet13physicallayer20Ieee80211VhtmcsTable18vhtMcs9BW80MHzNss6E @4140 DATA
    _ZN4inet13physicallayer20Ieee80211VhtmcsTable18vhtMcs9BW80MHzNss7E @4141 DATA
    _ZN4inet13physicallayer20Ieee80211VhtmcsTable18vhtMcs9BW80MHzNss8E @4142 DATA
    _ZN4inet13physicallayer20Ieee80211VhtmcsTable19vhtMcs0BW160MHzNss1E @4143 DATA
    _ZN4inet13physicallayer20Ieee80211VhtmcsTable19vhtMcs0BW160MHzNss2E @4144 DATA
    _ZN4inet13physicallayer20Ieee80211VhtmcsTable19vhtMcs0BW160MHzNss3E @4145 DATA
    _ZN4inet13physicallayer20Ieee80211VhtmcsTable19vhtMcs0BW160MHzNss4E @4146 DATA
    _ZN4inet13physicallayer20Ieee80211VhtmcsTable19vhtMcs0BW160MHzNss5E @4147 DATA
    _ZN4inet13physicallayer20Ieee80211VhtmcsTable19vhtMcs0BW160MHzNss6E @4148 DATA
    _ZN4inet13physicallayer20Ieee80211VhtmcsTable19vhtMcs0BW160MHzNss7E @4149 DATA
    _ZN4inet13physicallayer20Ieee80211VhtmcsTable19vhtMcs0BW160MHzNss8E @4150 DATA
    _ZN4inet13physicallayer20Ieee80211VhtmcsTable19vhtMcs1BW160MHzNss1E @4151 DATA
    _ZN4inet13physicallayer20Ieee80211VhtmcsTable19vhtMcs1BW160MHzNss2E @4152 DATA
    _ZN4inet13physicallayer20Ieee80211VhtmcsTable19vhtMcs1BW160MHzNss3E @4153 DATA
    _ZN4inet13physicallayer20Ieee80211VhtmcsTable19vhtMcs1BW160MHzNss4E @4154 DATA
    _ZN4inet13physicallayer20Ieee80211VhtmcsTable19vhtMcs1BW160MHzNss5E @4155 DATA
    _ZN4inet13physicallayer20Ieee80211VhtmcsTable19vhtMcs1BW160MHzNss6E @4156 DATA
    _ZN4inet13physicallayer20Ieee80211VhtmcsTable19vhtMcs1BW160MHzNss7E @4157 DATA
    _ZN4inet13physicallayer20Ieee80211VhtmcsTable19vhtMcs1BW160MHzNss8E @4158 DATA
    _ZN4inet13physicallayer20Ieee80211VhtmcsTable19vhtMcs2BW160MHzNss1E @4159 DATA
    _ZN4inet13physicallayer20Ieee80211VhtmcsTable19vhtMcs2BW160MHzNss2E @4160 DATA
    _ZN4inet13physicallayer20Ieee80211VhtmcsTable19vhtMcs2BW160MHzNss3E @4161 DATA
    _ZN4inet13physicallayer20Ieee80211VhtmcsTable19vhtMcs2BW160MHzNss4E @4162 DATA
    _ZN4inet13physicallayer20Ieee80211VhtmcsTable19vhtMcs2BW160MHzNss5E @4163 DATA
    _ZN4inet13physicallayer20Ieee80211VhtmcsTable19vhtMcs2BW160MHzNss6E @4164 DATA
    _ZN4inet13physicallayer20Ieee80211VhtmcsTable19vhtMcs2BW160MHzNss7E @4165 DATA
    _ZN4inet13physicallayer20Ieee80211VhtmcsTable19vhtMcs2BW160MHzNss8E @4166 DATA
    _ZN4inet13physicallayer20Ieee80211VhtmcsTable19vhtMcs3BW160MHzNss1E @4167 DATA
    _ZN4inet13physicallayer20Ieee80211VhtmcsTable19vhtMcs3BW160MHzNss2E @4168 DATA
    _ZN4inet13physicallayer20Ieee80211VhtmcsTable19vhtMcs3BW160MHzNss3E @4169 DATA
    _ZN4inet13physicallayer20Ieee80211VhtmcsTable19vhtMcs3BW160MHzNss4E @4170 DATA
    _ZN4inet13physicallayer20Ieee80211VhtmcsTable19vhtMcs3BW160MHzNss5E @4171 DATA
    _ZN4inet13physicallayer20Ieee80211VhtmcsTable19vhtMcs3BW160MHzNss6E @4172 DATA
    _ZN4inet13physicallayer20Ieee80211VhtmcsTable19vhtMcs3BW160MHzNss7E @4173 DATA
    _ZN4inet13physicallayer20Ieee80211VhtmcsTable19vhtMcs3BW160MHzNss8E @4174 DATA
    _ZN4inet13physicallayer20Ieee80211VhtmcsTable19vhtMcs4BW160MHzNss1E @4175 DATA
    _ZN4inet13physicallayer20Ieee80211VhtmcsTable19vhtMcs4BW160MHzNss2E @4176 DATA
    _ZN4inet13physicallayer20Ieee80211VhtmcsTable19vhtMcs4BW160MHzNss3E @4177 DATA
    _ZN4inet13physicallayer20Ieee80211VhtmcsTable19vhtMcs4BW160MHzNss4E @4178 DATA
    _ZN4inet13physicallayer20Ieee80211VhtmcsTable19vhtMcs4BW160MHzNss5E @4179 DATA
    _ZN4inet13physicallayer20Ieee80211VhtmcsTable19vhtMcs4BW160MHzNss6E @4180 DATA
    _ZN4inet13physicallayer20Ieee80211VhtmcsTable19vhtMcs4BW160MHzNss7E @4181 DATA
    _ZN4inet13physicallayer20Ieee80211VhtmcsTable19vhtMcs4BW160MHzNss8E @4182 DATA
    _ZN4inet13physicallayer20Ieee80211VhtmcsTable19vhtMcs5BW160MHzNss1E @4183 DATA
    _ZN4inet13physicallayer20Ieee80211VhtmcsTable19vhtMcs5BW160MHzNss2E @4184 DATA
    _ZN4inet13physicallayer20Ieee80211VhtmcsTable19vhtMcs5BW160MHzNss3E @4185 DATA
    _ZN4inet13physicallayer20Ieee80211VhtmcsTable19vhtMcs5BW160MHzNss4E @4186 DATA
    _ZN4inet13physicallayer20Ieee80211VhtmcsTable19vhtMcs5BW160MHzNss5E @4187 DATA
    _ZN4inet13physicallayer20Ieee80211VhtmcsTable19vhtMcs5BW160MHzNss6E @4188 DATA
    _ZN4inet13physicallayer20Ieee80211VhtmcsTable19vhtMcs5BW160MHzNss7E @4189 DATA
    _ZN4inet13physicallayer20Ieee80211VhtmcsTable19vhtMcs5BW160MHzNss8E @4190 DATA
    _ZN4inet13physicallayer20Ieee80211VhtmcsTable19vhtMcs6BW160MHzNss1E @4191 DATA
    _ZN4inet13physicallayer20Ieee80211VhtmcsTable19vhtMcs6BW160MHzNss2E @4192 DATA
    _ZN4inet13physicallayer20Ieee80211VhtmcsTable19vhtMcs6BW160MHzNss3E @4193 DATA
    _ZN4inet13physicallayer20Ieee80211VhtmcsTable19vhtMcs6BW160MHzNss4E @4194 DATA
    _ZN4inet13physicallayer20Ieee80211VhtmcsTable19vhtMcs6BW160MHzNss5E @4195 DATA
    _ZN4inet13physicallayer20Ieee80211VhtmcsTable19vhtMcs6BW160MHzNss6E @4196 DATA
    _ZN4inet13physicallayer20Ieee80211VhtmcsTable19vhtMcs6BW160MHzNss7E @4197 DATA
    _ZN4inet13physicallayer20Ieee80211VhtmcsTable19vhtMcs6BW160MHzNss8E @4198 DATA
    _ZN4inet13physicallayer20Ieee80211VhtmcsTable19vhtMcs7BW160MHzNss1E @4199 DATA
    _ZN4inet13physicallayer20Ieee80211VhtmcsTable19vhtMcs7BW160MHzNss2E @4200 DATA
    _ZN4inet13physicallayer20Ieee80211VhtmcsTable19vhtMcs7BW160MHzNss3E @4201 DATA
    _ZN4inet13physicallayer20Ieee80211VhtmcsTable19vhtMcs7BW160MHzNss4E @4202 DATA
    _ZN4inet13physicallayer20Ieee80211VhtmcsTable19vhtMcs7BW160MHzNss5E @4203 DATA
    _ZN4inet13physicallayer20Ieee80211VhtmcsTable19vhtMcs7BW160MHzNss6E @4204 DATA
    _ZN4inet13physicallayer20Ieee80211VhtmcsTable19vhtMcs7BW160MHzNss7E @4205 DATA
    _ZN4inet13physicallayer20Ieee80211VhtmcsTable19vhtMcs7BW160MHzNss8E @4206 DATA
    _ZN4inet13physicallayer20Ieee80211VhtmcsTable19vhtMcs8BW160MHzNss1E @4207 DATA
    _ZN4inet13physicallayer20Ieee80211VhtmcsTable19vhtMcs8BW160MHzNss2E @4208 DATA
    _ZN4inet13physicallayer20Ieee80211VhtmcsTable19vhtMcs8BW160MHzNss3E @4209 DATA
    _ZN4inet13physicallayer20Ieee80211VhtmcsTable19vhtMcs8BW160MHzNss4E @4210 DATA
    _ZN4inet13physicallayer20Ieee80211VhtmcsTable19vhtMcs8BW160MHzNss5E @4211 DATA
    _ZN4inet13physicallayer20Ieee80211VhtmcsTable19vhtMcs8BW160MHzNss6E @4212 DATA
    _ZN4inet13physicallayer20Ieee80211VhtmcsTable19vhtMcs8BW160MHzNss7E @4213 DATA
    _ZN4inet13physicallayer20Ieee80211VhtmcsTable19vhtMcs8BW160MHzNss8E @4214 DATA
    _ZN4inet13physicallayer20Ieee80211VhtmcsTable19vhtMcs9BW160MHzNss1E @4215 DATA
    _ZN4inet13physicallayer20Ieee80211VhtmcsTable19vhtMcs9BW160MHzNss2E @4216 DATA
    _ZN4inet13physicallayer20Ieee80211VhtmcsTable19vhtMcs9BW160MHzNss3E @4217 DATA
    _ZN4inet13physicallayer20Ieee80211VhtmcsTable19vhtMcs9BW160MHzNss4E @4218 DATA
    _ZN4inet13physicallayer20Ieee80211VhtmcsTable19vhtMcs9BW160MHzNss5E @4219 DATA
    _ZN4inet13physicallayer20Ieee80211VhtmcsTable19vhtMcs9BW160MHzNss6E @4220 DATA
    _ZN4inet13physicallayer20Ieee80211VhtmcsTable19vhtMcs9BW160MHzNss7E @4221 DATA
    _ZN4inet13physicallayer20Ieee80211VhtmcsTable19vhtMcs9BW160MHzNss8E @4222 DATA
    _ZN4inet13physicallayer20InterpolatingAntenna10initializeEi @4223
    _ZN4inet13physicallayer20InterpolatingAntenna11AntennaGain8parseMapERSt3mapINS_5units5valueIdNS4_5units3radEEEdSt4lessIS8_ESaISt4pairIKS8_dEEEPKc @4224
    _ZN4inet13physicallayer20InterpolatingAntenna11AntennaGainC1EPKcS4_S4_ @4225
    _ZN4inet13physicallayer20InterpolatingAntenna11AntennaGainC2EPKcS4_S4_ @4226
    _ZN4inet13physicallayer20InterpolatingAntennaC1Ev @4227
    _ZN4inet13physicallayer20InterpolatingAntennaC2Ev @4228
    _ZN4inet13physicallayer20ReceptionPacketModelC1EPKNS_6PacketENS_5units5valueIdNS5_7composeINS5_5units1bENS5_3powINS8_1sELin1ELi1EEEEEEEd @4229
    _ZN4inet13physicallayer20ReceptionPacketModelC2EPKNS_6PacketENS_5units5valueIdNS5_7composeINS5_5units1bENS5_3powINS8_1sELin1ELi1EEEEEEEd @4230
    _ZN4inet13physicallayer20ReceptionSampleModelC1EidPKSt6vectorINS_5units5valueIdNS3_7composeINS5_INS5_INS3_5units1mENS5_INS6_2kgENS3_3powINS6_1sELin2ELi1EEEEEEES7_EENS9_ISA_Lin1ELi1EEEEEEESaISH_EESH_ @4231
    _ZN4inet13physicallayer20ReceptionSampleModelC2EidPKSt6vectorINS_5units5valueIdNS3_7composeINS5_INS5_INS3_5units1mENS5_INS6_2kgENS3_3powINS6_1sELin2ELi1EEEEEEES7_EENS9_ISA_Lin1ELi1EEEEEEESaISH_EESH_ @4232
    _ZN4inet13physicallayer20ReceptionSymbolModelC1EididPKSt6vectorIPKNS0_7ISymbolESaIS5_EEd @4233
    _ZN4inet13physicallayer20ReceptionSymbolModelC2EididPKSt6vectorIPKNS0_7ISymbolESaIS5_EEd @4234
    _ZN4inet13physicallayer20StochasticErrorModel10initializeEi @4235
    _ZN4inet13physicallayer20StochasticErrorModelC1Ev @4236
    _ZN4inet13physicallayer20StochasticErrorModelC2Ev @4237
    _ZN4inet13physicallayer20TransmissionBitModelC1ENS_5units5valueIxNS2_5units1bEEENS3_IdNS2_7composeIS5_NS2_3powINS4_1sELin1ELi1EEEEEEES6_SC_PKNS_9BitVectorEPKNS0_23IForwardErrorCorrectionEPKNS0_11IScramblingEPKNS0_13IInterleavingE @4238
    _ZN4inet13physicallayer20TransmissionBitModelC1EPKNS_9BitVectorEPKNS0_23IForwardErrorCorrectionEPKNS0_11IScramblingEPKNS0_13IInterleavingE @4239
    _ZN4inet13physicallayer20TransmissionBitModelC2ENS_5units5valueIxNS2_5units1bEEENS3_IdNS2_7composeIS5_NS2_3powINS4_1sELin1ELi1EEEEEEES6_SC_PKNS_9BitVectorEPKNS0_23IForwardErrorCorrectionEPKNS0_11IScramblingEPKNS0_13IInterleavingE @4240
    _ZN4inet13physicallayer20TransmissionBitModelC2EPKNS_9BitVectorEPKNS0_23IForwardErrorCorrectionEPKNS0_11IScramblingEPKNS0_13IInterleavingE @4241
    _ZN4inet13physicallayer20UnitDiskTransmissionC1EPKNS0_6IRadioEPKNS_6PacketEN7omnetpp7SimTimeES9_S9_S9_S9_RKNS_5CoordESC_RKNS_10QuaternionESF_NS_5units5valueIdNSG_5units1mEEESK_SK_ @4242
    _ZN4inet13physicallayer20UnitDiskTransmissionC2EPKNS0_6IRadioEPKNS_6PacketEN7omnetpp7SimTimeES9_S9_S9_S9_RKNS_5CoordESC_RKNS_10QuaternionESF_NS_5units5valueIdNSG_5units1mEEESK_SK_ @4243
    _ZN4inet13physicallayer21ApskLayeredErrorModelC1Ev @4244
    _ZN4inet13physicallayer21ApskLayeredErrorModelC2Ev @4245
    _ZN4inet13physicallayer21ApskScalarTransmitterC1Ev @4246
    _ZN4inet13physicallayer21ApskScalarTransmitterC2Ev @4247
    _ZN4inet13physicallayer21ConfigureRadioCommand10setBitrateENS_5units5valueIdNS2_7composeINS2_5units1bENS2_3powINS5_1sELin1ELi1EEEEEEE @4248
    _ZN4inet13physicallayer21ConfigureRadioCommand12parsimUnpackEPN7omnetpp11cCommBufferE @4249
    _ZN4inet13physicallayer21ConfigureRadioCommand12setBandwidthENS_5units5valueIdNS2_3powINS2_5units1sELin1ELi1EEEEE @4250
    _ZN4inet13physicallayer21ConfigureRadioCommand12setRadioModeEi @4251
    _ZN4inet13physicallayer21ConfigureRadioCommand13setModulationEPNS0_11IModulationE @4252
    _ZN4inet13physicallayer21ConfigureRadioCommand18setCenterFrequencyENS_5units5valueIdNS2_3powINS2_5units1sELin1ELi1EEEEE @4253
    _ZN4inet13physicallayer21ConfigureRadioCommand4copyERKS1_ @4254
    _ZN4inet13physicallayer21ConfigureRadioCommand8setPowerENS_5units5valueIdNS2_7composeINS4_INS4_INS2_5units1mENS4_INS5_2kgENS2_3powINS5_1sELin2ELi1EEEEEEES6_EENS8_IS9_Lin1ELi1EEEEEEE @4255
    _ZN4inet13physicallayer21ConfigureRadioCommandC1ERKS1_ @4256
    _ZN4inet13physicallayer21ConfigureRadioCommandC1Ev @4257
    _ZN4inet13physicallayer21ConfigureRadioCommandC2ERKS1_ @4258
    _ZN4inet13physicallayer21ConfigureRadioCommandC2Ev @4259
    _ZN4inet13physicallayer21ConfigureRadioCommandD0Ev @4260
    _ZN4inet13physicallayer21ConfigureRadioCommandD1Ev @4261
    _ZN4inet13physicallayer21ConfigureRadioCommandD2Ev @4262
    _ZN4inet13physicallayer21ConfigureRadioCommandaSERKS1_ @4263
    _ZN4inet13physicallayer21DsssOqpsk16Modulation9singletonE @4264 DATA
    _ZN4inet13physicallayer21DsssOqpsk16ModulationC1Ev @4265
    _ZN4inet13physicallayer21DsssOqpsk16ModulationC2Ev @4266
    _ZN4inet13physicallayer21DsssOqpsk16ModulationD0Ev @4267
    _ZN4inet13physicallayer21DsssOqpsk16ModulationD1Ev @4268
    _ZN4inet13physicallayer21DsssOqpsk16ModulationD2Ev @4269
    _ZN4inet13physicallayer21EthernetPhyHeaderBase12parsimUnpackEPN7omnetpp11cCommBufferE @4270
    _ZN4inet13physicallayer21EthernetPhyHeaderBase4copyERKS1_ @4271
    _ZN4inet13physicallayer21EthernetPhyHeaderBaseC1ERKS1_ @4272
    _ZN4inet13physicallayer21EthernetPhyHeaderBaseC1Ev @4273
    _ZN4inet13physicallayer21EthernetPhyHeaderBaseC2ERKS1_ @4274
    _ZN4inet13physicallayer21EthernetPhyHeaderBaseC2Ev @4275
    _ZN4inet13physicallayer21EthernetPhyHeaderBaseD0Ev @4276
    _ZN4inet13physicallayer21EthernetPhyHeaderBaseD1Ev @4277
    _ZN4inet13physicallayer21EthernetPhyHeaderBaseD2Ev @4278
    _ZN4inet13physicallayer21EthernetPhyHeaderBaseaSERKS1_ @4279
    _ZN4inet13physicallayer21Ieee80211DsssDataModeC1EPKNS0_18DpskModulationBaseE @4280
    _ZN4inet13physicallayer21Ieee80211DsssDataModeC2EPKNS0_18DpskModulationBaseE @4281
    _ZN4inet13physicallayer21Ieee80211DsssOfdmModeC1EPKcPKNS0_25Ieee80211DsssPreambleModeEPKNS0_23Ieee80211DsssHeaderModeEPKNS0_25Ieee80211OfdmPreambleModeEPKNS0_23Ieee80211OfdmSignalModeEPKNS0_21Ieee80211OfdmDataModeE @4282
    _ZN4inet13physicallayer21Ieee80211DsssOfdmModeC2EPKcPKNS0_25Ieee80211DsssPreambleModeEPKNS0_23Ieee80211DsssHeaderModeEPKNS0_25Ieee80211OfdmPreambleModeEPKNS0_23Ieee80211OfdmSignalModeEPKNS0_21Ieee80211OfdmDataModeE @4283
    _ZN4inet13physicallayer21Ieee80211FhssDataModeC1EPKNS0_18GfskModulationBaseE @4284
    _ZN4inet13physicallayer21Ieee80211FhssDataModeC2EPKNS0_18GfskModulationBaseE @4285
    _ZN4inet13physicallayer21Ieee80211HtSignalModeC1EjPKNS0_23Ieee80211OfdmModulationEPKNS0_15Ieee80211HtCodeENS_5units5valueIdNS8_3powINS8_5units1sELin1ELi1EEEEENS0_19Ieee80211HtModeBase17GuardIntervalTypeE @4286
    _ZN4inet13physicallayer21Ieee80211HtSignalModeC1EjPKNS0_23Ieee80211OfdmModulationEPKNS0_26Ieee80211ConvolutionalCodeENS_5units5valueIdNS8_3powINS8_5units1sELin1ELi1EEEEENS0_19Ieee80211HtModeBase17GuardIntervalTypeE @4287
    _ZN4inet13physicallayer21Ieee80211HtSignalModeC2EjPKNS0_23Ieee80211OfdmModulationEPKNS0_15Ieee80211HtCodeENS_5units5valueIdNS8_3powINS8_5units1sELin1ELi1EEEEENS0_19Ieee80211HtModeBase17GuardIntervalTypeE @4288
    _ZN4inet13physicallayer21Ieee80211HtSignalModeC2EjPKNS0_23Ieee80211OfdmModulationEPKNS0_26Ieee80211ConvolutionalCodeENS_5units5valueIdNS8_3powINS8_5units1sELin1ELi1EEEEENS0_19Ieee80211HtModeBase17GuardIntervalTypeE @4289
    _ZN4inet13physicallayer21Ieee80211HtSignalModeD0Ev @4290
    _ZN4inet13physicallayer21Ieee80211HtSignalModeD1Ev @4291
    _ZN4inet13physicallayer21Ieee80211HtSignalModeD2Ev @4292
    _ZN4inet13physicallayer21Ieee80211IrHeaderModeC1EPKNS0_17PpmModulationBaseE @4293
    _ZN4inet13physicallayer21Ieee80211IrHeaderModeC2EPKNS0_17PpmModulationBaseE @4294
    _ZN4inet13physicallayer21Ieee80211OfdmDataModeC1EPKNS0_17Ieee80211OfdmCodeEPKNS0_23Ieee80211OfdmModulationENS_5units5valueIdNS8_3powINS8_5units1sELin1ELi1EEEEESE_ @4295
    _ZN4inet13physicallayer21Ieee80211OfdmDataModeC2EPKNS0_17Ieee80211OfdmCodeEPKNS0_23Ieee80211OfdmModulationENS_5units5valueIdNS8_3powINS8_5units1sELin1ELi1EEEEESE_ @4296
    _ZN4inet13physicallayer21Ieee80211OfdmModeBaseC1EPKNS0_23Ieee80211OfdmModulationEPKNS0_17Ieee80211OfdmCodeENS_5units5valueIdNS8_3powINS8_5units1sELin1ELi1EEEEESE_ @4297
    _ZN4inet13physicallayer21Ieee80211OfdmModeBaseC2EPKNS0_23Ieee80211OfdmModulationEPKNS0_17Ieee80211OfdmCodeENS_5units5valueIdNS8_3powINS8_5units1sELin1ELi1EEEEESE_ @4298
    _ZN4inet13physicallayer21Ieee80211ReceiverBase10initializeEi @4299
    _ZN4inet13physicallayer21Ieee80211ReceiverBase10setChannelEPKNS0_16Ieee80211ChannelE @4300
    _ZN4inet13physicallayer21Ieee80211ReceiverBase10setModeSetEPKNS0_16Ieee80211ModeSetE @4301
    _ZN4inet13physicallayer21Ieee80211ReceiverBase16setChannelNumberEi @4302
    _ZN4inet13physicallayer21Ieee80211ReceiverBase7setBandEPKNS0_14IIeee80211BandE @4303
    _ZN4inet13physicallayer21Ieee80211ReceiverBaseC1Ev @4304
    _ZN4inet13physicallayer21Ieee80211ReceiverBaseC2Ev @4305
    _ZN4inet13physicallayer21Ieee80211ReceiverBaseD0Ev @4306
    _ZN4inet13physicallayer21Ieee80211ReceiverBaseD1Ev @4307
    _ZN4inet13physicallayer21Ieee80211ReceiverBaseD2Ev @4308
    _ZN4inet13physicallayer21Ieee80211VhtPhyHeader12parsimUnpackEPN7omnetpp11cCommBufferE @4309
    _ZN4inet13physicallayer21Ieee80211VhtPhyHeader4copyERKS1_ @4310
    _ZN4inet13physicallayer21Ieee80211VhtPhyHeaderC1ERKS1_ @4311
    _ZN4inet13physicallayer21Ieee80211VhtPhyHeaderC1Ev @4312
    _ZN4inet13physicallayer21Ieee80211VhtPhyHeaderC2ERKS1_ @4313
    _ZN4inet13physicallayer21Ieee80211VhtPhyHeaderC2Ev @4314
    _ZN4inet13physicallayer21Ieee80211VhtPhyHeaderD0Ev @4315
    _ZN4inet13physicallayer21Ieee80211VhtPhyHeaderD1Ev @4316
    _ZN4inet13physicallayer21Ieee80211VhtPhyHeaderD2Ev @4317
    _ZN4inet13physicallayer21Ieee80211VhtPhyHeaderaSERKS1_ @4318
    _ZN4inet13physicallayer21MapCommunicationCache11removeRadioEPKNS0_6IRadioE @4319
    _ZN4inet13physicallayer21MapCommunicationCache15addTransmissionEPKNS0_13ITransmissionE @4320
    _ZN4inet13physicallayer21MapCommunicationCache18getRadioCacheEntryEPKNS0_6IRadioE @4321
    _ZN4inet13physicallayer21MapCommunicationCache18removeTransmissionEPKNS0_13ITransmissionE @4322
    _ZN4inet13physicallayer21MapCommunicationCache22getReceptionCacheEntryEPKNS0_6IRadioEPKNS0_13ITransmissionE @4323
    _ZN4inet13physicallayer21MapCommunicationCache25getTransmissionCacheEntryEPKNS0_13ITransmissionE @4324
    _ZN4inet13physicallayer21MapCommunicationCache33removeNonInterferingTransmissionsESt8functionIFvPKNS0_13ITransmissionEEE @4325
    _ZN4inet13physicallayer21MapCommunicationCache8addRadioEPKNS0_6IRadioE @4326
    _ZN4inet13physicallayer21MapCommunicationCacheD0Ev @4327
    _ZN4inet13physicallayer21MapCommunicationCacheD1Ev @4328
    _ZN4inet13physicallayer21MapCommunicationCacheD2Ev @4329
    _ZN4inet13physicallayer21QuadTreeNeighborCache10initializeEi @4330
    _ZN4inet13physicallayer21QuadTreeNeighborCache11removeRadioEPKNS0_6IRadioE @4331
    _ZN4inet13physicallayer21QuadTreeNeighborCache13handleMessageEPN7omnetpp8cMessageE @4332
    _ZN4inet13physicallayer21QuadTreeNeighborCache15rebuildQuadTreeEv @4333
    _ZN4inet13physicallayer21QuadTreeNeighborCache22fillQuadTreeWithRadiosEv @4334
    _ZN4inet13physicallayer21QuadTreeNeighborCache8addRadioEPKNS0_6IRadioE @4335
    _ZN4inet13physicallayer21QuadTreeNeighborCacheC1Ev @4336
    _ZN4inet13physicallayer21QuadTreeNeighborCacheC2Ev @4337
    _ZN4inet13physicallayer21QuadTreeNeighborCacheD0Ev @4338
    _ZN4inet13physicallayer21QuadTreeNeighborCacheD1Ev @4339
    _ZN4inet13physicallayer21QuadTreeNeighborCacheD2Ev @4340
    _ZN4inet13physicallayer21ScalarAnalogModelBase10initializeEi @4341
    _ZN4inet13physicallayer22ApskLayeredTransmitter10initializeEi @4342
    _ZN4inet13physicallayer22ApskLayeredTransmitterC1Ev @4343
    _ZN4inet13physicallayer22ApskLayeredTransmitterC2Ev @4344
    _ZN4inet13physicallayer22ApskScalarTransmissionC1EPKNS0_6IRadioEPKNS_6PacketEN7omnetpp7SimTimeES9_S9_S9_S9_RKNS_5CoordESC_RKNS_10QuaternionESF_PKNS0_11IModulationENS_5units5valueIxNSJ_5units1bEEESN_NSK_IdNSJ_3powINSL_1sELin1ELi1EEEEESR_NSK_IdNSJ_7composeISM_SQ_EEEENSK_IdNSS_INSS_INSS_INSL_1mENSS_INSL_2kgENSO_ISP_Lin2ELi1EEEEEEESV_EESQ_EEEE @4345
    _ZN4inet13physicallayer22ApskScalarTransmissionC2EPKNS0_6IRadioEPKNS_6PacketEN7omnetpp7SimTimeES9_S9_S9_S9_RKNS_5CoordESC_RKNS_10QuaternionESF_PKNS0_11IModulationENS_5units5valueIxNSJ_5units1bEEESN_NSK_IdNSJ_3powINSL_1sELin1ELi1EEEEESR_NSK_IdNSJ_7composeISM_SQ_EEEENSK_IdNSS_INSS_INSS_INSL_1mENSS_INSL_2kgENSO_ISP_Lin2ELi1EEEEEEESV_EESQ_EEEE @4346
    _ZN4inet13physicallayer22CommunicationCacheBase13getCachedSNIREPKNS0_6IRadioEPKNS0_13ITransmissionE @4347
    _ZN4inet13physicallayer22CommunicationCacheBase13setCachedSNIREPKNS0_6IRadioEPKNS0_13ITransmissionEPKNS0_5ISnirE @4348
    _ZN4inet13physicallayer22CommunicationCacheBase14getCachedNoiseEPKNS0_6IRadioEPKNS0_13ITransmissionE @4349
    _ZN4inet13physicallayer22CommunicationCacheBase14setCachedNoiseEPKNS0_6IRadioEPKNS0_13ITransmissionEPKNS0_6INoiseE @4350
    _ZN4inet13physicallayer22CommunicationCacheBase15RadioCacheEntryC1EOS2_ @4351
    _ZN4inet13physicallayer22CommunicationCacheBase15RadioCacheEntryC1ERKS2_ @4352
    _ZN4inet13physicallayer22CommunicationCacheBase15RadioCacheEntryC2EOS2_ @4353
    _ZN4inet13physicallayer22CommunicationCacheBase15RadioCacheEntryC2ERKS2_ @4354
    _ZN4inet13physicallayer22CommunicationCacheBase15RadioCacheEntryD0Ev @4355
    _ZN4inet13physicallayer22CommunicationCacheBase15RadioCacheEntryD1Ev @4356
    _ZN4inet13physicallayer22CommunicationCacheBase15RadioCacheEntryD2Ev @4357
    _ZN4inet13physicallayer22CommunicationCacheBase15RadioCacheEntryaSEOS2_ @4358
    _ZN4inet13physicallayer22CommunicationCacheBase15RadioCacheEntryaSERKS2_ @4359
    _ZN4inet13physicallayer22CommunicationCacheBase15getCachedSignalEPKNS0_13ITransmissionE @4360
    _ZN4inet13physicallayer22CommunicationCacheBase15getCachedSignalEPKNS0_6IRadioEPKNS0_13ITransmissionE @4361
    _ZN4inet13physicallayer22CommunicationCacheBase15setCachedSignalEPKNS0_13ITransmissionEPKNS0_15IWirelessSignalE @4362
    _ZN4inet13physicallayer22CommunicationCacheBase15setCachedSignalEPKNS0_6IRadioEPKNS0_13ITransmissionEPKNS0_15IWirelessSignalE @4363
    _ZN4inet13physicallayer22CommunicationCacheBase16getCachedArrivalEPKNS0_6IRadioEPKNS0_13ITransmissionE @4364
    _ZN4inet13physicallayer22CommunicationCacheBase16removeCachedSNIREPKNS0_6IRadioEPKNS0_13ITransmissionE @4365
    _ZN4inet13physicallayer22CommunicationCacheBase16setCachedArrivalEPKNS0_6IRadioEPKNS0_13ITransmissionEPKNS0_8IArrivalE @4366
    _ZN4inet13physicallayer22CommunicationCacheBase17getCachedIntervalEPKNS0_6IRadioEPKNS0_13ITransmissionE @4367
    _ZN4inet13physicallayer22CommunicationCacheBase17removeCachedNoiseEPKNS0_6IRadioEPKNS0_13ITransmissionE @4368
    _ZN4inet13physicallayer22CommunicationCacheBase17setCachedIntervalEPKNS0_6IRadioEPKNS0_13ITransmissionEPKNS_12IntervalTree8IntervalE @4369
    _ZN4inet13physicallayer22CommunicationCacheBase18getCachedListeningEPKNS0_6IRadioEPKNS0_13ITransmissionE @4370
    _ZN4inet13physicallayer22CommunicationCacheBase18getCachedReceptionEPKNS0_6IRadioEPKNS0_13ITransmissionE @4371
    _ZN4inet13physicallayer22CommunicationCacheBase18removeCachedSignalEPKNS0_13ITransmissionE @4372
    _ZN4inet13physicallayer22CommunicationCacheBase18removeCachedSignalEPKNS0_6IRadioEPKNS0_13ITransmissionE @4373
    _ZN4inet13physicallayer22CommunicationCacheBase18setCachedListeningEPKNS0_6IRadioEPKNS0_13ITransmissionEPKNS0_10IListeningE @4374
    _ZN4inet13physicallayer22CommunicationCacheBase18setCachedReceptionEPKNS0_6IRadioEPKNS0_13ITransmissionEPKNS0_10IReceptionE @4375
    _ZN4inet13physicallayer22CommunicationCacheBase19ReceptionCacheEntryC1EOS2_ @4376
    _ZN4inet13physicallayer22CommunicationCacheBase19ReceptionCacheEntryC1ERKS2_ @4377
    _ZN4inet13physicallayer22CommunicationCacheBase19ReceptionCacheEntryC1Ev @4378
    _ZN4inet13physicallayer22CommunicationCacheBase19ReceptionCacheEntryC2EOS2_ @4379
    _ZN4inet13physicallayer22CommunicationCacheBase19ReceptionCacheEntryC2ERKS2_ @4380
    _ZN4inet13physicallayer22CommunicationCacheBase19ReceptionCacheEntryC2Ev @4381
    _ZN4inet13physicallayer22CommunicationCacheBase19ReceptionCacheEntryD0Ev @4382
    _ZN4inet13physicallayer22CommunicationCacheBase19ReceptionCacheEntryD1Ev @4383
    _ZN4inet13physicallayer22CommunicationCacheBase19ReceptionCacheEntryD2Ev @4384
    _ZN4inet13physicallayer22CommunicationCacheBase19ReceptionCacheEntryaSEOS2_ @4385
    _ZN4inet13physicallayer22CommunicationCacheBase19ReceptionCacheEntryaSERKS2_ @4386
    _ZN4inet13physicallayer22CommunicationCacheBase19removeCachedArrivalEPKNS0_6IRadioEPKNS0_13ITransmissionE @4387
    _ZN4inet13physicallayer22CommunicationCacheBase20removeCachedIntervalEPKNS0_6IRadioEPKNS0_13ITransmissionE @4388
    _ZN4inet13physicallayer22CommunicationCacheBase21getCachedInterferenceEPKNS0_6IRadioEPKNS0_13ITransmissionE @4389
    _ZN4inet13physicallayer22CommunicationCacheBase21removeCachedListeningEPKNS0_6IRadioEPKNS0_13ITransmissionE @4390
    _ZN4inet13physicallayer22CommunicationCacheBase21removeCachedReceptionEPKNS0_6IRadioEPKNS0_13ITransmissionE @4391
    _ZN4inet13physicallayer22CommunicationCacheBase21setCachedInterferenceEPKNS0_6IRadioEPKNS0_13ITransmissionEPKNS0_13IInterferenceE @4392
    _ZN4inet13physicallayer22CommunicationCacheBase22TransmissionCacheEntry12deleteSignalEv @4393
    _ZN4inet13physicallayer22CommunicationCacheBase22TransmissionCacheEntryC1EOS2_ @4394
    _ZN4inet13physicallayer22CommunicationCacheBase22TransmissionCacheEntryC1ERKS2_ @4395
    _ZN4inet13physicallayer22CommunicationCacheBase22TransmissionCacheEntryC2EOS2_ @4396
    _ZN4inet13physicallayer22CommunicationCacheBase22TransmissionCacheEntryC2ERKS2_ @4397
    _ZN4inet13physicallayer22CommunicationCacheBase22TransmissionCacheEntryD0Ev @4398
    _ZN4inet13physicallayer22CommunicationCacheBase22TransmissionCacheEntryD1Ev @4399
    _ZN4inet13physicallayer22CommunicationCacheBase22TransmissionCacheEntryD2Ev @4400
    _ZN4inet13physicallayer22CommunicationCacheBase22TransmissionCacheEntryaSEOS2_ @4401
    _ZN4inet13physicallayer22CommunicationCacheBase22TransmissionCacheEntryaSERKS2_ @4402
    _ZN4inet13physicallayer22CommunicationCacheBase24getCachedReceptionResultEPKNS0_6IRadioEPKNS0_13ITransmissionE @4403
    _ZN4inet13physicallayer22CommunicationCacheBase24removeCachedInterferenceEPKNS0_6IRadioEPKNS0_13ITransmissionE @4404
    _ZN4inet13physicallayer22CommunicationCacheBase24setCachedReceptionResultEPKNS0_6IRadioEPKNS0_13ITransmissionEPKNS0_16IReceptionResultE @4405
    _ZN4inet13physicallayer22CommunicationCacheBase26getCachedReceptionDecisionEPKNS0_6IRadioEPKNS0_13ITransmissionENS0_12IRadioSignal10SignalPartE @4406
    _ZN4inet13physicallayer22CommunicationCacheBase26setCachedReceptionDecisionEPKNS0_6IRadioEPKNS0_13ITransmissionENS0_12IRadioSignal10SignalPartEPKNS0_18IReceptionDecisionE @4407
    _ZN4inet13physicallayer22CommunicationCacheBase27removeCachedReceptionResultEPKNS0_6IRadioEPKNS0_13ITransmissionE @4408
    _ZN4inet13physicallayer22CommunicationCacheBase28getCachedInterferenceEndTimeEPKNS0_13ITransmissionE @4409
    _ZN4inet13physicallayer22CommunicationCacheBase28setCachedInterferenceEndTimeEPKNS0_13ITransmissionEN7omnetpp7SimTimeE @4410
    _ZN4inet13physicallayer22CommunicationCacheBase29removeCachedReceptionDecisionEPKNS0_6IRadioEPKNS0_13ITransmissionENS0_12IRadioSignal10SignalPartE @4411
    _ZN4inet13physicallayer22CommunicationCacheBase31computeInterferingTransmissionsEPKNS0_6IRadioEN7omnetpp7SimTimeES6_ @4412
    _ZN4inet13physicallayer22CommunicationCacheBase31removeCachedInterferenceEndTimeEPKNS0_13ITransmissionE @4413
    _ZN4inet13physicallayer22DielectricObstacleLoss10initializeEi @4414
    _ZN4inet13physicallayer22DielectricObstacleLoss28TotalObstacleLossComputationC1EPKS1_NS_5units5valueIdNS5_3powINS5_5units1sELin1ELi1EEEEERKNS_5CoordESE_ @4415
    _ZN4inet13physicallayer22DielectricObstacleLoss28TotalObstacleLossComputationC2EPKS1_NS_5units5valueIdNS5_3powINS5_5units1sELin1ELi1EEEEERKNS_5CoordESE_ @4416
    _ZN4inet13physicallayer22DielectricObstacleLoss6finishEv @4417
    _ZN4inet13physicallayer22DielectricObstacleLossC1Ev @4418
    _ZN4inet13physicallayer22DielectricObstacleLossC2Ev @4419
    _ZN4inet13physicallayer22Ieee80211DsssPhyHeader10setCrcModeENS_7CrcModeE @4420
    _ZN4inet13physicallayer22Ieee80211DsssPhyHeader10setServiceEh @4421
    _ZN4inet13physicallayer22Ieee80211DsssPhyHeader12parsimUnpackEPN7omnetpp11cCommBufferE @4422
    _ZN4inet13physicallayer22Ieee80211DsssPhyHeader4copyERKS1_ @4423
    _ZN4inet13physicallayer22Ieee80211DsssPhyHeader6setCrcEt @4424
    _ZN4inet13physicallayer22Ieee80211DsssPhyHeader9setSignalEh @4425
    _ZN4inet13physicallayer22Ieee80211DsssPhyHeaderC1ERKS1_ @4426
    _ZN4inet13physicallayer22Ieee80211DsssPhyHeaderC1Ev @4427
    _ZN4inet13physicallayer22Ieee80211DsssPhyHeaderC2ERKS1_ @4428
    _ZN4inet13physicallayer22Ieee80211DsssPhyHeaderC2Ev @4429
    _ZN4inet13physicallayer22Ieee80211DsssPhyHeaderD0Ev @4430
    _ZN4inet13physicallayer22Ieee80211DsssPhyHeaderD1Ev @4431
    _ZN4inet13physicallayer22Ieee80211DsssPhyHeaderD2Ev @4432
    _ZN4inet13physicallayer22Ieee80211DsssPhyHeaderaSERKS1_ @4433
    _ZN4inet13physicallayer22Ieee80211FhssPhyHeader10setCrcModeENS_7CrcModeE @4434
    _ZN4inet13physicallayer22Ieee80211FhssPhyHeader12parsimUnpackEPN7omnetpp11cCommBufferE @4435
    _ZN4inet13physicallayer22Ieee80211FhssPhyHeader4copyERKS1_ @4436
    _ZN4inet13physicallayer22Ieee80211FhssPhyHeader6setCrcEt @4437
    _ZN4inet13physicallayer22Ieee80211FhssPhyHeader6setPlwEt @4438
    _ZN4inet13physicallayer22Ieee80211FhssPhyHeader6setPsfEh @4439
    _ZN4inet13physicallayer22Ieee80211FhssPhyHeaderC1ERKS1_ @4440
    _ZN4inet13physicallayer22Ieee80211FhssPhyHeaderC1Ev @4441
    _ZN4inet13physicallayer22Ieee80211FhssPhyHeaderC2ERKS1_ @4442
    _ZN4inet13physicallayer22Ieee80211FhssPhyHeaderC2Ev @4443
    _ZN4inet13physicallayer22Ieee80211FhssPhyHeaderD0Ev @4444
    _ZN4inet13physicallayer22Ieee80211FhssPhyHeaderD1Ev @4445
    _ZN4inet13physicallayer22Ieee80211FhssPhyHeaderD2Ev @4446
    _ZN4inet13physicallayer22Ieee80211FhssPhyHeaderaSERKS1_ @4447
    _ZN4inet13physicallayer22Ieee80211HtPhyPreamble12parsimUnpackEPN7omnetpp11cCommBufferE @4448
    _ZN4inet13physicallayer22Ieee80211HtPhyPreamble4copyERKS1_ @4449
    _ZN4inet13physicallayer22Ieee80211HtPhyPreambleC1ERKS1_ @4450
    _ZN4inet13physicallayer22Ieee80211HtPhyPreambleC1Ev @4451
    _ZN4inet13physicallayer22Ieee80211HtPhyPreambleC2ERKS1_ @4452
    _ZN4inet13physicallayer22Ieee80211HtPhyPreambleC2Ev @4453
    _ZN4inet13physicallayer22Ieee80211HtPhyPreambleD0Ev @4454
    _ZN4inet13physicallayer22Ieee80211HtPhyPreambleD1Ev @4455
    _ZN4inet13physicallayer22Ieee80211HtPhyPreambleD2Ev @4456
    _ZN4inet13physicallayer22Ieee80211HtPhyPreambleaSERKS1_ @4457
    _ZN4inet13physicallayer22Ieee80211IrPhyPreamble12parsimUnpackEPN7omnetpp11cCommBufferE @4458
    _ZN4inet13physicallayer22Ieee80211IrPhyPreamble4copyERKS1_ @4459
    _ZN4inet13physicallayer22Ieee80211IrPhyPreambleC1ERKS1_ @4460
    _ZN4inet13physicallayer22Ieee80211IrPhyPreambleC1Ev @4461
    _ZN4inet13physicallayer22Ieee80211IrPhyPreambleC2ERKS1_ @4462
    _ZN4inet13physicallayer22Ieee80211IrPhyPreambleC2Ev @4463
    _ZN4inet13physicallayer22Ieee80211IrPhyPreambleD0Ev @4464
    _ZN4inet13physicallayer22Ieee80211IrPhyPreambleD1Ev @4465
    _ZN4inet13physicallayer22Ieee80211IrPhyPreambleD2Ev @4466
    _ZN4inet13physicallayer22Ieee80211IrPhyPreambleaSERKS1_ @4467
    _ZN4inet13physicallayer22Ieee80211OfdmModulator23negativePilotSubcarrierE @4468 DATA
    _ZN4inet13physicallayer22Ieee80211OfdmModulator23positivePilotSubcarrierE @4469 DATA
    _ZN4inet13physicallayer22Ieee80211OfdmModulator29pilotSubcarrierPolarityVectorE @4470 DATA
    _ZN4inet13physicallayer22Ieee80211OfdmModulatorC1EPKNS0_23Ieee80211OfdmModulationEj @4471
    _ZN4inet13physicallayer22Ieee80211OfdmModulatorC2EPKNS0_23Ieee80211OfdmModulationEj @4472
    _ZN4inet13physicallayer22Ieee80211OfdmPhyHeader10setServiceEt @4473
    _ZN4inet13physicallayer22Ieee80211OfdmPhyHeader11setReservedEb @4474
    _ZN4inet13physicallayer22Ieee80211OfdmPhyHeader12parsimUnpackEPN7omnetpp11cCommBufferE @4475
    _ZN4inet13physicallayer22Ieee80211OfdmPhyHeader4copyERKS1_ @4476
    _ZN4inet13physicallayer22Ieee80211OfdmPhyHeader7setRateEh @4477
    _ZN4inet13physicallayer22Ieee80211OfdmPhyHeader7setTailEh @4478
    _ZN4inet13physicallayer22Ieee80211OfdmPhyHeader9setParityEb @4479
    _ZN4inet13physicallayer22Ieee80211OfdmPhyHeaderC1ERKS1_ @4480
    _ZN4inet13physicallayer22Ieee80211OfdmPhyHeaderC1Ev @4481
    _ZN4inet13physicallayer22Ieee80211OfdmPhyHeaderC2ERKS1_ @4482
    _ZN4inet13physicallayer22Ieee80211OfdmPhyHeaderC2Ev @4483
    _ZN4inet13physicallayer22Ieee80211OfdmPhyHeaderD0Ev @4484
    _ZN4inet13physicallayer22Ieee80211OfdmPhyHeaderD1Ev @4485
    _ZN4inet13physicallayer22Ieee80211OfdmPhyHeaderD2Ev @4486
    _ZN4inet13physicallayer22Ieee80211OfdmPhyHeaderaSERKS1_ @4487
    _ZN4inet13physicallayer22Ieee80211VhtSignalModeC1EjPKNS0_23Ieee80211OfdmModulationEPKNS0_16Ieee80211VhtCodeENS_5units5valueIdNS8_3powINS8_5units1sELin1ELi1EEEEENS0_20Ieee80211VhtModeBase17GuardIntervalTypeE @4488
    _ZN4inet13physicallayer22Ieee80211VhtSignalModeC1EjPKNS0_23Ieee80211OfdmModulationEPKNS0_26Ieee80211ConvolutionalCodeENS_5units5valueIdNS8_3powINS8_5units1sELin1ELi1EEEEENS0_20Ieee80211VhtModeBase17GuardIntervalTypeE @4489
    _ZN4inet13physicallayer22Ieee80211VhtSignalModeC2EjPKNS0_23Ieee80211OfdmModulationEPKNS0_16Ieee80211VhtCodeENS_5units5valueIdNS8_3powINS8_5units1sELin1ELi1EEEEENS0_20Ieee80211VhtModeBase17GuardIntervalTypeE @4490
    _ZN4inet13physicallayer22Ieee80211VhtSignalModeC2EjPKNS0_23Ieee80211OfdmModulationEPKNS0_26Ieee80211ConvolutionalCodeENS_5units5valueIdNS8_3powINS8_5units1sELin1ELi1EEEEENS0_20Ieee80211VhtModeBase17GuardIntervalTypeE @4491
    _ZN4inet13physicallayer22Ieee80211VhtSignalModeD0Ev @4492
    _ZN4inet13physicallayer22Ieee80211VhtSignalModeD1Ev @4493
    _ZN4inet13physicallayer22Ieee80211VhtSignalModeD2Ev @4494
    _ZN4inet13physicallayer22LayeredReceptionResultC1EPKNS0_10IReceptionEPKSt6vectorIPKNS0_18IReceptionDecisionESaIS8_EEPKNS0_21IReceptionPacketModelEPKNS0_18IReceptionBitModelEPKNS0_21IReceptionSymbolModelEPKNS0_21IReceptionSampleModelEPKNS0_21IReceptionAnalogModelE @4495
    _ZN4inet13physicallayer22LayeredReceptionResultC2EPKNS0_10IReceptionEPKSt6vectorIPKNS0_18IReceptionDecisionESaIS8_EEPKNS0_21IReceptionPacketModelEPKNS0_18IReceptionBitModelEPKNS0_21IReceptionSymbolModelEPKNS0_21IReceptionSampleModelEPKNS0_21IReceptionAnalogModelE @4496
    _ZN4inet13physicallayer22LayeredReceptionResultD0Ev @4497
    _ZN4inet13physicallayer22LayeredReceptionResultD1Ev @4498
    _ZN4inet13physicallayer22LayeredReceptionResultD2Ev @4499
    _ZN4inet13physicallayer22NarrowbandReceiverBase10initializeEi @4500
    _ZN4inet13physicallayer22NarrowbandReceiverBaseC2Ev @4501
    _ZN4inet13physicallayer22TwoRayGroundReflection10initializeEi @4502
    _ZN4inet13physicallayer23AdditiveScramblerModule10initializeEi @4503
    _ZN4inet13physicallayer23AdditiveScramblerModuleD0Ev @4504
    _ZN4inet13physicallayer23AdditiveScramblerModuleD1Ev @4505
    _ZN4inet13physicallayer23AdditiveScramblerModuleD2Ev @4506
    _ZN4inet13physicallayer23ApskDimensionalReceiverC1Ev @4507
    _ZN4inet13physicallayer23ApskDimensionalReceiverC2Ev @4508
    _ZN4inet13physicallayer23AxiallySymmetricAntenna10initializeEi @4509
    _ZN4inet13physicallayer23AxiallySymmetricAntenna11AntennaGainC1EPKcdS4_ @4510
    _ZN4inet13physicallayer23AxiallySymmetricAntenna11AntennaGainC2EPKcdS4_ @4511
    _ZN4inet13physicallayer23AxiallySymmetricAntennaC1Ev @4512
    _ZN4inet13physicallayer23AxiallySymmetricAntennaC2Ev @4513
    _ZN4inet13physicallayer23ConstantTimePropagation10initializeEi @4514
    _ZN4inet13physicallayer23ConstantTimePropagationC1Ev @4515
    _ZN4inet13physicallayer23ConstantTimePropagationC2Ev @4516
    _ZN4inet13physicallayer23DimensionalTransmissionC1EPKNS0_6IRadioEPKNS_6PacketEN7omnetpp7SimTimeES9_S9_S9_S9_RKNS_5CoordESC_RKNS_10QuaternionESF_PKNS0_11IModulationENS_5units5valueIxNSJ_5units1bEEESN_NSK_IdNSJ_3powINSL_1sELin1ELi1EEEEESR_NSK_IdNSJ_7composeISM_SQ_EEEERKNS_12IntrusivePtrIKNS_4math9IFunctionINSK_IdNSS_INSS_INSS_INSS_INSL_1mENSS_INSL_2kgENSO_ISP_Lin2ELi1EEEEEEESY_EESQ_EENSO_ISQ_Lin1ELi1EEEEEEENSW_6DomainIJNSK_IS9_SP_EESR_EEEEEEE @4517
    _ZN4inet13physicallayer23DimensionalTransmissionC2EPKNS0_6IRadioEPKNS_6PacketEN7omnetpp7SimTimeES9_S9_S9_S9_RKNS_5CoordESC_RKNS_10QuaternionESF_PKNS0_11IModulationENS_5units5valueIxNSJ_5units1bEEESN_NSK_IdNSJ_3powINSL_1sELin1ELi1EEEEESR_NSK_IdNSJ_7composeISM_SQ_EEEERKNS_12IntrusivePtrIKNS_4math9IFunctionINSK_IdNSS_INSS_INSS_INSS_INSL_1mENSS_INSL_2kgENSO_ISP_Lin2ELi1EEEEEEESY_EESQ_EENSO_ISQ_Lin1ELi1EEEEEEENSW_6DomainIJNSK_IS9_SP_EESR_EEEEEEE @4518
    _ZN4inet13physicallayer23EthernetFilledIfgSignal12parsimUnpackEPN7omnetpp11cCommBufferE @4519
    _ZN4inet13physicallayer23EthernetFilledIfgSignal4copyERKS1_ @4520
    _ZN4inet13physicallayer23EthernetFilledIfgSignalC1EPKcs @4521
    _ZN4inet13physicallayer23EthernetFilledIfgSignalC1ERKS1_ @4522
    _ZN4inet13physicallayer23EthernetFilledIfgSignalC2EPKcs @4523
    _ZN4inet13physicallayer23EthernetFilledIfgSignalC2ERKS1_ @4524
    _ZN4inet13physicallayer23EthernetFilledIfgSignalD0Ev @4525
    _ZN4inet13physicallayer23EthernetFilledIfgSignalD1Ev @4526
    _ZN4inet13physicallayer23EthernetFilledIfgSignalD2Ev @4527
    _ZN4inet13physicallayer23EthernetFilledIfgSignalaSERKS1_ @4528
    _ZN4inet13physicallayer23Ieee80211ChannelTagBase10setChannelEPKNS0_16Ieee80211ChannelE @4529
    _ZN4inet13physicallayer23Ieee80211ChannelTagBase12parsimUnpackEPN7omnetpp11cCommBufferE @4530
    _ZN4inet13physicallayer23Ieee80211ChannelTagBase4copyERKS1_ @4531
    _ZN4inet13physicallayer23Ieee80211ChannelTagBaseC1ERKS1_ @4532
    _ZN4inet13physicallayer23Ieee80211ChannelTagBaseC1Ev @4533
    _ZN4inet13physicallayer23Ieee80211ChannelTagBaseC2ERKS1_ @4534
    _ZN4inet13physicallayer23Ieee80211ChannelTagBaseC2Ev @4535
    _ZN4inet13physicallayer23Ieee80211ChannelTagBaseD0Ev @4536
    _ZN4inet13physicallayer23Ieee80211ChannelTagBaseD1Ev @4537
    _ZN4inet13physicallayer23Ieee80211ChannelTagBaseD2Ev @4538
    _ZN4inet13physicallayer23Ieee80211ChannelTagBaseaSERKS1_ @4539
    _ZN4inet13physicallayer23Ieee80211CompliantBands10band2_4GHzE @4540 DATA
    _ZN4inet13physicallayer23Ieee80211CompliantBands10band5_9GHzE @4541 DATA
    _ZN4inet13physicallayer23Ieee80211CompliantBands13band5GHz20MHzE @4542 DATA
    _ZN4inet13physicallayer23Ieee80211CompliantBands13band5GHz40MHzE @4543 DATA
    _ZN4inet13physicallayer23Ieee80211CompliantBands13band5GHz80MHzE @4544 DATA
    _ZN4inet13physicallayer23Ieee80211CompliantBands14band5GHz160MHzE @4545 DATA
    _ZN4inet13physicallayer23Ieee80211CompliantBands5bandsE @4546 DATA
    _ZN4inet13physicallayer23Ieee80211CompliantBands7getBandEPKc @4547
    _ZN4inet13physicallayer23Ieee80211CompliantBands8band5GHzE @4548 DATA
    _ZN4inet13physicallayer23Ieee80211CompliantBands8findBandEPKc @4549
    _ZN4inet13physicallayer23Ieee80211EnumeratedBandC1EPKcSt6vectorINS_5units5valueIdNS5_3powINS5_5units1sELin1ELi1EEEEESaISB_EE @4550
    _ZN4inet13physicallayer23Ieee80211EnumeratedBandC2EPKcSt6vectorINS_5units5valueIdNS5_3powINS5_5units1sELin1ELi1EEEEESaISB_EE @4551
    _ZN4inet13physicallayer23Ieee80211ErrorModelBaseC2Ev @4552
    _ZN4inet13physicallayer23Ieee80211HrDsssDataModeC1ENS_5units5valueIdNS2_7composeINS2_5units1bENS2_3powINS5_1sELin1ELi1EEEEEEE @4553
    _ZN4inet13physicallayer23Ieee80211HrDsssDataModeC2ENS_5units5valueIdNS2_7composeINS2_5units1bENS2_3powINS5_1sELin1ELi1EEEEEEE @4554
    _ZN4inet13physicallayer23Ieee80211HtInterleavingC1ERKSt6vectorIjSaIjEENS_5units5valueIdNS7_3powINS7_5units1sELin1ELi1EEEEE @4555
    _ZN4inet13physicallayer23Ieee80211HtInterleavingC2ERKSt6vectorIjSaIjEENS_5units5valueIdNS7_3powINS7_5units1sELin1ELi1EEEEE @4556
    _ZN4inet13physicallayer23Ieee80211HtPreambleModeC1EPKNS0_21Ieee80211HtSignalModeEPKNS0_23Ieee80211OfdmSignalModeENS1_27HighTroughputPreambleFormatEj @4557
    _ZN4inet13physicallayer23Ieee80211HtPreambleModeC2EPKNS0_21Ieee80211HtSignalModeEPKNS0_23Ieee80211OfdmSignalModeENS1_27HighTroughputPreambleFormatEj @4558
    _ZN4inet13physicallayer23Ieee80211IrPreambleModeC1Ei @4559
    _ZN4inet13physicallayer23Ieee80211IrPreambleModeC2Ei @4560
    _ZN4inet13physicallayer23Ieee80211OfdmErrorModel10initializeEi @4561
    _ZN4inet13physicallayer23Ieee80211OfdmModulationC1EPKNS0_18ApskModulationBaseE @4562
    _ZN4inet13physicallayer23Ieee80211OfdmModulationC2EPKNS0_18ApskModulationBaseE @4563
    _ZN4inet13physicallayer23Ieee80211OfdmSignalModeC1EPKNS0_17Ieee80211OfdmCodeEPKNS0_23Ieee80211OfdmModulationENS_5units5valueIdNS8_3powINS8_5units1sELin1ELi1EEEEESE_j @4564
    _ZN4inet13physicallayer23Ieee80211OfdmSignalModeC2EPKNS0_17Ieee80211OfdmCodeEPKNS0_23Ieee80211OfdmModulationENS_5units5valueIdNS8_3powINS8_5units1sELin1ELi1EEEEESE_j @4565
    _ZN4inet13physicallayer23Ieee80211ScalarReceiverC1Ev @4566
    _ZN4inet13physicallayer23Ieee80211ScalarReceiverC2Ev @4567
    _ZN4inet13physicallayer23Ieee80211VhtPhyPreamble12parsimUnpackEPN7omnetpp11cCommBufferE @4568
    _ZN4inet13physicallayer23Ieee80211VhtPhyPreamble4copyERKS1_ @4569
    _ZN4inet13physicallayer23Ieee80211VhtPhyPreambleC1ERKS1_ @4570
    _ZN4inet13physicallayer23Ieee80211VhtPhyPreambleC1Ev @4571
    _ZN4inet13physicallayer23Ieee80211VhtPhyPreambleC2ERKS1_ @4572
    _ZN4inet13physicallayer23Ieee80211VhtPhyPreambleC2Ev @4573
    _ZN4inet13physicallayer23Ieee80211VhtPhyPreambleD0Ev @4574
    _ZN4inet13physicallayer23Ieee80211VhtPhyPreambleD1Ev @4575
    _ZN4inet13physicallayer23Ieee80211VhtPhyPreambleD2Ev @4576
    _ZN4inet13physicallayer23Ieee80211VhtPhyPreambleaSERKS1_ @4577
    _ZN4inet13physicallayer23Ieee802154UwbIrReceiver10initializeEi @4578
    _ZN4inet13physicallayer23Ieee802154UwbIrReceiverC1Ev @4579
    _ZN4inet13physicallayer23Ieee802154UwbIrReceiverC2Ev @4580
    _ZN4inet13physicallayer23NarrowbandReceptionBaseC2EPKNS0_6IRadioEPKNS0_13ITransmissionEN7omnetpp7SimTimeES9_RKNS_5CoordESC_RKNS_10QuaternionESF_NS_5units5valueIdNSG_3powINSG_5units1sELin1ELi1EEEEESM_ @4581
    _ZN4inet13physicallayer23ScalarSignalAnalogModelC1EN7omnetpp7SimTimeENS_5units5valueIdNS4_3powINS4_5units1sELin1ELi1EEEEESA_NS5_IdNS4_7composeINSB_INSB_INS7_1mENSB_INS7_2kgENS6_IS8_Lin2ELi1EEEEEEESC_EES9_EEEE @4582
    _ZN4inet13physicallayer23ScalarSignalAnalogModelC2EN7omnetpp7SimTimeENS_5units5valueIdNS4_3powINS4_5units1sELin1ELi1EEEEESA_NS5_IdNS4_7composeINSB_INSB_INS7_1mENSB_INS7_2kgENS6_IS8_Lin2ELi1EEEEEEESC_EES9_EEEE @4583
    _ZN4inet13physicallayer23TransmissionPacketModelC1EPKNS_6PacketENS_5units5valueIdNS5_7composeINS5_5units1bENS5_3powINS8_1sELin1ELi1EEEEEEE @4584
    _ZN4inet13physicallayer23TransmissionPacketModelC2EPKNS_6PacketENS_5units5valueIdNS5_7composeINS5_5units1bENS5_3powINS8_1sELin1ELi1EEEEEEE @4585
    _ZN4inet13physicallayer23TransmissionSampleModelC1EidPKSt6vectorINS_5units5valueIdNS3_7composeINS5_INS5_INS3_5units1mENS5_INS6_2kgENS3_3powINS6_1sELin2ELi1EEEEEEES7_EENS9_ISA_Lin1ELi1EEEEEEESaISH_EE @4586
    _ZN4inet13physicallayer23TransmissionSampleModelC2EidPKSt6vectorINS_5units5valueIdNS3_7composeINS5_INS5_INS3_5units1mENS5_INS6_2kgENS3_3powINS6_1sELin2ELi1EEEEEEES7_EENS9_ISA_Lin1ELi1EEEEEEESaISH_EE @4587
    _ZN4inet13physicallayer23TransmissionSymbolModelC1EididPKSt6vectorIPKNS0_7ISymbolESaIS5_EEPKNS0_11IModulationESC_ @4588
    _ZN4inet13physicallayer23TransmissionSymbolModelC2EididPKSt6vectorIPKNS0_7ISymbolESaIS5_EEPKNS0_11IModulationESC_ @4589
    _ZN4inet13physicallayer23UwbIrStochasticPathLoss10initializeEi @4590
    _ZN4inet13physicallayer23UwbIrStochasticPathLoss2d0E @4591 DATA
    _ZN4inet13physicallayer23UwbIrStochasticPathLoss2fcE @4592 DATA
    _ZN4inet13physicallayer23UwbIrStochasticPathLoss5kappaE @4593 DATA
    _ZN4inet13physicallayer23UwbIrStochasticPathLoss8n1_limitE @4594 DATA
    _ZN4inet13physicallayer23UwbIrStochasticPathLoss8n2_limitE @4595 DATA
    _ZN4inet13physicallayer23UwbIrStochasticPathLoss8n3_limitE @4596 DATA
    _ZN4inet13physicallayer23UwbIrStochasticPathLossC1Ev @4597
    _ZN4inet13physicallayer23UwbIrStochasticPathLossC2Ev @4598
    _ZN4inet13physicallayer24ConstantSpeedPropagation10initializeEi @4599
    _ZN4inet13physicallayer24ConstantSpeedPropagationC1Ev @4600
    _ZN4inet13physicallayer24ConstantSpeedPropagationC2Ev @4601
    _ZN4inet13physicallayer24ConvolutionalCoderModule10initializeEi @4602
    _ZN4inet13physicallayer24ConvolutionalCoderModuleD0Ev @4603
    _ZN4inet13physicallayer24ConvolutionalCoderModuleD1Ev @4604
    _ZN4inet13physicallayer24ConvolutionalCoderModuleD2Ev @4605
    _ZN4inet13physicallayer24EthernetPhyHeaderChecker10dropPacketEPNS_6PacketE @4606
    _ZN4inet13physicallayer24EthernetPhyHeaderChecker13processPacketEPNS_6PacketE @4607
    _ZN4inet13physicallayer24Ieee80211DsssPhyPreamble12parsimUnpackEPN7omnetpp11cCommBufferE @4608
    _ZN4inet13physicallayer24Ieee80211DsssPhyPreamble4copyERKS1_ @4609
    _ZN4inet13physicallayer24Ieee80211DsssPhyPreambleC1ERKS1_ @4610
    _ZN4inet13physicallayer24Ieee80211DsssPhyPreambleC1Ev @4611
    _ZN4inet13physicallayer24Ieee80211DsssPhyPreambleC2ERKS1_ @4612
    _ZN4inet13physicallayer24Ieee80211DsssPhyPreambleC2Ev @4613
    _ZN4inet13physicallayer24Ieee80211DsssPhyPreambleD0Ev @4614
    _ZN4inet13physicallayer24Ieee80211DsssPhyPreambleD1Ev @4615
    _ZN4inet13physicallayer24Ieee80211DsssPhyPreambleD2Ev @4616
    _ZN4inet13physicallayer24Ieee80211DsssPhyPreambleaSERKS1_ @4617
    _ZN4inet13physicallayer24Ieee80211FhssPhyPreamble12parsimUnpackEPN7omnetpp11cCommBufferE @4618
    _ZN4inet13physicallayer24Ieee80211FhssPhyPreamble4copyERKS1_ @4619
    _ZN4inet13physicallayer24Ieee80211FhssPhyPreambleC1ERKS1_ @4620
    _ZN4inet13physicallayer24Ieee80211FhssPhyPreambleC1Ev @4621
    _ZN4inet13physicallayer24Ieee80211FhssPhyPreambleC2ERKS1_ @4622
    _ZN4inet13physicallayer24Ieee80211FhssPhyPreambleC2Ev @4623
    _ZN4inet13physicallayer24Ieee80211FhssPhyPreambleD0Ev @4624
    _ZN4inet13physicallayer24Ieee80211FhssPhyPreambleD1Ev @4625
    _ZN4inet13physicallayer24Ieee80211FhssPhyPreambleD2Ev @4626
    _ZN4inet13physicallayer24Ieee80211FhssPhyPreambleaSERKS1_ @4627
    _ZN4inet13physicallayer24Ieee80211HrDsssPhyHeader12parsimUnpackEPN7omnetpp11cCommBufferE @4628
    _ZN4inet13physicallayer24Ieee80211HrDsssPhyHeader4copyERKS1_ @4629
    _ZN4inet13physicallayer24Ieee80211HrDsssPhyHeaderC1ERKS1_ @4630
    _ZN4inet13physicallayer24Ieee80211HrDsssPhyHeaderC1Ev @4631
    _ZN4inet13physicallayer24Ieee80211HrDsssPhyHeaderC2ERKS1_ @4632
    _ZN4inet13physicallayer24Ieee80211HrDsssPhyHeaderC2Ev @4633
    _ZN4inet13physicallayer24Ieee80211HrDsssPhyHeaderD0Ev @4634
    _ZN4inet13physicallayer24Ieee80211HrDsssPhyHeaderD1Ev @4635
    _ZN4inet13physicallayer24Ieee80211HrDsssPhyHeaderD2Ev @4636
    _ZN4inet13physicallayer24Ieee80211HrDsssPhyHeaderaSERKS1_ @4637
    _ZN4inet13physicallayer24Ieee80211OfdmDemodulatorC1EPKNS0_23Ieee80211OfdmModulationE @4638
    _ZN4inet13physicallayer24Ieee80211OfdmDemodulatorC2EPKNS0_23Ieee80211OfdmModulationE @4639
    _ZN4inet13physicallayer24Ieee80211OfdmInterleaverC1EPKNS0_25Ieee80211OfdmInterleavingE @4640
    _ZN4inet13physicallayer24Ieee80211OfdmInterleaverC2EPKNS0_25Ieee80211OfdmInterleavingE @4641
    _ZN4inet13physicallayer24Ieee80211OfdmPhyPreamble12parsimUnpackEPN7omnetpp11cCommBufferE @4642
    _ZN4inet13physicallayer24Ieee80211OfdmPhyPreamble4copyERKS1_ @4643
    _ZN4inet13physicallayer24Ieee80211OfdmPhyPreambleC1ERKS1_ @4644
    _ZN4inet13physicallayer24Ieee80211OfdmPhyPreambleC1Ev @4645
    _ZN4inet13physicallayer24Ieee80211OfdmPhyPreambleC2ERKS1_ @4646
    _ZN4inet13physicallayer24Ieee80211OfdmPhyPreambleC2Ev @4647
    _ZN4inet13physicallayer24Ieee80211OfdmPhyPreambleD0Ev @4648
    _ZN4inet13physicallayer24Ieee80211OfdmPhyPreambleD1Ev @4649
    _ZN4inet13physicallayer24Ieee80211OfdmPhyPreambleD2Ev @4650
    _ZN4inet13physicallayer24Ieee80211OfdmPhyPreambleaSERKS1_ @4651
    _ZN4inet13physicallayer24Ieee80211TransmitterBase10initializeEi @4652
    _ZN4inet13physicallayer24Ieee80211TransmitterBase10setChannelEPKNS0_16Ieee80211ChannelE @4653
    _ZN4inet13physicallayer24Ieee80211TransmitterBase10setModeSetEPKNS0_16Ieee80211ModeSetE @4654
    _ZN4inet13physicallayer24Ieee80211TransmitterBase16setChannelNumberEi @4655
    _ZN4inet13physicallayer24Ieee80211TransmitterBase7setBandEPKNS0_14IIeee80211BandE @4656
    _ZN4inet13physicallayer24Ieee80211TransmitterBase7setModeEPKNS0_14IIeee80211ModeE @4657
    _ZN4inet13physicallayer24Ieee80211TransmitterBaseC2Ev @4658
    _ZN4inet13physicallayer24Ieee80211TransmitterBaseD0Ev @4659
    _ZN4inet13physicallayer24Ieee80211TransmitterBaseD1Ev @4660
    _ZN4inet13physicallayer24Ieee80211TransmitterBaseD2Ev @4661
    _ZN4inet13physicallayer24Ieee80211VhtInterleavingC1ERKSt6vectorIjSaIjEENS_5units5valueIdNS7_3powINS7_5units1sELin1ELi1EEEEE @4662
    _ZN4inet13physicallayer24Ieee80211VhtInterleavingC2ERKSt6vectorIjSaIjEENS_5units5valueIdNS7_3powINS7_5units1sELin1ELi1EEEEE @4663
    _ZN4inet13physicallayer24Ieee80211VhtPreambleModeC1EPKNS0_22Ieee80211VhtSignalModeEPKNS0_23Ieee80211OfdmSignalModeENS1_27HighTroughputPreambleFormatEj @4664
    _ZN4inet13physicallayer24Ieee80211VhtPreambleModeC2EPKNS0_22Ieee80211VhtSignalModeEPKNS0_23Ieee80211OfdmSignalModeENS1_27HighTroughputPreambleFormatEj @4665
    _ZN4inet13physicallayer24VectorCommunicationCache11removeRadioEPKNS0_6IRadioE @4666
    _ZN4inet13physicallayer24VectorCommunicationCache15addTransmissionEPKNS0_13ITransmissionE @4667
    _ZN4inet13physicallayer24VectorCommunicationCache18getRadioCacheEntryEPKNS0_6IRadioE @4668
    _ZN4inet13physicallayer24VectorCommunicationCache18removeTransmissionEPKNS0_13ITransmissionE @4669
    _ZN4inet13physicallayer24VectorCommunicationCache22getReceptionCacheEntryEPKNS0_6IRadioEPKNS0_13ITransmissionE @4670
    _ZN4inet13physicallayer24VectorCommunicationCache25getTransmissionCacheEntryEPKNS0_13ITransmissionE @4671
    _ZN4inet13physicallayer24VectorCommunicationCache33removeNonInterferingTransmissionsESt8functionIFvPKNS0_13ITransmissionEEE @4672
    _ZN4inet13physicallayer24VectorCommunicationCache8addRadioEPKNS0_6IRadioE @4673
    _ZN4inet13physicallayer24VectorCommunicationCacheD0Ev @4674
    _ZN4inet13physicallayer24VectorCommunicationCacheD1Ev @4675
    _ZN4inet13physicallayer24VectorCommunicationCacheD2Ev @4676
    _ZN4inet13physicallayer25EthernetFragmentPhyHeader12parsimUnpackEPN7omnetpp11cCommBufferE @4677
    _ZN4inet13physicallayer25EthernetFragmentPhyHeader12setSmdNumberEh @4678
    _ZN4inet13physicallayer25EthernetFragmentPhyHeader15setPreambleTypeENS0_21EthernetPhyHeaderTypeE @4679
    _ZN4inet13physicallayer25EthernetFragmentPhyHeader17setFragmentNumberEh @4680
    _ZN4inet13physicallayer25EthernetFragmentPhyHeader4copyERKS1_ @4681
    _ZN4inet13physicallayer25EthernetFragmentPhyHeaderC1ERKS1_ @4682
    _ZN4inet13physicallayer25EthernetFragmentPhyHeaderC1Ev @4683
    _ZN4inet13physicallayer25EthernetFragmentPhyHeaderC2ERKS1_ @4684
    _ZN4inet13physicallayer25EthernetFragmentPhyHeaderC2Ev @4685
    _ZN4inet13physicallayer25EthernetFragmentPhyHeaderD0Ev @4686
    _ZN4inet13physicallayer25EthernetFragmentPhyHeaderD1Ev @4687
    _ZN4inet13physicallayer25EthernetFragmentPhyHeaderD2Ev @4688
    _ZN4inet13physicallayer25EthernetFragmentPhyHeaderaSERKS1_ @4689
    _ZN4inet13physicallayer25EthernetPhyHeaderInserter13processPacketEPNS_6PacketE @4690
    _ZN4inet13physicallayer25EthernetPhyHeaderInserter15pushPacketStartEPNS_6PacketEPN7omnetpp5cGateENS_5units5valueIdNS7_7composeINS7_5units1bENS7_3powINSA_1sELin1ELi1EEEEEEE @4691
    _ZN4inet13physicallayer25Ieee80211ArithmeticalBandC1EPKcNS_5units5valueIdNS4_3powINS4_5units1sELin1ELi1EEEEESA_i @4692
    _ZN4inet13physicallayer25Ieee80211ArithmeticalBandC2EPKcNS_5units5valueIdNS4_3powINS4_5units1sELin1ELi1EEEEESA_i @4693
    _ZN4inet13physicallayer25Ieee80211ErpOfdmPhyHeader12parsimUnpackEPN7omnetpp11cCommBufferE @4694
    _ZN4inet13physicallayer25Ieee80211ErpOfdmPhyHeader4copyERKS1_ @4695
    _ZN4inet13physicallayer25Ieee80211ErpOfdmPhyHeaderC1ERKS1_ @4696
    _ZN4inet13physicallayer25Ieee80211ErpOfdmPhyHeaderC1Ev @4697
    _ZN4inet13physicallayer25Ieee80211ErpOfdmPhyHeaderC2ERKS1_ @4698
    _ZN4inet13physicallayer25Ieee80211ErpOfdmPhyHeaderC2Ev @4699
    _ZN4inet13physicallayer25Ieee80211ErpOfdmPhyHeaderD0Ev @4700
    _ZN4inet13physicallayer25Ieee80211ErpOfdmPhyHeaderD1Ev @4701
    _ZN4inet13physicallayer25Ieee80211ErpOfdmPhyHeaderD2Ev @4702
    _ZN4inet13physicallayer25Ieee80211ErpOfdmPhyHeaderaSERKS1_ @4703
    _ZN4inet13physicallayer25Ieee80211HrDsssHeaderModeC1ENS0_27Ieee80211HrDsssPreambleTypeE @4704
    _ZN4inet13physicallayer25Ieee80211HrDsssHeaderModeC2ENS0_27Ieee80211HrDsssPreambleTypeE @4705
    _ZN4inet13physicallayer25Ieee80211HtCompliantCodes16getCompliantCodeEPKNS0_26Ieee80211ConvolutionalCodeEPKNS0_23Ieee80211OfdmModulationES7_S7_S7_NS_5units5valueIdNS8_3powINS8_5units1sELin1ELi1EEEEEb @4706
    _ZN4inet13physicallayer25Ieee80211HtCompliantCodes22htConvolutionalCode5_6E @4707 DATA
    _ZN4inet13physicallayer25Ieee80211HtCompliantModes16getCompliantModeEPKNS0_14Ieee80211HtmcsENS0_15Ieee80211HtMode8BandModeENS0_23Ieee80211HtPreambleMode27HighTroughputPreambleFormatENS0_19Ieee80211HtModeBase17GuardIntervalTypeE @4708
    _ZN4inet13physicallayer25Ieee80211HtCompliantModes9singletonE @4709 DATA
    _ZN4inet13physicallayer25Ieee80211HtCompliantModesC1Ev @4710
    _ZN4inet13physicallayer25Ieee80211HtCompliantModesC2Ev @4711
    _ZN4inet13physicallayer25Ieee80211HtCompliantModesD0Ev @4712
    _ZN4inet13physicallayer25Ieee80211HtCompliantModesD1Ev @4713
    _ZN4inet13physicallayer25Ieee80211HtCompliantModesD2Ev @4714
    _ZN4inet13physicallayer25Ieee80211IrCompliantModes11irMode1MbpsE @4715 DATA
    _ZN4inet13physicallayer25Ieee80211IrCompliantModes11irMode2MbpsE @4716 DATA
    _ZN4inet13physicallayer25Ieee80211IrCompliantModes15irDataMode1MbpsE @4717 DATA
    _ZN4inet13physicallayer25Ieee80211IrCompliantModes15irDataMode2MbpsE @4718 DATA
    _ZN4inet13physicallayer25Ieee80211IrCompliantModes17irHeaderMode1MbpsE @4719 DATA
    _ZN4inet13physicallayer25Ieee80211IrCompliantModes17irHeaderMode2MbpsE @4720 DATA
    _ZN4inet13physicallayer25Ieee80211IrCompliantModes25irPreambleMode64SyncSlotsE @4721 DATA
    _ZN4inet13physicallayer25Ieee80211OfdmInterleavingC1Eii @4722
    _ZN4inet13physicallayer25Ieee80211OfdmInterleavingC2Eii @4723
    _ZN4inet13physicallayer25Ieee80211OfdmPreambleModeC1ENS_5units5valueIdNS2_3powINS2_5units1sELin1ELi1EEEEE @4724
    _ZN4inet13physicallayer25Ieee80211OfdmPreambleModeC2ENS_5units5valueIdNS2_3powINS2_5units1sELin1ELi1EEEEE @4725
    _ZN4inet13physicallayer25Ieee80211TransmissionBaseC1EPKNS0_14IIeee80211ModeEPKNS0_16Ieee80211ChannelE @4726
    _ZN4inet13physicallayer25Ieee80211TransmissionBaseC2EPKNS0_14IIeee80211ModeEPKNS0_16Ieee80211ChannelE @4727
    _ZN4inet13physicallayer25Ieee80211UnitDiskReceiver10initializeEi @4728
    _ZN4inet13physicallayer25Ieee80211UnitDiskReceiverC1Ev @4729
    _ZN4inet13physicallayer25Ieee80211UnitDiskReceiverC2Ev @4730
    _ZN4inet13physicallayer25NarrowbandTransmitterBase10initializeEi @4731
    _ZN4inet13physicallayer25NarrowbandTransmitterBaseC2Ev @4732
    _ZN4inet13physicallayer25NeighborListNeighborCache10initializeEi @4733
    _ZN4inet13physicallayer25NeighborListNeighborCache11removeRadioEPKNS0_6IRadioE @4734
    _ZN4inet13physicallayer25NeighborListNeighborCache13handleMessageEPN7omnetpp8cMessageE @4735
    _ZN4inet13physicallayer25NeighborListNeighborCache18updateNeighborListEPNS1_10RadioEntryE @4736
    _ZN4inet13physicallayer25NeighborListNeighborCache19updateNeighborListsEv @4737
    _ZN4inet13physicallayer25NeighborListNeighborCache28removeRadioFromNeighborListsEPKNS0_6IRadioE @4738
    _ZN4inet13physicallayer25NeighborListNeighborCache8addRadioEPKNS0_6IRadioE @4739
    _ZN4inet13physicallayer25NeighborListNeighborCacheC1Ev @4740
    _ZN4inet13physicallayer25NeighborListNeighborCacheC2Ev @4741
    _ZN4inet13physicallayer25NeighborListNeighborCacheD0Ev @4742
    _ZN4inet13physicallayer25NeighborListNeighborCacheD1Ev @4743
    _ZN4inet13physicallayer25NeighborListNeighborCacheD2Ev @4744
    _ZN4inet13physicallayer26ApskDimensionalTransmitter10initializeEi @4745
    _ZN4inet13physicallayer26ApskDimensionalTransmitterC1Ev @4746
    _ZN4inet13physicallayer26ApskDimensionalTransmitterC2Ev @4747
    _ZN4inet13physicallayer26DimensionalAnalogModelBase10initializeEi @4748
    _ZN4inet13physicallayer26DimensionalBackgroundNoise10initializeEi @4749
    _ZN4inet13physicallayer26DimensionalBackgroundNoiseC1Ev @4750
    _ZN4inet13physicallayer26DimensionalBackgroundNoiseC2Ev @4751
    _ZN4inet13physicallayer26DimensionalTransmitterBase10initializeEi @4752
    _ZN4inet13physicallayer26DimensionalTransmitterBase14parseTimeGainsEPKc @4753
    _ZN4inet13physicallayer26DimensionalTransmitterBase19parseFrequencyGainsEPKc @4754
    _ZN4inet13physicallayer26Ieee80211ConvolutionalCodeC1Eii @4755
    _ZN4inet13physicallayer26Ieee80211ConvolutionalCodeC2Eii @4756
    _ZN4inet13physicallayer26Ieee80211HrDsssPhyPreamble12parsimUnpackEPN7omnetpp11cCommBufferE @4757
    _ZN4inet13physicallayer26Ieee80211HrDsssPhyPreamble4copyERKS1_ @4758
    _ZN4inet13physicallayer26Ieee80211HrDsssPhyPreambleC1ERKS1_ @4759
    _ZN4inet13physicallayer26Ieee80211HrDsssPhyPreambleC1Ev @4760
    _ZN4inet13physicallayer26Ieee80211HrDsssPhyPreambleC2ERKS1_ @4761
    _ZN4inet13physicallayer26Ieee80211HrDsssPhyPreambleC2Ev @4762
    _ZN4inet13physicallayer26Ieee80211HrDsssPhyPreambleD0Ev @4763
    _ZN4inet13physicallayer26Ieee80211HrDsssPhyPreambleD1Ev @4764
    _ZN4inet13physicallayer26Ieee80211HrDsssPhyPreambleD2Ev @4765
    _ZN4inet13physicallayer26Ieee80211HrDsssPhyPreambleaSERKS1_ @4766
    _ZN4inet13physicallayer26Ieee80211OfdmDecoderModule10initializeEi @4767
    _ZN4inet13physicallayer26Ieee80211OfdmDecoderModuleD0Ev @4768
    _ZN4inet13physicallayer26Ieee80211OfdmDecoderModuleD1Ev @4769
    _ZN4inet13physicallayer26Ieee80211OfdmDecoderModuleD2Ev @4770
    _ZN4inet13physicallayer26Ieee80211OfdmEncoderModule10initializeEi @4771
    _ZN4inet13physicallayer26Ieee80211OfdmEncoderModuleD0Ev @4772
    _ZN4inet13physicallayer26Ieee80211OfdmEncoderModuleD1Ev @4773
    _ZN4inet13physicallayer26Ieee80211OfdmEncoderModuleD2Ev @4774
    _ZN4inet13physicallayer26Ieee80211ScalarTransmitterC1Ev @4775
    _ZN4inet13physicallayer26Ieee80211ScalarTransmitterC2Ev @4776
    _ZN4inet13physicallayer26Ieee80211VhtCompliantCodes16getCompliantCodeEPKNS0_26Ieee80211ConvolutionalCodeEPKNS0_23Ieee80211OfdmModulationES7_S7_S7_S7_S7_S7_S7_NS_5units5valueIdNS8_3powINS8_5units1sELin1ELi1EEEEEb @4777
    _ZN4inet13physicallayer26Ieee80211VhtCompliantModes16getCompliantModeEPKNS0_15Ieee80211VhtmcsENS0_16Ieee80211VhtMode8BandModeENS0_24Ieee80211VhtPreambleMode27HighTroughputPreambleFormatENS0_20Ieee80211VhtModeBase17GuardIntervalTypeE @4778
    _ZN4inet13physicallayer26Ieee80211VhtCompliantModes9singletonE @4779 DATA
    _ZN4inet13physicallayer26Ieee80211VhtCompliantModesC1Ev @4780
    _ZN4inet13physicallayer26Ieee80211VhtCompliantModesC2Ev @4781
    _ZN4inet13physicallayer26Ieee80211VhtCompliantModesD0Ev @4782
    _ZN4inet13physicallayer26Ieee80211VhtCompliantModesD1Ev @4783
    _ZN4inet13physicallayer26Ieee80211VhtCompliantModesD2Ev @4784
    _ZN4inet13physicallayer26Ieee802154UwbIrTransmitter10initializeEi @4785
    _ZN4inet13physicallayer26Ieee802154UwbIrTransmitterC1Ev @4786
    _ZN4inet13physicallayer26Ieee802154UwbIrTransmitterC2Ev @4787
    _ZN4inet13physicallayer26NarrowbandTransmissionBaseC2EPKNS0_6IRadioEPKNS_6PacketEN7omnetpp7SimTimeES9_S9_S9_S9_RKNS_5CoordESC_RKNS_10QuaternionESF_PKNS0_11IModulationENS_5units5valueIdNSJ_3powINSJ_5units1sELin1ELi1EEEEESP_ @4788
    _ZN4inet13physicallayer26StateBasedCcEnergyConsumer10initializeEi @4789
    _ZN4inet13physicallayer26StateBasedCcEnergyConsumer13receiveSignalEPN7omnetpp10cComponentEidPNS2_7cObjectE @4790
    _ZN4inet13physicallayer26StateBasedCcEnergyConsumer13receiveSignalEPN7omnetpp10cComponentEixPNS2_7cObjectE @4791
    _ZN4inet13physicallayer26StateBasedEpEnergyConsumer10initializeEi @4792
    _ZN4inet13physicallayer26StateBasedEpEnergyConsumer13receiveSignalEPN7omnetpp10cComponentEixPNS2_7cObjectE @4793
    _ZN4inet13physicallayer27ApskDimensionalTransmissionC1EPKNS0_6IRadioEPKNS_6PacketEN7omnetpp7SimTimeES9_S9_S9_S9_RKNS_5CoordESC_RKNS_10QuaternionESF_PKNS0_11IModulationENS_5units5valueIxNSJ_5units1bEEESN_NSK_IdNSJ_3powINSL_1sELin1ELi1EEEEESR_NSK_IdNSJ_7composeISM_SQ_EEEERKNS_12IntrusivePtrIKNS_4math9IFunctionINSK_IdNSS_INSS_INSS_INSS_INSL_1mENSS_INSL_2kgENSO_ISP_Lin2ELi1EEEEEEESY_EESQ_EENSO_ISQ_Lin1ELi1EEEEEEENSW_6DomainIJNSK_IS9_SP_EESR_EEEEEEE @4794
    _ZN4inet13physicallayer27ApskDimensionalTransmissionC2EPKNS0_6IRadioEPKNS_6PacketEN7omnetpp7SimTimeES9_S9_S9_S9_RKNS_5CoordESC_RKNS_10QuaternionESF_PKNS0_11IModulationENS_5units5valueIxNSJ_5units1bEEESN_NSK_IdNSJ_3powINSL_1sELin1ELi1EEEEESR_NSK_IdNSJ_7composeISM_SQ_EEEERKNS_12IntrusivePtrIKNS_4math9IFunctionINSK_IdNSS_INSS_INSS_INSS_INSL_1mENSS_INSL_2kgENSO_ISP_Lin2ELi1EEEEEEESY_EESQ_EENSO_ISQ_Lin1ELi1EEEEEEENSW_6DomainIJNSK_IS9_SP_EESR_EEEEEEE @4795
    _ZN4inet13physicallayer27Ieee80211BerTableErrorModel10initializeEi @4796
    _ZN4inet13physicallayer27Ieee80211BerTableErrorModelC1Ev @4797
    _ZN4inet13physicallayer27Ieee80211BerTableErrorModelC2Ev @4798
    _ZN4inet13physicallayer27Ieee80211BerTableErrorModelD0Ev @4799
    _ZN4inet13physicallayer27Ieee80211BerTableErrorModelD1Ev @4800
    _ZN4inet13physicallayer27Ieee80211BerTableErrorModelD2Ev @4801
    _ZN4inet13physicallayer27Ieee80211DsssCompliantModes13dsssMode1MbpsE @4802 DATA
    _ZN4inet13physicallayer27Ieee80211DsssCompliantModes13dsssMode2MbpsE @4803 DATA
    _ZN4inet13physicallayer27Ieee80211DsssCompliantModes17dsssDataMode1MbpsE @4804 DATA
    _ZN4inet13physicallayer27Ieee80211DsssCompliantModes17dsssDataMode2MbpsE @4805 DATA
    _ZN4inet13physicallayer27Ieee80211DsssCompliantModes19dsssHeaderMode1MbpsE @4806 DATA
    _ZN4inet13physicallayer27Ieee80211DsssCompliantModes21dsssPreambleMode1MbpsE @4807 DATA
    _ZN4inet13physicallayer27Ieee80211ErpOfdmPhyPreamble12parsimUnpackEPN7omnetpp11cCommBufferE @4808
    _ZN4inet13physicallayer27Ieee80211ErpOfdmPhyPreamble4copyERKS1_ @4809
    _ZN4inet13physicallayer27Ieee80211ErpOfdmPhyPreambleC1ERKS1_ @4810
    _ZN4inet13physicallayer27Ieee80211ErpOfdmPhyPreambleC1Ev @4811
    _ZN4inet13physicallayer27Ieee80211ErpOfdmPhyPreambleC2ERKS1_ @4812
    _ZN4inet13physicallayer27Ieee80211ErpOfdmPhyPreambleC2Ev @4813
    _ZN4inet13physicallayer27Ieee80211ErpOfdmPhyPreambleD0Ev @4814
    _ZN4inet13physicallayer27Ieee80211ErpOfdmPhyPreambleD1Ev @4815
    _ZN4inet13physicallayer27Ieee80211ErpOfdmPhyPreambleD2Ev @4816
    _ZN4inet13physicallayer27Ieee80211ErpOfdmPhyPreambleaSERKS1_ @4817
    _ZN4inet13physicallayer27Ieee80211FhssCompliantModes13fhssMode1MbpsE @4818 DATA
    _ZN4inet13physicallayer27Ieee80211FhssCompliantModes13fhssMode2MbpsE @4819 DATA
    _ZN4inet13physicallayer27Ieee80211FhssCompliantModes17fhssDataMode1MbpsE @4820 DATA
    _ZN4inet13physicallayer27Ieee80211FhssCompliantModes17fhssDataMode2MbpsE @4821 DATA
    _ZN4inet13physicallayer27Ieee80211FhssCompliantModes19fhssHeaderMode1MbpsE @4822 DATA
    _ZN4inet13physicallayer27Ieee80211FhssCompliantModes21fhssPreambleMode1MbpsE @4823 DATA
    _ZN4inet13physicallayer27Ieee80211HrDsssPreambleModeC1ENS0_27Ieee80211HrDsssPreambleTypeE @4824
    _ZN4inet13physicallayer27Ieee80211HrDsssPreambleModeC2ENS0_27Ieee80211HrDsssPreambleTypeE @4825
    _ZN4inet13physicallayer27Ieee80211OfdmCompliantCodes14ofdmScramblingE @4826 DATA
    _ZN4inet13physicallayer27Ieee80211OfdmCompliantCodes20ofdmBPSKInterleavingE @4827 DATA
    _ZN4inet13physicallayer27Ieee80211OfdmCompliantCodes20ofdmQPSKInterleavingE @4828 DATA
    _ZN4inet13physicallayer27Ieee80211OfdmCompliantCodes21ofdmQAM16InterleavingE @4829 DATA
    _ZN4inet13physicallayer27Ieee80211OfdmCompliantCodes21ofdmQAM64InterleavingE @4830 DATA
    _ZN4inet13physicallayer27Ieee80211OfdmCompliantCodes22ofdmQAM256InterleavingE @4831 DATA
    _ZN4inet13physicallayer27Ieee80211OfdmCompliantCodes23ofdmQAM1024InterleavingE @4832 DATA
    _ZN4inet13physicallayer27Ieee80211OfdmCompliantCodes24ofdmConvolutionalCode1_2E @4833 DATA
    _ZN4inet13physicallayer27Ieee80211OfdmCompliantCodes24ofdmConvolutionalCode2_3E @4834 DATA
    _ZN4inet13physicallayer27Ieee80211OfdmCompliantCodes24ofdmConvolutionalCode3_4E @4835 DATA
    _ZN4inet13physicallayer27Ieee80211OfdmCompliantCodes24ofdmConvolutionalCode5_6E @4836 DATA
    _ZN4inet13physicallayer27Ieee80211OfdmCompliantCodes25ofdmCC1_2BPSKInterleavingE @4837 DATA
    _ZN4inet13physicallayer27Ieee80211OfdmCompliantCodes25ofdmCC1_2QPSKInterleavingE @4838 DATA
    _ZN4inet13physicallayer27Ieee80211OfdmCompliantCodes25ofdmCC3_4BPSKInterleavingE @4839 DATA
    _ZN4inet13physicallayer27Ieee80211OfdmCompliantCodes25ofdmCC3_4QPSKInterleavingE @4840 DATA
    _ZN4inet13physicallayer27Ieee80211OfdmCompliantCodes26ofdmCC1_2QAM16InterleavingE @4841 DATA
    _ZN4inet13physicallayer27Ieee80211OfdmCompliantCodes26ofdmCC2_3QAM64InterleavingE @4842 DATA
    _ZN4inet13physicallayer27Ieee80211OfdmCompliantCodes26ofdmCC3_4QAM16InterleavingE @4843 DATA
    _ZN4inet13physicallayer27Ieee80211OfdmCompliantCodes26ofdmCC3_4QAM64InterleavingE @4844 DATA
    _ZN4inet13physicallayer27Ieee80211OfdmCompliantCodes26ofdmCC5_6QAM64InterleavingE @4845 DATA
    _ZN4inet13physicallayer27Ieee80211OfdmCompliantCodes27ofdmCC3_4QAM256InterleavingE @4846 DATA
    _ZN4inet13physicallayer27Ieee80211OfdmCompliantCodes27ofdmCC5_6QAM256InterleavingE @4847 DATA
    _ZN4inet13physicallayer27Ieee80211OfdmCompliantCodes28ofdmCC3_4QAM1024InterleavingE @4848 DATA
    _ZN4inet13physicallayer27Ieee80211OfdmCompliantCodes28ofdmCC5_6QAM1024InterleavingE @4849 DATA
    _ZN4inet13physicallayer27Ieee80211OfdmCompliantCodes42ofdmCC1_2BPSKInterleavingWithoutScramblingE @4850 DATA
    _ZN4inet13physicallayer27Ieee80211OfdmCompliantModes14ofdmMode27MbpsE @4851 DATA
    _ZN4inet13physicallayer27Ieee80211OfdmCompliantModes14ofdmMode36MbpsE @4852 DATA
    _ZN4inet13physicallayer27Ieee80211OfdmCompliantModes14ofdmMode48MbpsE @4853 DATA
    _ZN4inet13physicallayer27Ieee80211OfdmCompliantModes14ofdmMode54MbpsE @4854 DATA
    _ZN4inet13physicallayer27Ieee80211OfdmCompliantModes15ofdmMode1_5MbpsE @4855 DATA
    _ZN4inet13physicallayer27Ieee80211OfdmCompliantModes16getCompliantModeEjNS_5units5valueIdNS2_3powINS2_5units1sELin1ELi1EEEEE @4856
    _ZN4inet13physicallayer27Ieee80211OfdmCompliantModes16ofdmMode13_5MbpsE @4857 DATA
    _ZN4inet13physicallayer27Ieee80211OfdmCompliantModes16ofdmMode2_25MbpsE @4858 DATA
    _ZN4inet13physicallayer27Ieee80211OfdmCompliantModes17findCompliantModeEjNS_5units5valueIdNS2_3powINS2_5units1sELin1ELi1EEEEE @4859
    _ZN4inet13physicallayer27Ieee80211OfdmCompliantModes18ofdmDataMode27MbpsE @4860 DATA
    _ZN4inet13physicallayer27Ieee80211OfdmCompliantModes18ofdmDataMode36MbpsE @4861 DATA
    _ZN4inet13physicallayer27Ieee80211OfdmCompliantModes18ofdmDataMode48MbpsE @4862 DATA
    _ZN4inet13physicallayer27Ieee80211OfdmCompliantModes18ofdmDataMode54MbpsE @4863 DATA
    _ZN4inet13physicallayer27Ieee80211OfdmCompliantModes19ofdmDataMode1_5MbpsE @4864 DATA
    _ZN4inet13physicallayer27Ieee80211OfdmCompliantModes19ofdmMode3MbpsCS5MHzE @4865 DATA
    _ZN4inet13physicallayer27Ieee80211OfdmCompliantModes19ofdmMode6MbpsCS5MHzE @4866 DATA
    _ZN4inet13physicallayer27Ieee80211OfdmCompliantModes19ofdmMode9MbpsCS5MHzE @4867 DATA
    _ZN4inet13physicallayer27Ieee80211OfdmCompliantModes20ofdmDataMode13_5MbpsE @4868 DATA
    _ZN4inet13physicallayer27Ieee80211OfdmCompliantModes20ofdmDataMode2_25MbpsE @4869 DATA
    _ZN4inet13physicallayer27Ieee80211OfdmCompliantModes20ofdmMode12MbpsCS5MHzE @4870 DATA
    _ZN4inet13physicallayer27Ieee80211OfdmCompliantModes20ofdmMode3MbpsCS10MHzE @4871 DATA
    _ZN4inet13physicallayer27Ieee80211OfdmCompliantModes20ofdmMode6MbpsCS10MHzE @4872 DATA
    _ZN4inet13physicallayer27Ieee80211OfdmCompliantModes20ofdmMode6MbpsCS20MHzE @4873 DATA
    _ZN4inet13physicallayer27Ieee80211OfdmCompliantModes20ofdmMode9MbpsCS10MHzE @4874 DATA
    _ZN4inet13physicallayer27Ieee80211OfdmCompliantModes20ofdmMode9MbpsCS20MHzE @4875 DATA
    _ZN4inet13physicallayer27Ieee80211OfdmCompliantModes21ofdmMode12MbpsCS10MHzE @4876 DATA
    _ZN4inet13physicallayer27Ieee80211OfdmCompliantModes21ofdmMode12MbpsCS20MHzE @4877 DATA
    _ZN4inet13physicallayer27Ieee80211OfdmCompliantModes21ofdmMode18MbpsCS10MHzE @4878 DATA
    _ZN4inet13physicallayer27Ieee80211OfdmCompliantModes21ofdmMode18MbpsCS20MHzE @4879 DATA
    _ZN4inet13physicallayer27Ieee80211OfdmCompliantModes21ofdmMode24MbpsCS10MHzE @4880 DATA
    _ZN4inet13physicallayer27Ieee80211OfdmCompliantModes21ofdmMode24MbpsCS20MHzE @4881 DATA
    _ZN4inet13physicallayer27Ieee80211OfdmCompliantModes21ofdmMode4_5MbpsCS5MHzE @4882 DATA
    _ZN4inet13physicallayer27Ieee80211OfdmCompliantModes22ofdmMode4_5MbpsCS10MHzE @4883 DATA
    _ZN4inet13physicallayer27Ieee80211OfdmCompliantModes22ofdmPreambleModeCS5MHzE @4884 DATA
    _ZN4inet13physicallayer27Ieee80211OfdmCompliantModes23ofdmDataMode3MbpsCS5MHzE @4885 DATA
    _ZN4inet13physicallayer27Ieee80211OfdmCompliantModes23ofdmDataMode6MbpsCS5MHzE @4886 DATA
    _ZN4inet13physicallayer27Ieee80211OfdmCompliantModes23ofdmDataMode9MbpsCS5MHzE @4887 DATA
    _ZN4inet13physicallayer27Ieee80211OfdmCompliantModes23ofdmPreambleModeCS10MHzE @4888 DATA
    _ZN4inet13physicallayer27Ieee80211OfdmCompliantModes23ofdmPreambleModeCS20MHzE @4889 DATA
    _ZN4inet13physicallayer27Ieee80211OfdmCompliantModes24ofdmDataMode12MbpsCS5MHzE @4890 DATA
    _ZN4inet13physicallayer27Ieee80211OfdmCompliantModes24ofdmDataMode3MbpsCS10MHzE @4891 DATA
    _ZN4inet13physicallayer27Ieee80211OfdmCompliantModes24ofdmDataMode6MbpsCS10MHzE @4892 DATA
    _ZN4inet13physicallayer27Ieee80211OfdmCompliantModes24ofdmDataMode6MbpsCS20MHzE @4893 DATA
    _ZN4inet13physicallayer27Ieee80211OfdmCompliantModes24ofdmDataMode9MbpsCS10MHzE @4894 DATA
    _ZN4inet13physicallayer27Ieee80211OfdmCompliantModes24ofdmDataMode9MbpsCS20MHzE @4895 DATA
    _ZN4inet13physicallayer27Ieee80211OfdmCompliantModes24ofdmHeaderMode3MbpsRate1E @4896 DATA
    _ZN4inet13physicallayer27Ieee80211OfdmCompliantModes24ofdmHeaderMode3MbpsRate3E @4897 DATA
    _ZN4inet13physicallayer27Ieee80211OfdmCompliantModes24ofdmHeaderMode3MbpsRate5E @4898 DATA
    _ZN4inet13physicallayer27Ieee80211OfdmCompliantModes24ofdmHeaderMode3MbpsRate7E @4899 DATA
    _ZN4inet13physicallayer27Ieee80211OfdmCompliantModes24ofdmHeaderMode3MbpsRate9E @4900 DATA
    _ZN4inet13physicallayer27Ieee80211OfdmCompliantModes24ofdmHeaderMode6MbpsRate1E @4901 DATA
    _ZN4inet13physicallayer27Ieee80211OfdmCompliantModes24ofdmHeaderMode6MbpsRate3E @4902 DATA
    _ZN4inet13physicallayer27Ieee80211OfdmCompliantModes24ofdmHeaderMode6MbpsRate5E @4903 DATA
    _ZN4inet13physicallayer27Ieee80211OfdmCompliantModes24ofdmHeaderMode6MbpsRate7E @4904 DATA
    _ZN4inet13physicallayer27Ieee80211OfdmCompliantModes24ofdmHeaderMode6MbpsRate9E @4905 DATA
    _ZN4inet13physicallayer27Ieee80211OfdmCompliantModes25ofdmDataMode12MbpsCS10MHzE @4906 DATA
    _ZN4inet13physicallayer27Ieee80211OfdmCompliantModes25ofdmDataMode12MbpsCS20MHzE @4907 DATA
    _ZN4inet13physicallayer27Ieee80211OfdmCompliantModes25ofdmDataMode18MbpsCS10MHzE @4908 DATA
    _ZN4inet13physicallayer27Ieee80211OfdmCompliantModes25ofdmDataMode18MbpsCS20MHzE @4909 DATA
    _ZN4inet13physicallayer27Ieee80211OfdmCompliantModes25ofdmDataMode24MbpsCS10MHzE @4910 DATA
    _ZN4inet13physicallayer27Ieee80211OfdmCompliantModes25ofdmDataMode24MbpsCS20MHzE @4911 DATA
    _ZN4inet13physicallayer27Ieee80211OfdmCompliantModes25ofdmDataMode4_5MbpsCS5MHzE @4912 DATA
    _ZN4inet13physicallayer27Ieee80211OfdmCompliantModes25ofdmHeaderMode3MbpsRate11E @4913 DATA
    _ZN4inet13physicallayer27Ieee80211OfdmCompliantModes25ofdmHeaderMode3MbpsRate13E @4914 DATA
    _ZN4inet13physicallayer27Ieee80211OfdmCompliantModes25ofdmHeaderMode3MbpsRate15E @4915 DATA
    _ZN4inet13physicallayer27Ieee80211OfdmCompliantModes25ofdmHeaderMode6MbpsRate11E @4916 DATA
    _ZN4inet13physicallayer27Ieee80211OfdmCompliantModes25ofdmHeaderMode6MbpsRate13E @4917 DATA
    _ZN4inet13physicallayer27Ieee80211OfdmCompliantModes25ofdmHeaderMode6MbpsRate15E @4918 DATA
    _ZN4inet13physicallayer27Ieee80211OfdmCompliantModes26ofdmDataMode4_5MbpsCS10MHzE @4919 DATA
    _ZN4inet13physicallayer27Ieee80211OfdmCompliantModes26ofdmHeaderMode1_5MbpsRate1E @4920 DATA
    _ZN4inet13physicallayer27Ieee80211OfdmCompliantModes26ofdmHeaderMode1_5MbpsRate3E @4921 DATA
    _ZN4inet13physicallayer27Ieee80211OfdmCompliantModes26ofdmHeaderMode1_5MbpsRate5E @4922 DATA
    _ZN4inet13physicallayer27Ieee80211OfdmCompliantModes26ofdmHeaderMode1_5MbpsRate7E @4923 DATA
    _ZN4inet13physicallayer27Ieee80211OfdmCompliantModes26ofdmHeaderMode1_5MbpsRate9E @4924 DATA
    _ZN4inet13physicallayer27Ieee80211OfdmCompliantModes27ofdmHeaderMode1_5MbpsRate11E @4925 DATA
    _ZN4inet13physicallayer27Ieee80211OfdmCompliantModes27ofdmHeaderMode1_5MbpsRate13E @4926 DATA
    _ZN4inet13physicallayer27Ieee80211OfdmCompliantModes27ofdmHeaderMode1_5MbpsRate15E @4927 DATA
    _ZN4inet13physicallayer27Ieee80211ScalarTransmissionC1EPKNS0_6IRadioEPKNS_6PacketEN7omnetpp7SimTimeES9_S9_S9_S9_RKNS_5CoordESC_RKNS_10QuaternionESF_PKNS0_11IModulationENS_5units5valueIxNSJ_5units1bEEESN_NSK_IdNSJ_3powINSL_1sELin1ELi1EEEEESR_NSK_IdNSJ_7composeISM_SQ_EEEENSK_IdNSS_INSS_INSS_INSL_1mENSS_INSL_2kgENSO_ISP_Lin2ELi1EEEEEEESV_EESQ_EEEEPKNS0_14IIeee80211ModeEPKNS0_16Ieee80211ChannelE @4928
    _ZN4inet13physicallayer27Ieee80211ScalarTransmissionC2EPKNS0_6IRadioEPKNS_6PacketEN7omnetpp7SimTimeES9_S9_S9_S9_RKNS_5CoordESC_RKNS_10QuaternionESF_PKNS0_11IModulationENS_5units5valueIxNSJ_5units1bEEESN_NSK_IdNSJ_3powINSL_1sELin1ELi1EEEEESR_NSK_IdNSJ_7composeISM_SQ_EEEENSK_IdNSS_INSS_INSS_INSL_1mENSS_INSL_2kgENSO_ISP_Lin2ELi1EEEEEEESV_EESQ_EEEEPKNS0_14IIeee80211ModeEPKNS0_16Ieee80211ChannelE @4929
    _ZN4inet13physicallayer27NarrowbandSignalAnalogModelC2EN7omnetpp7SimTimeENS_5units5valueIdNS4_3powINS4_5units1sELin1ELi1EEEEESA_ @4930
    _ZN4inet13physicallayer27NoiseDimensionalTransmitter10initializeEi @4931
    _ZN4inet13physicallayer27ReferenceCommunicationCache11removeRadioEPKNS0_6IRadioE @4932
    _ZN4inet13physicallayer27ReferenceCommunicationCache15addTransmissionEPKNS0_13ITransmissionE @4933
    _ZN4inet13physicallayer27ReferenceCommunicationCache18getRadioCacheEntryEPKNS0_6IRadioE @4934
    _ZN4inet13physicallayer27ReferenceCommunicationCache18removeTransmissionEPKNS0_13ITransmissionE @4935
    _ZN4inet13physicallayer27ReferenceCommunicationCache22getReceptionCacheEntryEPKNS0_6IRadioEPKNS0_13ITransmissionE @4936
    _ZN4inet13physicallayer27ReferenceCommunicationCache25getTransmissionCacheEntryEPKNS0_13ITransmissionE @4937
    _ZN4inet13physicallayer27ReferenceCommunicationCache31computeInterferingTransmissionsEPKNS0_6IRadioEN7omnetpp7SimTimeES6_ @4938
    _ZN4inet13physicallayer27ReferenceCommunicationCache33removeNonInterferingTransmissionsESt8functionIFvPKNS0_13ITransmissionEEE @4939
    _ZN4inet13physicallayer27ReferenceCommunicationCache8addRadioEPKNS0_6IRadioE @4940
    _ZN4inet13physicallayer27ReferenceCommunicationCacheD0Ev @4941
    _ZN4inet13physicallayer27ReferenceCommunicationCacheD1Ev @4942
    _ZN4inet13physicallayer27ReferenceCommunicationCacheD2Ev @4943
    _ZN4inet13physicallayer27StochasticLayeredErrorModel10initializeEi @4944
    _ZN4inet13physicallayer27StochasticLayeredErrorModelC1Ev @4945
    _ZN4inet13physicallayer27StochasticLayeredErrorModelC2Ev @4946
    _ZN4inet13physicallayer28DimensionalSignalAnalogModelC1EN7omnetpp7SimTimeENS_5units5valueIdNS4_3powINS4_5units1sELin1ELi1EEEEESA_RKNS_12IntrusivePtrIKNS_4math9IFunctionINS5_IdNS4_7composeINSE_INSE_INSE_INS7_1mENSE_INS7_2kgENS6_IS8_Lin2ELi1EEEEEEESF_EES9_EENS6_IS9_Lin1ELi1EEEEEEENSC_6DomainIJNS5_IS3_S8_EESA_EEEEEEE @4947
    _ZN4inet13physicallayer28DimensionalSignalAnalogModelC2EN7omnetpp7SimTimeENS_5units5valueIdNS4_3powINS4_5units1sELin1ELi1EEEEESA_RKNS_12IntrusivePtrIKNS_4math9IFunctionINS5_IdNS4_7composeINSE_INSE_INSE_INS7_1mENSE_INS7_2kgENS6_IS8_Lin2ELi1EEEEEEESF_EES9_EENS6_IS9_Lin1ELi1EEEEEEENSC_6DomainIJNS5_IS3_S8_EESA_EEEEEEE @4948
    _ZN4inet13physicallayer28Ieee80211DimensionalReceiverC1Ev @4949
    _ZN4inet13physicallayer28Ieee80211DimensionalReceiverC2Ev @4950
    _ZN4inet13physicallayer28Ieee80211LayeredOfdmReceiver10initializeEi @4951
    _ZN4inet13physicallayer28Ieee80211LayeredOfdmReceiverD0Ev @4952
    _ZN4inet13physicallayer28Ieee80211LayeredOfdmReceiverD1Ev @4953
    _ZN4inet13physicallayer28Ieee80211LayeredOfdmReceiverD2Ev @4954
    _ZN4inet13physicallayer28Ieee80211LayeredTransmissionC1EPKNS0_24ITransmissionPacketModelEPKNS0_21ITransmissionBitModelEPKNS0_24ITransmissionSymbolModelEPKNS0_24ITransmissionSampleModelEPKNS0_24ITransmissionAnalogModelEPKNS0_6IRadioEPKNS_6PacketEN7omnetpp7SimTimeESO_SO_SO_SO_RKNS_5CoordESR_RKNS_10QuaternionESU_PKNS0_14IIeee80211ModeEPKNS0_16Ieee80211ChannelE @4955
    _ZN4inet13physicallayer28Ieee80211LayeredTransmissionC2EPKNS0_24ITransmissionPacketModelEPKNS0_21ITransmissionBitModelEPKNS0_24ITransmissionSymbolModelEPKNS0_24ITransmissionSampleModelEPKNS0_24ITransmissionAnalogModelEPKNS0_6IRadioEPKNS_6PacketEN7omnetpp7SimTimeESO_SO_SO_SO_RKNS_5CoordESR_RKNS_10QuaternionESU_PKNS0_14IIeee80211ModeEPKNS0_16Ieee80211ChannelE @4956
    _ZN4inet13physicallayer28Ieee80211OfdmModulatorModule10initializeEi @4957
    _ZN4inet13physicallayer28Ieee80211OfdmModulatorModuleD0Ev @4958
    _ZN4inet13physicallayer28Ieee80211OfdmModulatorModuleD1Ev @4959
    _ZN4inet13physicallayer28Ieee80211OfdmModulatorModuleD2Ev @4960
    _ZN4inet13physicallayer28Ieee80211UnitDiskTransmitter10initializeEi @4961
    _ZN4inet13physicallayer28Ieee80211UnitDiskTransmitterC1Ev @4962
    _ZN4inet13physicallayer28Ieee80211UnitDiskTransmitterC2Ev @4963
    _ZN4inet13physicallayer28ScalarAnalogDigitalConverterC1Ev @4964
    _ZN4inet13physicallayer28ScalarAnalogDigitalConverterC2Ev @4965
    _ZN4inet13physicallayer28ScalarDigitalAnalogConverterC1Ev @4966
    _ZN4inet13physicallayer28ScalarDigitalAnalogConverterC2Ev @4967
    _ZN4inet13physicallayer29Ieee80211HrDsssCompliantModes27hrDsssMode1MbpsLongPreambleE @4968 DATA
    _ZN4inet13physicallayer29Ieee80211HrDsssCompliantModes27hrDsssMode2MbpsLongPreambleE @4969 DATA
    _ZN4inet13physicallayer29Ieee80211HrDsssCompliantModes28hrDsssMode2MbpsShortPreambleE @4970 DATA
    _ZN4inet13physicallayer29Ieee80211HrDsssCompliantModes31hrDsssDataMode1MbpsLongPreambleE @4971 DATA
    _ZN4inet13physicallayer29Ieee80211HrDsssCompliantModes31hrDsssDataMode2MbpsLongPreambleE @4972 DATA
    _ZN4inet13physicallayer29Ieee80211HrDsssCompliantModes31hrDsssMode11MbpsCckLongPreambleE @4973 DATA
    _ZN4inet13physicallayer29Ieee80211HrDsssCompliantModes32hrDsssDataMode2MbpsShortPreambleE @4974 DATA
    _ZN4inet13physicallayer29Ieee80211HrDsssCompliantModes32hrDsssMode11MbpsCckShortPreambleE @4975 DATA
    _ZN4inet13physicallayer29Ieee80211HrDsssCompliantModes32hrDsssMode11MbpsPbccLongPreambleE @4976 DATA
    _ZN4inet13physicallayer29Ieee80211HrDsssCompliantModes32hrDsssMode5_5MbpsCckLongPreambleE @4977 DATA
    _ZN4inet13physicallayer29Ieee80211HrDsssCompliantModes33hrDsssHeaderMode1MbpsLongPreambleE @4978 DATA
    _ZN4inet13physicallayer29Ieee80211HrDsssCompliantModes33hrDsssMode11MbpsPbccShortPreambleE @4979 DATA
    _ZN4inet13physicallayer29Ieee80211HrDsssCompliantModes33hrDsssMode5_5MbpsCckShortPreambleE @4980 DATA
    _ZN4inet13physicallayer29Ieee80211HrDsssCompliantModes33hrDsssMode5_5MbpsPbccLongPreambleE @4981 DATA
    _ZN4inet13physicallayer29Ieee80211HrDsssCompliantModes34hrDsssHeaderMode2MbpsShortPreambleE @4982 DATA
    _ZN4inet13physicallayer29Ieee80211HrDsssCompliantModes35hrDsssDataMode11MbpsCckLongPreambleE @4983 DATA
    _ZN4inet13physicallayer29Ieee80211HrDsssCompliantModes35hrDsssPreambleMode1MbpsLongPreambleE @4984 DATA
    _ZN4inet13physicallayer29Ieee80211HrDsssCompliantModes36hrDsssDataMode11MbpsCckShortPreambleE @4985 DATA
    _ZN4inet13physicallayer29Ieee80211HrDsssCompliantModes36hrDsssDataMode11MbpsPbccLongPreambleE @4986 DATA
    _ZN4inet13physicallayer29Ieee80211HrDsssCompliantModes36hrDsssDataMode5_5MbpsCckLongPreambleE @4987 DATA
    _ZN4inet13physicallayer29Ieee80211HrDsssCompliantModes36hrDsssPreambleMode1MbpsShortPreambleE @4988 DATA
    _ZN4inet13physicallayer29Ieee80211HrDsssCompliantModes37hrDsssDataMode11MbpsPbccShortPreambleE @4989 DATA
    _ZN4inet13physicallayer29Ieee80211HrDsssCompliantModes37hrDsssDataMode5_5MbpsCckShortPreambleE @4990 DATA
    _ZN4inet13physicallayer29Ieee80211HrDsssCompliantModes37hrDsssDataMode5_5MbpsPbccLongPreambleE @4991 DATA
    _ZN4inet13physicallayer29Ieee80211UnitDiskTransmissionC1EPKNS0_6IRadioEPKNS_6PacketEN7omnetpp7SimTimeES9_S9_S9_S9_RKNS_5CoordESC_RKNS_10QuaternionESF_NS_5units5valueIdNSG_5units1mEEESK_SK_PKNS0_14IIeee80211ModeEPKNS0_16Ieee80211ChannelE @4992
    _ZN4inet13physicallayer29Ieee80211UnitDiskTransmissionC2EPKNS0_6IRadioEPKNS_6PacketEN7omnetpp7SimTimeES9_S9_S9_S9_RKNS_5CoordESC_RKNS_10QuaternionESF_NS_5units5valueIdNSG_5units1mEEESK_SK_PKNS0_14IIeee80211ModeEPKNS0_16Ieee80211ChannelE @4993
    _ZN4inet13physicallayer30Ieee80211ConfigureRadioCommand10setChannelEPNS0_16Ieee80211ChannelE @4994
    _ZN4inet13physicallayer30Ieee80211ConfigureRadioCommand10setModeSetEPKNS0_16Ieee80211ModeSetE @4995
    _ZN4inet13physicallayer30Ieee80211ConfigureRadioCommand12parsimUnpackEPN7omnetpp11cCommBufferE @4996
    _ZN4inet13physicallayer30Ieee80211ConfigureRadioCommand16setChannelNumberEi @4997
    _ZN4inet13physicallayer30Ieee80211ConfigureRadioCommand4copyERKS1_ @4998
    _ZN4inet13physicallayer30Ieee80211ConfigureRadioCommand7setBandEPNS0_14IIeee80211BandE @4999
    _ZN4inet13physicallayer30Ieee80211ConfigureRadioCommand7setModeEPKNS0_14IIeee80211ModeE @5000
    _ZN4inet13physicallayer30Ieee80211ConfigureRadioCommand9setOpModeEPKc @5001
    _ZN4inet13physicallayer30Ieee80211ConfigureRadioCommandC1ERKS1_ @5002
    _ZN4inet13physicallayer30Ieee80211ConfigureRadioCommandC1Ev @5003
    _ZN4inet13physicallayer30Ieee80211ConfigureRadioCommandC2ERKS1_ @5004
    _ZN4inet13physicallayer30Ieee80211ConfigureRadioCommandC2Ev @5005
    _ZN4inet13physicallayer30Ieee80211ConfigureRadioCommandD0Ev @5006
    _ZN4inet13physicallayer30Ieee80211ConfigureRadioCommandD1Ev @5007
    _ZN4inet13physicallayer30Ieee80211ConfigureRadioCommandD2Ev @5008
    _ZN4inet13physicallayer30Ieee80211ConfigureRadioCommandaSERKS1_ @5009
    _ZN4inet13physicallayer30Ieee80211ErpOfdmCompliantModes16erpOfdmMode6MbpsE @5010 DATA
    _ZN4inet13physicallayer30Ieee80211ErpOfdmCompliantModes16erpOfdmMode9MbpsE @5011 DATA
    _ZN4inet13physicallayer30Ieee80211ErpOfdmCompliantModes17erpOfdmMode12MbpsE @5012 DATA
    _ZN4inet13physicallayer30Ieee80211ErpOfdmCompliantModes17erpOfdmMode18MbpsE @5013 DATA
    _ZN4inet13physicallayer30Ieee80211ErpOfdmCompliantModes17erpOfdmMode24MbpsE @5014 DATA
    _ZN4inet13physicallayer30Ieee80211ErpOfdmCompliantModes17erpOfdmMode36MbpsE @5015 DATA
    _ZN4inet13physicallayer30Ieee80211ErpOfdmCompliantModes17erpOfdmMode48MbpsE @5016 DATA
    _ZN4inet13physicallayer30Ieee80211ErpOfdmCompliantModes17erpOfdmMode54MbpsE @5017 DATA
    _ZN4inet13physicallayer30Ieee80211ErpOfdmCompliantModes20erpOnlyOfdmMode6MbpsE @5018 DATA
    _ZN4inet13physicallayer30Ieee80211ErpOfdmCompliantModes20erpOnlyOfdmMode9MbpsE @5019 DATA
    _ZN4inet13physicallayer30Ieee80211ErpOfdmCompliantModes21erpOnlyOfdmMode12MbpsE @5020 DATA
    _ZN4inet13physicallayer30Ieee80211ErpOfdmCompliantModes21erpOnlyOfdmMode18MbpsE @5021 DATA
    _ZN4inet13physicallayer30Ieee80211ErpOfdmCompliantModes21erpOnlyOfdmMode24MbpsE @5022 DATA
    _ZN4inet13physicallayer30Ieee80211ErpOfdmCompliantModes21erpOnlyOfdmMode36MbpsE @5023 DATA
    _ZN4inet13physicallayer30Ieee80211ErpOfdmCompliantModes21erpOnlyOfdmMode48MbpsE @5024 DATA
    _ZN4inet13physicallayer30Ieee80211ErpOfdmCompliantModes21erpOnlyOfdmMode54MbpsE @5025 DATA
    _ZN4inet13physicallayer30Ieee80211OfdmDemodulatorModule10initializeEi @5026
    _ZN4inet13physicallayer30Ieee80211OfdmDemodulatorModuleD0Ev @5027
    _ZN4inet13physicallayer30Ieee80211OfdmDemodulatorModuleD1Ev @5028
    _ZN4inet13physicallayer30Ieee80211OfdmDemodulatorModuleD2Ev @5029
    _ZN4inet13physicallayer30Ieee80211OfdmInterleaverModule10initializeEi @5030
    _ZN4inet13physicallayer30Ieee80211OfdmInterleaverModuleD0Ev @5031
    _ZN4inet13physicallayer30Ieee80211OfdmInterleaverModuleD1Ev @5032
    _ZN4inet13physicallayer30Ieee80211OfdmInterleaverModuleD2Ev @5033
    _ZN4inet13physicallayer30IsotropicScalarBackgroundNoise10initializeEi @5034
    _ZN4inet13physicallayer31Ieee80211DimensionalTransmitter10initializeEi @5035
    _ZN4inet13physicallayer31Ieee80211DimensionalTransmitterC1Ev @5036
    _ZN4inet13physicallayer31Ieee80211DimensionalTransmitterC2Ev @5037
    _ZN4inet13physicallayer31Ieee80211LayeredOfdmTransmitter10initializeEi @5038
    _ZN4inet13physicallayer31Ieee80211LayeredOfdmTransmitterD0Ev @5039
    _ZN4inet13physicallayer31Ieee80211LayeredOfdmTransmitterD1Ev @5040
    _ZN4inet13physicallayer31Ieee80211LayeredOfdmTransmitterD2Ev @5041
    _ZN4inet13physicallayer32EthernetFragmentPhyHeaderChecker10dropPacketEPNS_6PacketE @5042
    _ZN4inet13physicallayer32EthernetFragmentPhyHeaderChecker13processPacketEPNS_6PacketE @5043
    _ZN4inet13physicallayer32Ieee80211DimensionalTransmissionC1EPKNS0_6IRadioEPKNS_6PacketEN7omnetpp7SimTimeES9_S9_S9_S9_RKNS_5CoordESC_RKNS_10QuaternionESF_PKNS0_11IModulationENS_5units5valueIxNSJ_5units1bEEESN_NSK_IdNSJ_3powINSL_1sELin1ELi1EEEEESR_NSK_IdNSJ_7composeISM_SQ_EEEERKNS_12IntrusivePtrIKNS_4math9IFunctionINSK_IdNSS_INSS_INSS_INSS_INSL_1mENSS_INSL_2kgENSO_ISP_Lin2ELi1EEEEEEESY_EESQ_EENSO_ISQ_Lin1ELi1EEEEEEENSW_6DomainIJNSK_IS9_SP_EESR_EEEEEEEPKNS0_14IIeee80211ModeEPKNS0_16Ieee80211ChannelE @5044
    _ZN4inet13physicallayer32Ieee80211DimensionalTransmissionC2EPKNS0_6IRadioEPKNS_6PacketEN7omnetpp7SimTimeES9_S9_S9_S9_RKNS_5CoordESC_RKNS_10QuaternionESF_PKNS0_11IModulationENS_5units5valueIxNSJ_5units1bEEESN_NSK_IdNSJ_3powINSL_1sELin1ELi1EEEEESR_NSK_IdNSJ_7composeISM_SQ_EEEERKNS_12IntrusivePtrIKNS_4math9IFunctionINSK_IdNSS_INSS_INSS_INSS_INSL_1mENSS_INSL_2kgENSO_ISP_Lin2ELi1EEEEEEESY_EESQ_EENSO_ISQ_Lin1ELi1EEEEEEENSW_6DomainIJNSK_IS9_SP_EESR_EEEEEEEPKNS0_14IIeee80211ModeEPKNS0_16Ieee80211ChannelE @5045
    _ZN4inet13physicallayer32ScalarReceptionSignalAnalogModelC1EN7omnetpp7SimTimeENS_5units5valueIdNS4_3powINS4_5units1sELin1ELi1EEEEESA_NS5_IdNS4_7composeINSB_INSB_INS7_1mENSB_INS7_2kgENS6_IS8_Lin2ELi1EEEEEEESC_EES9_EEEE @5046
    _ZN4inet13physicallayer32ScalarReceptionSignalAnalogModelC2EN7omnetpp7SimTimeENS_5units5valueIdNS4_3powINS4_5units1sELin1ELi1EEEEESA_NS5_IdNS4_7composeINSB_INSB_INS7_1mENSB_INS7_2kgENS6_IS8_Lin2ELi1EEEEEEESC_EES9_EEEE @5047
    _ZN4inet13physicallayer33EthernetFragmentPhyHeaderInserter13processPacketEPNS_6PacketE @5048
    _ZN4inet13physicallayer33EthernetFragmentPhyHeaderInserter15pushPacketStartEPNS_6PacketEPN7omnetpp5cGateENS_5units5valueIdNS7_7composeINS7_5units1bENS7_3powINSA_1sELin1ELi1EEEEEEE @5049
    _ZN4inet13physicallayer33EthernetFragmentPhyHeaderInserter21handlePacketProcessedEPNS_6PacketE @5050
    _ZN4inet13physicallayer33Ieee80211OfdmCompliantModulations14bpskModulationE @5051 DATA
    _ZN4inet13physicallayer33Ieee80211OfdmCompliantModulations14qpskModulationE @5052 DATA
    _ZN4inet13physicallayer33Ieee80211OfdmCompliantModulations15qam16ModulationE @5053 DATA
    _ZN4inet13physicallayer33Ieee80211OfdmCompliantModulations15qam64ModulationE @5054 DATA
    _ZN4inet13physicallayer33Ieee80211OfdmCompliantModulations15qbpskModulationE @5055 DATA
    _ZN4inet13physicallayer33Ieee80211OfdmCompliantModulations16qam256ModulationE @5056 DATA
    _ZN4inet13physicallayer33Ieee80211OfdmReceptionSymbolModelC1EididPKSt6vectorIPKNS0_7ISymbolESaIS5_EE @5057
    _ZN4inet13physicallayer33Ieee80211OfdmReceptionSymbolModelC2EididPKSt6vectorIPKNS0_7ISymbolESaIS5_EE @5058
    _ZN4inet13physicallayer33Ieee80211OfdmReceptionSymbolModelD0Ev @5059
    _ZN4inet13physicallayer33Ieee80211OfdmReceptionSymbolModelD1Ev @5060
    _ZN4inet13physicallayer33Ieee80211OfdmReceptionSymbolModelD2Ev @5061
    _ZN4inet13physicallayer34Ieee802154NarrowbandScalarReceiver10initializeEi @5062
    _ZN4inet13physicallayer34Ieee802154NarrowbandScalarReceiverC1Ev @5063
    _ZN4inet13physicallayer34Ieee802154NarrowbandScalarReceiverC2Ev @5064
    _ZN4inet13physicallayer35IsotropicDimensionalBackgroundNoise10initializeEi @5065
    _ZN4inet13physicallayer35ScalarTransmissionSignalAnalogModelC1EN7omnetpp7SimTimeENS_5units5valueIdNS4_3powINS4_5units1sELin1ELi1EEEEESA_NS5_IdNS4_7composeINSB_INSB_INS7_1mENSB_INS7_2kgENS6_IS8_Lin2ELi1EEEEEEESC_EES9_EEEE @5066
    _ZN4inet13physicallayer35ScalarTransmissionSignalAnalogModelC2EN7omnetpp7SimTimeENS_5units5valueIdNS4_3powINS4_5units1sELin1ELi1EEEEESA_NS5_IdNS4_7composeINSB_INSB_INS7_1mENSB_INS7_2kgENS6_IS8_Lin2ELi1EEEEEEESC_EES9_EEEE @5067
    _ZN4inet13physicallayer36Ieee80211OfdmTransmissionSymbolModelC1EididPKSt6vectorIPKNS0_7ISymbolESaIS5_EEPKNS0_11IModulationESC_ @5068
    _ZN4inet13physicallayer36Ieee80211OfdmTransmissionSymbolModelC2EididPKSt6vectorIPKNS0_7ISymbolESaIS5_EEPKNS0_11IModulationESC_ @5069
    _ZN4inet13physicallayer36Ieee80211OfdmTransmissionSymbolModelD0Ev @5070
    _ZN4inet13physicallayer36Ieee80211OfdmTransmissionSymbolModelD1Ev @5071
    _ZN4inet13physicallayer36Ieee80211OfdmTransmissionSymbolModelD2Ev @5072
    _ZN4inet13physicallayer37DimensionalReceptionSignalAnalogModelC1EN7omnetpp7SimTimeENS_5units5valueIdNS4_3powINS4_5units1sELin1ELi1EEEEESA_RKNS_12IntrusivePtrIKNS_4math9IFunctionINS5_IdNS4_7composeINSE_INSE_INSE_INS7_1mENSE_INS7_2kgENS6_IS8_Lin2ELi1EEEEEEESF_EES9_EENS6_IS9_Lin1ELi1EEEEEEENSC_6DomainIJNS5_IS3_S8_EESA_EEEEEEE @5073
    _ZN4inet13physicallayer37DimensionalReceptionSignalAnalogModelC2EN7omnetpp7SimTimeENS_5units5valueIdNS4_3powINS4_5units1sELin1ELi1EEEEESA_RKNS_12IntrusivePtrIKNS_4math9IFunctionINS5_IdNS4_7composeINSE_INSE_INSE_INS7_1mENSE_INS7_2kgENS6_IS8_Lin2ELi1EEEEEEESF_EES9_EENS6_IS9_Lin1ELi1EEEEEEENSC_6DomainIJNS5_IS3_S8_EESA_EEEEEEE @5074
    _ZN4inet13physicallayer37Ieee802154NarrowbandScalarTransmitterC1Ev @5075
    _ZN4inet13physicallayer37Ieee802154NarrowbandScalarTransmitterC2Ev @5076
    _ZN4inet13physicallayer39Ieee802154NarrowbandDimensionalReceiver10initializeEi @5077
    _ZN4inet13physicallayer39Ieee802154NarrowbandDimensionalReceiverC1Ev @5078
    _ZN4inet13physicallayer39Ieee802154NarrowbandDimensionalReceiverC2Ev @5079
    _ZN4inet13physicallayer40DimensionalTransmissionSignalAnalogModelC1EN7omnetpp7SimTimeENS_5units5valueIdNS4_3powINS4_5units1sELin1ELi1EEEEESA_RKNS_12IntrusivePtrIKNS_4math9IFunctionINS5_IdNS4_7composeINSE_INSE_INSE_INS7_1mENSE_INS7_2kgENS6_IS8_Lin2ELi1EEEEEEESF_EES9_EENS6_IS9_Lin1ELi1EEEEEEENSC_6DomainIJNS5_IS3_S8_EESA_EEEEEEE @5080
    _ZN4inet13physicallayer40DimensionalTransmissionSignalAnalogModelC2EN7omnetpp7SimTimeENS_5units5valueIdNS4_3powINS4_5units1sELin1ELi1EEEEESA_RKNS_12IntrusivePtrIKNS_4math9IFunctionINS5_IdNS4_7composeINSE_INSE_INSE_INS7_1mENSE_INS7_2kgENS6_IS8_Lin2ELi1EEEEEEESF_EES9_EENS6_IS9_Lin1ELi1EEEEEEENSC_6DomainIJNS5_IS3_S8_EESA_EEEEEEE @5081
    _ZN4inet13physicallayer42Ieee802154NarrowbandDimensionalTransmitter10initializeEi @5082
    _ZN4inet13physicallayer42Ieee802154NarrowbandDimensionalTransmitterC1Ev @5083
    _ZN4inet13physicallayer42Ieee802154NarrowbandDimensionalTransmitterC2Ev @5084
    _ZN4inet13physicallayer5Radio10initializeEi @5085
    _ZN4inet13physicallayer5Radio12endReceptionEPN7omnetpp8cMessageE @5086
    _ZN4inet13physicallayer5Radio12handleSignalEPNS0_14WirelessSignalE @5087
    _ZN4inet13physicallayer5Radio12setRadioModeENS0_6IRadio9RadioModeE @5088
    _ZN4inet13physicallayer5Radio14abortReceptionEPN7omnetpp8cMessageE @5089
    _ZN4inet13physicallayer5Radio14startReceptionEPN7omnetpp8cMessageENS0_12IRadioSignal10SignalPartE @5090
    _ZN4inet13physicallayer5Radio15endTransmissionEv @5091
    _ZN4inet13physicallayer5Radio16captureReceptionEPN7omnetpp8cMessageE @5092
    _ZN4inet13physicallayer5Radio17abortTransmissionEv @5093
    _ZN4inet13physicallayer5Radio17continueReceptionEPN7omnetpp8cMessageE @5094
    _ZN4inet13physicallayer5Radio17handleSelfMessageEPN7omnetpp8cMessageE @5095
    _ZN4inet13physicallayer5Radio17handleSwitchTimerEPN7omnetpp8cMessageE @5096
    _ZN4inet13physicallayer5Radio17handleUpperPacketEPNS_6PacketE @5097
    _ZN4inet13physicallayer5Radio17startTransmissionEPNS_6PacketENS0_12IRadioSignal10SignalPartE @5098
    _ZN4inet13physicallayer5Radio18handleLowerCommandEPN7omnetpp8cMessageE @5099
    _ZN4inet13physicallayer5Radio18handleUpperCommandEPN7omnetpp8cMessageE @5100
    _ZN4inet13physicallayer5Radio19handleStopOperationEPNS_18LifecycleOperationE @5101
    _ZN4inet13physicallayer5Radio19initializeRadioModeEv @5102
    _ZN4inet13physicallayer5Radio20continueTransmissionEv @5103
    _ZN4inet13physicallayer5Radio20handleCrashOperationEPNS_18LifecycleOperationE @5104
    _ZN4inet13physicallayer5Radio20handleReceptionTimerEPN7omnetpp8cMessageE @5105
    _ZN4inet13physicallayer5Radio20handleStartOperationEPNS_18LifecycleOperationE @5106
    _ZN4inet13physicallayer5Radio20startRadioModeSwitchENS0_6IRadio9RadioModeEN7omnetpp7SimTimeE @5107
    _ZN4inet13physicallayer5Radio21handleMessageWhenDownEPN7omnetpp8cMessageE @5108
    _ZN4inet13physicallayer5Radio21updateTransceiverPartEv @5109
    _ZN4inet13physicallayer5Radio22updateTransceiverStateEv @5110
    _ZN4inet13physicallayer5Radio23completeRadioModeSwitchENS0_6IRadio9RadioModeE @5111
    _ZN4inet13physicallayer5Radio23handleTransmissionTimerEPN7omnetpp8cMessageE @5112
    _ZN4inet13physicallayer5Radio28parseRadioModeSwitchingTimesEv @5113
    _ZN4inet13physicallayer5Radio6sendUpEPNS_6PacketE @5114
    _ZN4inet13physicallayer5RadioD0Ev @5115
    _ZN4inet13physicallayer5RadioD1Ev @5116
    _ZN4inet13physicallayer5RadioD2Ev @5117
    _ZN4inet13physicallayer6IRadio13radioModeEnumE @5118 DATA
    _ZN4inet13physicallayer6IRadio16getRadioModeNameENS1_9RadioModeE @5119
    _ZN4inet13physicallayer6IRadio18receptionStateEnumE @5120 DATA
    _ZN4inet13physicallayer6IRadio21transmissionStateEnumE @5121 DATA
    _ZN4inet13physicallayer6IRadio22listeningChangedSignalE @5122 DATA
    _ZN4inet13physicallayer6IRadio22radioModeChangedSignalE @5123 DATA
    _ZN4inet13physicallayer6IRadio26getRadioReceptionStateNameENS1_14ReceptionStateE @5124
    _ZN4inet13physicallayer6IRadio27receptionStateChangedSignalE @5125 DATA
    _ZN4inet13physicallayer6IRadio29getRadioTransmissionStateNameENS1_17TransmissionStateE @5126
    _ZN4inet13physicallayer6IRadio30transmissionStateChangedSignalE @5127 DATA
    _ZN4inet13physicallayer6IRadio31receivedSignalPartChangedSignalE @5128 DATA
    _ZN4inet13physicallayer6IRadio34transmittedSignalPartChangedSignalE @5129 DATA
    _ZN4inet13physicallayer6IRadio6nextIdE @5130 DATA
    _ZN4inet13physicallayer6SignalC1EPKcsx @5131
    _ZN4inet13physicallayer6SignalC1ERKS1_ @5132
    _ZN4inet13physicallayer6SignalC2EPKcsx @5133
    _ZN4inet13physicallayer6SignalC2ERKS1_ @5134
    _ZN4inet13physicallayer7ArrivalC1EN7omnetpp7SimTimeES3_S3_S3_S3_S3_S3_RKNS_5CoordES6_RKNS_10QuaternionES9_ @5135
    _ZN4inet13physicallayer7ArrivalC2EN7omnetpp7SimTimeES3_S3_S3_S3_S3_S3_RKNS_5CoordES6_RKNS_10QuaternionES9_ @5136
    _ZN4inet13physicallayer8ApskCodeC1EPKNS0_17ConvolutionalCodeEPKNS0_13IInterleavingEPKNS0_11IScramblingE @5137
    _ZN4inet13physicallayer8ApskCodeC2EPKNS0_17ConvolutionalCodeEPKNS0_13IInterleavingEPKNS0_11IScramblingE @5138
    _ZN4inet13physicallayer8ApskCodeD0Ev @5139
    _ZN4inet13physicallayer8ApskCodeD1Ev @5140
    _ZN4inet13physicallayer8ApskCodeD2Ev @5141
    _ZN4inet13physicallayer8SnirBaseC2EPKNS0_10IReceptionEPKNS0_6INoiseE @5142
    _ZN4inet13physicallayer9ApskRadio10initializeEi @5143
    _ZN4inet13physicallayer9ApskRadio17handleUpperPacketEPNS_6PacketE @5144
    _ZN4inet13physicallayer9ApskRadio6sendUpEPNS_6PacketE @5145
    _ZN4inet13physicallayer9ApskRadioC1Ev @5146
    _ZN4inet13physicallayer9ApskRadioC2Ev @5147
    _ZN4inet13physicallayer9NoiseBaseC1EN7omnetpp7SimTimeES3_ @5148
    _ZN4inet13physicallayer9NoiseBaseC2EN7omnetpp7SimTimeES3_ @5149
    _ZN4inet14AggregatorBase10initializeEi @5150
    _ZN4inet14AggregatorBase10pushPacketEPNS_6PacketEPN7omnetpp5cGateE @5151
    _ZN4inet14AggregatorBase14endAggregationEPNS_6PacketE @5152
    _ZN4inet14AggregatorBase16startAggregationEPNS_6PacketE @5153
    _ZN4inet14AggregatorBase19continueAggregationEPNS_6PacketE @5154
    _ZN4inet14BMacHeaderBase10setSrcAddrERKNS_10MacAddressE @5155
    _ZN4inet14BMacHeaderBase11setDestAddrERKNS_10MacAddressE @5156
    _ZN4inet14BMacHeaderBase12parsimUnpackEPN7omnetpp11cCommBufferE @5157
    _ZN4inet14BMacHeaderBase4copyERKS0_ @5158
    _ZN4inet14BMacHeaderBase7setTypeENS_8BMacTypeE @5159
    _ZN4inet14BMacHeaderBaseC1ERKS0_ @5160
    _ZN4inet14BMacHeaderBaseC1Ev @5161
    _ZN4inet14BMacHeaderBaseC2ERKS0_ @5162
    _ZN4inet14BMacHeaderBaseC2Ev @5163
    _ZN4inet14BMacHeaderBaseD0Ev @5164
    _ZN4inet14BMacHeaderBaseD1Ev @5165
    _ZN4inet14BMacHeaderBaseD2Ev @5166
    _ZN4inet14BMacHeaderBaseaSERKS0_ @5167
    _ZN4inet14ByteCountChunk10doInsertAtERKNS_12IntrusivePtrIKNS_5ChunkEEENS_5units5valueIxNS7_5units1bEEE @5168
    _ZN4inet14ByteCountChunk10doRemoveAtENS_5units5valueIxNS1_5units1bEEES5_ @5169
    _ZN4inet14ByteCountChunk12convertChunkERKSt9type_infoRKNS_12IntrusivePtrINS_5ChunkEEENS_5units5valueIxNS9_5units1bEEESD_i @5170
    _ZN4inet14ByteCountChunk12parsimUnpackEPN7omnetpp11cCommBufferE @5171
    _ZN4inet14ByteCountChunk14doInsertAtBackERKNS_12IntrusivePtrIKNS_5ChunkEEE @5172
    _ZN4inet14ByteCountChunk14doRemoveAtBackENS_5units5valueIxNS1_5units1bEEE @5173
    _ZN4inet14ByteCountChunk15doInsertAtFrontERKNS_12IntrusivePtrIKNS_5ChunkEEE @5174
    _ZN4inet14ByteCountChunk15doRemoveAtFrontENS_5units5valueIxNS1_5units1bEEE @5175
    _ZN4inet14ByteCountChunk7setDataEh @5176
    _ZN4inet14ByteCountChunk9setLengthENS_5units5valueIxNS1_8intscaleINS1_5units1bELi1ELi8EEEEE @5177
    _ZN4inet14ByteCountChunkC1ENS_5units5valueIxNS1_8intscaleINS1_5units1bELi1ELi8EEEEEh @5178
    _ZN4inet14ByteCountChunkC1Ev @5179
    _ZN4inet14ByteCountChunkC2ENS_5units5valueIxNS1_8intscaleINS1_5units1bELi1ELi8EEEEEh @5180
    _ZN4inet14ByteCountChunkC2Ev @5181
    _ZN4inet14CareOfTestInit12parsimUnpackEPN7omnetpp11cCommBufferE @5182
    _ZN4inet14CareOfTestInit19setCareOfInitCookieEj @5183
    _ZN4inet14CareOfTestInit4copyERKS0_ @5184
    _ZN4inet14CareOfTestInitC1ERKS0_ @5185
    _ZN4inet14CareOfTestInitC1Ev @5186
    _ZN4inet14CareOfTestInitC2ERKS0_ @5187
    _ZN4inet14CareOfTestInitC2Ev @5188
    _ZN4inet14CareOfTestInitD0Ev @5189
    _ZN4inet14CareOfTestInitD1Ev @5190
    _ZN4inet14CareOfTestInitD2Ev @5191
    _ZN4inet14CareOfTestInitaSERKS0_ @5192
    _ZN4inet14ChiangMobility10initializeEi @5193
    _ZN4inet14ChiangMobility17getNextStateIndexEi @5194
    _ZN4inet14ChiangMobility17setTargetPositionEv @5195
    _ZN4inet14ChiangMobility4moveEv @5196
    _ZN4inet14ChiangMobilityC1Ev @5197
    _ZN4inet14ChiangMobilityC2Ev @5198
    _ZN4inet14CircleMobility10initializeEi @5199
    _ZN4inet14CircleMobility18setInitialPositionEv @5200
    _ZN4inet14CircleMobility4moveEv @5201
    _ZN4inet14EigrpIpv4Hello10setStubTlvERKNS_12EigrpTlvStubE @5202
    _ZN4inet14EigrpIpv4Hello12parsimUnpackEPN7omnetpp11cCommBufferE @5203
    _ZN4inet14EigrpIpv4Hello15setParameterTlvERKNS_17EigrpTlvParameterE @5204
    _ZN4inet14EigrpIpv4Hello4copyERKS0_ @5205
    _ZN4inet14EigrpIpv4HelloC1ERKS0_ @5206
    _ZN4inet14EigrpIpv4HelloC1Ev @5207
    _ZN4inet14EigrpIpv4HelloC2ERKS0_ @5208
    _ZN4inet14EigrpIpv4HelloC2Ev @5209
    _ZN4inet14EigrpIpv4HelloD0Ev @5210
    _ZN4inet14EigrpIpv4HelloD1Ev @5211
    _ZN4inet14EigrpIpv4HelloD2Ev @5212
    _ZN4inet14EigrpIpv4HelloaSERKS0_ @5213
    _ZN4inet14EigrpIpv4Query12parsimUnpackEPN7omnetpp11cCommBufferE @5214
    _ZN4inet14EigrpIpv4Query4copyERKS0_ @5215
    _ZN4inet14EigrpIpv4QueryC1ERKS0_ @5216
    _ZN4inet14EigrpIpv4QueryC1Ev @5217
    _ZN4inet14EigrpIpv4QueryC2ERKS0_ @5218
    _ZN4inet14EigrpIpv4QueryC2Ev @5219
    _ZN4inet14EigrpIpv4QueryD0Ev @5220
    _ZN4inet14EigrpIpv4QueryD1Ev @5221
    _ZN4inet14EigrpIpv4QueryD2Ev @5222
    _ZN4inet14EigrpIpv4QueryaSERKS0_ @5223
    _ZN4inet14EigrpIpv4Reply12parsimUnpackEPN7omnetpp11cCommBufferE @5224
    _ZN4inet14EigrpIpv4Reply4copyERKS0_ @5225
    _ZN4inet14EigrpIpv4ReplyC1ERKS0_ @5226
    _ZN4inet14EigrpIpv4ReplyC1Ev @5227
    _ZN4inet14EigrpIpv4ReplyC2ERKS0_ @5228
    _ZN4inet14EigrpIpv4ReplyC2Ev @5229
    _ZN4inet14EigrpIpv4ReplyD0Ev @5230
    _ZN4inet14EigrpIpv4ReplyD1Ev @5231
    _ZN4inet14EigrpIpv4ReplyD2Ev @5232
    _ZN4inet14EigrpIpv4ReplyaSERKS0_ @5233
    _ZN4inet14EigrpIpv6Hello10setStubTlvERKNS_12EigrpTlvStubE @5234
    _ZN4inet14EigrpIpv6Hello12parsimUnpackEPN7omnetpp11cCommBufferE @5235
    _ZN4inet14EigrpIpv6Hello15setParameterTlvERKNS_17EigrpTlvParameterE @5236
    _ZN4inet14EigrpIpv6Hello4copyERKS0_ @5237
    _ZN4inet14EigrpIpv6HelloC1ERKS0_ @5238
    _ZN4inet14EigrpIpv6HelloC1Ev @5239
    _ZN4inet14EigrpIpv6HelloC2ERKS0_ @5240
    _ZN4inet14EigrpIpv6HelloC2Ev @5241
    _ZN4inet14EigrpIpv6HelloD0Ev @5242
    _ZN4inet14EigrpIpv6HelloD1Ev @5243
    _ZN4inet14EigrpIpv6HelloD2Ev @5244
    _ZN4inet14EigrpIpv6HelloaSERKS0_ @5245
    _ZN4inet14EigrpIpv6Query12parsimUnpackEPN7omnetpp11cCommBufferE @5246
    _ZN4inet14EigrpIpv6Query4copyERKS0_ @5247
    _ZN4inet14EigrpIpv6QueryC1ERKS0_ @5248
    _ZN4inet14EigrpIpv6QueryC1Ev @5249
    _ZN4inet14EigrpIpv6QueryC2ERKS0_ @5250
    _ZN4inet14EigrpIpv6QueryC2Ev @5251
    _ZN4inet14EigrpIpv6QueryD0Ev @5252
    _ZN4inet14EigrpIpv6QueryD1Ev @5253
    _ZN4inet14EigrpIpv6QueryD2Ev @5254
    _ZN4inet14EigrpIpv6QueryaSERKS0_ @5255
    _ZN4inet14EigrpIpv6Reply12parsimUnpackEPN7omnetpp11cCommBufferE @5256
    _ZN4inet14EigrpIpv6Reply4copyERKS0_ @5257
    _ZN4inet14EigrpIpv6ReplyC1ERKS0_ @5258
    _ZN4inet14EigrpIpv6ReplyC1Ev @5259
    _ZN4inet14EigrpIpv6ReplyC2ERKS0_ @5260
    _ZN4inet14EigrpIpv6ReplyC2Ev @5261
    _ZN4inet14EigrpIpv6ReplyD0Ev @5262
    _ZN4inet14EigrpIpv6ReplyD1Ev @5263
    _ZN4inet14EigrpIpv6ReplyD2Ev @5264
    _ZN4inet14EigrpIpv6ReplyaSERKS0_ @5265
    _ZN4inet14ElapsedTimeTag12parsimUnpackEPN7omnetpp11cCommBufferE @5266
    _ZN4inet14ElapsedTimeTag4copyERKS0_ @5267
    _ZN4inet14ElapsedTimeTagC1ERKS0_ @5268
    _ZN4inet14ElapsedTimeTagC1Ev @5269
    _ZN4inet14ElapsedTimeTagC2ERKS0_ @5270
    _ZN4inet14ElapsedTimeTagC2Ev @5271
    _ZN4inet14ElapsedTimeTagD0Ev @5272
    _ZN4inet14ElapsedTimeTagD1Ev @5273
    _ZN4inet14ElapsedTimeTagD2Ev @5274
    _ZN4inet14ElapsedTimeTagaSERKS0_ @5275
    _ZN4inet14EncryptedChunk12forEachChildEPN7omnetpp8cVisitorE @5276
    _ZN4inet14EncryptedChunk12parsimUnpackEPN7omnetpp11cCommBufferE @5277
    _ZN4inet14EncryptedChunk9setLengthENS_5units5valueIxNS1_5units1bEEE @5278
    _ZN4inet14EncryptedChunkC1ERKNS_12IntrusivePtrINS_5ChunkEEENS_5units5valueIxNS6_5units1bEEE @5279
    _ZN4inet14EncryptedChunkC1Ev @5280
    _ZN4inet14EncryptedChunkC2ERKNS_12IntrusivePtrINS_5ChunkEEENS_5units5valueIxNS6_5units1bEEE @5281
    _ZN4inet14EncryptedChunkC2Ev @5282
    _ZN4inet14EtherAppClient10initializeEi @5283
    _ZN4inet14EtherAppClient10sendPacketEv @5284
    _ZN4inet14EtherAppClient11isGeneratorEv @5285
    _ZN4inet14EtherAppClient12socketClosedEPNS_17Ieee8022LlcSocketE @5286
    _ZN4inet14EtherAppClient16cancelNextPacketEv @5287
    _ZN4inet14EtherAppClient17socketDataArrivedEPNS_17Ieee8022LlcSocketEPNS_6PacketE @5288
    _ZN4inet14EtherAppClient18scheduleNextPacketEb @5289
    _ZN4inet14EtherAppClient19handleMessageWhenUpEPN7omnetpp8cMessageE @5290
    _ZN4inet14EtherAppClient19handleStopOperationEPNS_18LifecycleOperationE @5291
    _ZN4inet14EtherAppClient20handleCrashOperationEPNS_18LifecycleOperationE @5292
    _ZN4inet14EtherAppClient20handleStartOperationEPNS_18LifecycleOperationE @5293
    _ZN4inet14EtherAppClient21resolveDestMacAddressEv @5294
    _ZN4inet14EtherAppClient6finishEv @5295
    _ZN4inet14EtherAppClientD0Ev @5296
    _ZN4inet14EtherAppClientD1Ev @5297
    _ZN4inet14EtherAppClientD2Ev @5298
    _ZN4inet14EtherAppServer10initializeEi @5299
    _ZN4inet14EtherAppServer10sendPacketEPNS_6PacketEiRKNS_10MacAddressEi @5300
    _ZN4inet14EtherAppServer12registerDsapEi @5301
    _ZN4inet14EtherAppServer12socketClosedEPNS_17Ieee8022LlcSocketE @5302
    _ZN4inet14EtherAppServer17socketDataArrivedEPNS_17Ieee8022LlcSocketEPNS_6PacketE @5303
    _ZN4inet14EtherAppServer19handleMessageWhenUpEPN7omnetpp8cMessageE @5304
    _ZN4inet14EtherAppServer19handleStopOperationEPNS_18LifecycleOperationE @5305
    _ZN4inet14EtherAppServer20handleCrashOperationEPNS_18LifecycleOperationE @5306
    _ZN4inet14EtherAppServer20handleStartOperationEPNS_18LifecycleOperationE @5307
    _ZN4inet14EtherAppServer6finishEv @5308
    _ZN4inet14EthernetSocket14processMessageEPN7omnetpp8cMessageE @5309
    _ZN4inet14EthernetSocket4bindERKNS_10MacAddressES3_PKNS_8ProtocolEb @5310
    _ZN4inet14EthernetSocket7sendOutEPN7omnetpp8cMessageE @5311
    _ZN4inet14FacingMobility10initializeEi @5312
    _ZN4inet14FacingMobility21handleParameterChangeEPKc @5313
    _ZN4inet14FacingMobility25getCurrentAngularPositionEv @5314
    _ZN4inet14FigureRecorder4initEPN7omnetpp15cResultRecorder7ContextE @5315
    _ZN4inet14FigureRecorder7collectERKN7omnetpp7SimTimeEdPNS1_7cObjectE @5316
    _ZN4inet14FloodingHeader10setSrcAddrERKNS_9L3AddressE @5317
    _ZN4inet14FloodingHeader11setDestAddrERKNS_9L3AddressE @5318
    _ZN4inet14FloodingHeader12parsimUnpackEPN7omnetpp11cCommBufferE @5319
    _ZN4inet14FloodingHeader13setProtocolIdENS_12IpProtocolIdE @5320
    _ZN4inet14FloodingHeader21setPayloadLengthFieldENS_5units5valueIxNS1_8intscaleINS1_5units1bELi1ELi8EEEEE @5321
    _ZN4inet14FloodingHeader4copyERKS0_ @5322
    _ZN4inet14FloodingHeader6setTtlEi @5323
    _ZN4inet14FloodingHeader9setSeqNumEm @5324
    _ZN4inet14FloodingHeaderC1ERKS0_ @5325
    _ZN4inet14FloodingHeaderC1Ev @5326
    _ZN4inet14FloodingHeaderC2ERKS0_ @5327
    _ZN4inet14FloodingHeaderC2Ev @5328
    _ZN4inet14FloodingHeaderD0Ev @5329
    _ZN4inet14FloodingHeaderD1Ev @5330
    _ZN4inet14FloodingHeaderD2Ev @5331
    _ZN4inet14FloodingHeaderaSERKS0_ @5332
    _ZN4inet14FragmenterBase10initializeEi @5333
    _ZN4inet14FragmenterBase10pushPacketEPNS_6PacketEPN7omnetpp5cGateE @5334
    _ZN4inet14FragmenterBase20createFragmentPacketEPNS_6PacketENS_5units5valueIxNS3_5units1bEEES7_ii @5335
    _ZN4inet14GptpPdelayResp12parsimUnpackEPN7omnetpp11cCommBufferE @5336
    _ZN4inet14GptpPdelayResp25setRequestingPortIdentityERKNS_12PortIdentityE @5337
    _ZN4inet14GptpPdelayResp26setRequestReceiptTimestampENS_9ClockTimeE @5338
    _ZN4inet14GptpPdelayResp4copyERKS0_ @5339
    _ZN4inet14GptpPdelayRespC1ERKS0_ @5340
    _ZN4inet14GptpPdelayRespC1Ev @5341
    _ZN4inet14GptpPdelayRespC2ERKS0_ @5342
    _ZN4inet14GptpPdelayRespC2Ev @5343
    _ZN4inet14GptpPdelayRespD0Ev @5344
    _ZN4inet14GptpPdelayRespD1Ev @5345
    _ZN4inet14GptpPdelayRespD2Ev @5346
    _ZN4inet14GptpPdelayRespaSERKS0_ @5347
    _ZN4inet14HoldtimeOption11setHoldTimeEt @5348
    _ZN4inet14HoldtimeOption12parsimUnpackEPN7omnetpp11cCommBufferE @5349
    _ZN4inet14HoldtimeOption4copyERKS0_ @5350
    _ZN4inet14HoldtimeOptionC1ERKS0_ @5351
    _ZN4inet14HoldtimeOptionC1Ev @5352
    _ZN4inet14HoldtimeOptionC2ERKS0_ @5353
    _ZN4inet14HoldtimeOptionC2Ev @5354
    _ZN4inet14HoldtimeOptionD0Ev @5355
    _ZN4inet14HoldtimeOptionD1Ev @5356
    _ZN4inet14HoldtimeOptionD2Ev @5357
    _ZN4inet14HoldtimeOptionaSERKS0_ @5358
    _ZN4inet14HopLimitHeader11setHopLimitEi @5359
    _ZN4inet14HopLimitHeader12parsimUnpackEPN7omnetpp11cCommBufferE @5360
    _ZN4inet14HopLimitHeader4copyERKS0_ @5361
    _ZN4inet14HopLimitHeaderC1ERKS0_ @5362
    _ZN4inet14HopLimitHeaderC1Ev @5363
    _ZN4inet14HopLimitHeaderC2ERKS0_ @5364
    _ZN4inet14HopLimitHeaderC2Ev @5365
    _ZN4inet14HopLimitHeaderD0Ev @5366
    _ZN4inet14HopLimitHeaderD1Ev @5367
    _ZN4inet14HopLimitHeaderD2Ev @5368
    _ZN4inet14HopLimitHeaderaSERKS0_ @5369
    _ZN4inet14INITSTAGE_LASTE @5370 DATA
    _ZN4inet14Ieee8021dRelay10initializeEi @5371
    _ZN4inet14Ieee8021dRelay15registerAddressENS_10MacAddressE @5372
    _ZN4inet14Ieee8021dRelay17handleLowerPacketEPNS_6PacketE @5373
    _ZN4inet14Ieee8021dRelay17handleUpperPacketEPNS_6PacketE @5374
    _ZN4inet14Ieee8021dRelay17registerAddressesENS_10MacAddressES1_ @5375
    _ZN4inet14Ieee8021dRelay17updatePeerAddressEPNS_16NetworkInterfaceENS_10MacAddressEj @5376
    _ZN4inet14Ieee8021dRelay19handleStopOperationEPNS_18LifecycleOperationE @5377
    _ZN4inet14Ieee8021dRelay20handleCrashOperationEPNS_18LifecycleOperationE @5378
    _ZN4inet14Ieee8021dRelay20handleStartOperationEPNS_18LifecycleOperationE @5379
    _ZN4inet14Ieee8021dRelay21chooseBridgeInterfaceEv @5380
    _ZN4inet14Ieee8021dRelay6finishEv @5381
    _ZN4inet14Ieee8021dRelay6sendUpEPNS_6PacketE @5382
    _ZN4inet14InterfaceTable10initializeEi @5383
    _ZN4inet14InterfaceTable12addInterfaceEPNS_16NetworkInterfaceE @5384
    _ZN4inet14InterfaceTable13receiveSignalEPN7omnetpp10cComponentEiPNS1_7cObjectES5_ @5385
    _ZN4inet14InterfaceTable15deleteInterfaceEPNS_16NetworkInterfaceE @5386
    _ZN4inet14InterfaceTable15resetInterfacesEv @5387
    _ZN4inet14InterfaceTable16interfaceChangedEiPKNS_29NetworkInterfaceChangeDetailsE @5388
    _ZN4inet14InterfaceTable19handleMessageWhenUpEPN7omnetpp8cMessageE @5389
    _ZN4inet14InterfaceTable19handleStopOperationEPNS_18LifecycleOperationE @5390
    _ZN4inet14InterfaceTable20handleCrashOperationEPNS_18LifecycleOperationE @5391
    _ZN4inet14InterfaceTable20handleStartOperationEPNS_18LifecycleOperationE @5392
    _ZN4inet14InterfaceTable23discoverConnectingGatesEPNS_16NetworkInterfaceE @5393
    _ZN4inet14InterfaceTable26invalidateTmpInterfaceListEv @5394
    _ZN4inet14InterfaceTableC1Ev @5395
    _ZN4inet14InterfaceTableC2Ev @5396
    _ZN4inet14InterfaceTableD0Ev @5397
    _ZN4inet14InterfaceTableD1Ev @5398
    _ZN4inet14InterfaceTableD2Ev @5399
    _ZN4inet14Ipv4OptionsInd12parsimUnpackEPN7omnetpp11cCommBufferE @5400
    _ZN4inet14Ipv4OptionsInd4copyERKS0_ @5401
    _ZN4inet14Ipv4OptionsIndC1ERKS0_ @5402
    _ZN4inet14Ipv4OptionsIndC1Ev @5403
    _ZN4inet14Ipv4OptionsIndC2ERKS0_ @5404
    _ZN4inet14Ipv4OptionsIndC2Ev @5405
    _ZN4inet14Ipv4OptionsIndD0Ev @5406
    _ZN4inet14Ipv4OptionsIndD1Ev @5407
    _ZN4inet14Ipv4OptionsIndD2Ev @5408
    _ZN4inet14Ipv4OptionsIndaSERKS0_ @5409
    _ZN4inet14Ipv4OptionsReq12parsimUnpackEPN7omnetpp11cCommBufferE @5410
    _ZN4inet14Ipv4OptionsReq4copyERKS0_ @5411
    _ZN4inet14Ipv4OptionsReqC1ERKS0_ @5412
    _ZN4inet14Ipv4OptionsReqC1Ev @5413
    _ZN4inet14Ipv4OptionsReqC2ERKS0_ @5414
    _ZN4inet14Ipv4OptionsReqC2Ev @5415
    _ZN4inet14Ipv4OptionsReqD0Ev @5416
    _ZN4inet14Ipv4OptionsReqD1Ev @5417
    _ZN4inet14Ipv4OptionsReqD2Ev @5418
    _ZN4inet14Ipv4OptionsReqaSERKS0_ @5419
    _ZN4inet14JoinPruneGroup12parsimUnpackEPN7omnetpp11cCommBufferE @5420
    _ZN4inet14JoinPruneGroup15setGroupAddressERKNS_19EncodedGroupAddressE @5421
    _ZN4inet14JoinPruneGroup22setJoinedSourceAddressEyRKNS_20EncodedSourceAddressE @5422
    _ZN4inet14JoinPruneGroup22setPrunedSourceAddressEyRKNS_20EncodedSourceAddressE @5423
    _ZN4inet14JoinPruneGroup24eraseJoinedSourceAddressEy @5424
    _ZN4inet14JoinPruneGroup24erasePrunedSourceAddressEy @5425
    _ZN4inet14JoinPruneGroup25appendJoinedSourceAddressERKNS_20EncodedSourceAddressE @5426
    _ZN4inet14JoinPruneGroup25appendPrunedSourceAddressERKNS_20EncodedSourceAddressE @5427
    _ZN4inet14JoinPruneGroup25insertJoinedSourceAddressEyRKNS_20EncodedSourceAddressE @5428
    _ZN4inet14JoinPruneGroup25insertPrunedSourceAddressEyRKNS_20EncodedSourceAddressE @5429
    _ZN4inet14JoinPruneGroup31setJoinedSourceAddressArraySizeEy @5430
    _ZN4inet14JoinPruneGroup31setPrunedSourceAddressArraySizeEy @5431
    _ZN4inet14JoinPruneGroup4copyERKS0_ @5432
    _ZN4inet14JoinPruneGroupC1ERKS0_ @5433
    _ZN4inet14JoinPruneGroupC1Ev @5434
    _ZN4inet14JoinPruneGroupC2ERKS0_ @5435
    _ZN4inet14JoinPruneGroupC2Ev @5436
    _ZN4inet14JoinPruneGroupD0Ev @5437
    _ZN4inet14JoinPruneGroupD1Ev @5438
    _ZN4inet14JoinPruneGroupD2Ev @5439
    _ZN4inet14JoinPruneGroupaSERKS0_ @5440
    _ZN4inet14LMacHeaderBase10setSrcAddrERKNS_10MacAddressE @5441
    _ZN4inet14LMacHeaderBase11setDestAddrERKNS_10MacAddressE @5442
    _ZN4inet14LMacHeaderBase12parsimUnpackEPN7omnetpp11cCommBufferE @5443
    _ZN4inet14LMacHeaderBase16setOccupiedSlotsEyRKNS_10MacAddressE @5444
    _ZN4inet14LMacHeaderBase18eraseOccupiedSlotsEy @5445
    _ZN4inet14LMacHeaderBase19appendOccupiedSlotsERKNS_10MacAddressE @5446
    _ZN4inet14LMacHeaderBase19insertOccupiedSlotsEyRKNS_10MacAddressE @5447
    _ZN4inet14LMacHeaderBase25setOccupiedSlotsArraySizeEy @5448
    _ZN4inet14LMacHeaderBase4copyERKS0_ @5449
    _ZN4inet14LMacHeaderBase7setTypeENS_8LMacTypeE @5450
    _ZN4inet14LMacHeaderBase9setMySlotEi @5451
    _ZN4inet14LMacHeaderBaseC1ERKS0_ @5452
    _ZN4inet14LMacHeaderBaseC1Ev @5453
    _ZN4inet14LMacHeaderBaseC2ERKS0_ @5454
    _ZN4inet14LMacHeaderBaseC2Ev @5455
    _ZN4inet14LMacHeaderBaseD0Ev @5456
    _ZN4inet14LMacHeaderBaseD1Ev @5457
    _ZN4inet14LMacHeaderBaseD2Ev @5458
    _ZN4inet14LMacHeaderBaseaSERKS0_ @5459
    _ZN4inet14LinearMobility10initializeEi @5460
    _ZN4inet14LinearMobility4moveEv @5461
    _ZN4inet14LinearMobilityC1Ev @5462
    _ZN4inet14LinearMobilityC2Ev @5463
    _ZN4inet14MacAddressType8INSTANCEE @5464 DATA
    _ZN4inet14MacProtocolInd12parsimUnpackEPN7omnetpp11cCommBufferE @5465
    _ZN4inet14MacProtocolInd20setMacProtocolHeaderERKNS_12IntrusivePtrIKNS_5ChunkEEE @5466
    _ZN4inet14MacProtocolInd4copyERKS0_ @5467
    _ZN4inet14MacProtocolIndC1ERKS0_ @5468
    _ZN4inet14MacProtocolIndC1Ev @5469
    _ZN4inet14MacProtocolIndC2ERKS0_ @5470
    _ZN4inet14MacProtocolIndC2Ev @5471
    _ZN4inet14MacProtocolIndD0Ev @5472
    _ZN4inet14MacProtocolIndD1Ev @5473
    _ZN4inet14MacProtocolIndD2Ev @5474
    _ZN4inet14MacProtocolIndaSERKS0_ @5475
    _ZN4inet14MacProtocolReq12parsimUnpackEPN7omnetpp11cCommBufferE @5476
    _ZN4inet14MacProtocolReq4copyERKS0_ @5477
    _ZN4inet14MacProtocolReqC1ERKS0_ @5478
    _ZN4inet14MacProtocolReqC1Ev @5479
    _ZN4inet14MacProtocolReqC2ERKS0_ @5480
    _ZN4inet14MacProtocolReqC2Ev @5481
    _ZN4inet14MacProtocolReqD0Ev @5482
    _ZN4inet14MacProtocolReqD1Ev @5483
    _ZN4inet14MacProtocolReqD2Ev @5484
    _ZN4inet14MacProtocolReqaSERKS0_ @5485
    _ZN4inet14MatchableField8setFieldEPN7omnetpp7cObjectEPKc @5486
    _ZN4inet14MatchableField8setFieldEPN7omnetpp7cObjectEi @5487
    _ZN4inet14MatchableFieldC1EPN7omnetpp7cObjectEi @5488
    _ZN4inet14MatchableFieldC2EPN7omnetpp7cObjectEi @5489
    _ZN4inet14MessageChecker10initializeEv @5490
    _ZN4inet14MessageChecker12checkMessageEPN7omnetpp8cMessageE @5491
    _ZN4inet14MessageChecker13handleMessageEPN7omnetpp8cMessageE @5492
    _ZN4inet14MessageChecker14forwardMessageEPN7omnetpp8cMessageE @5493
    _ZN4inet14MessageChecker6finishEv @5494
    _ZN4inet14MessageCheckerC1Ev @5495
    _ZN4inet14MessageCheckerC2Ev @5496
    _ZN4inet14MobilityHeader12parsimUnpackEPN7omnetpp11cCommBufferE @5497
    _ZN4inet14MobilityHeader21setMobilityHeaderTypeENS_18MobilityHeaderTypeE @5498
    _ZN4inet14MobilityHeader4copyERKS0_ @5499
    _ZN4inet14MobilityHeaderC1ERKS0_ @5500
    _ZN4inet14MobilityHeaderC1Ev @5501
    _ZN4inet14MobilityHeaderC2ERKS0_ @5502
    _ZN4inet14MobilityHeaderC2Ev @5503
    _ZN4inet14MobilityHeaderD0Ev @5504
    _ZN4inet14MobilityHeaderD1Ev @5505
    _ZN4inet14MobilityHeaderD2Ev @5506
    _ZN4inet14MobilityHeaderaSERKS0_ @5507
    _ZN4inet14OscillatorBase10initializeEi @5508
    _ZN4inet14OscillatorBase22driftRateChangedSignalE @5509 DATA
    _ZN4inet14PacketEventTag12parsimUnpackEPN7omnetpp11cCommBufferE @5510
    _ZN4inet14PacketEventTag15setPacketEventsEyPNS_11PacketEventE @5511
    _ZN4inet14PacketEventTag17erasePacketEventsEy @5512
    _ZN4inet14PacketEventTag18appendPacketEventsEPNS_11PacketEventE @5513
    _ZN4inet14PacketEventTag18insertPacketEventsEyPNS_11PacketEventE @5514
    _ZN4inet14PacketEventTag24setPacketEventsArraySizeEy @5515
    _ZN4inet14PacketEventTag4copyERKS0_ @5516
    _ZN4inet14PacketEventTagC1ERKS0_ @5517
    _ZN4inet14PacketEventTagC1Ev @5518
    _ZN4inet14PacketEventTagC2ERKS0_ @5519
    _ZN4inet14PacketEventTagC2Ev @5520
    _ZN4inet14PacketEventTagD0Ev @5521
    _ZN4inet14PacketEventTagD1Ev @5522
    _ZN4inet14PacketEventTagD2Ev @5523
    _ZN4inet14PacketEventTagaSERKS0_ @5524
    _ZN4inet14PacketReceiver13receiveSignalEPNS_13physicallayer6SignalE @5525
    _ZN4inet14PacketReceiver19handleMessageWhenUpEPN7omnetpp8cMessageE @5526
    _ZN4inet14PacketStreamer10initializeEi @5527
    _ZN4inet14PacketStreamer10pushPacketEPNS_6PacketEPN7omnetpp5cGateE @5528
    _ZN4inet14PacketStreamer12endStreamingEv @5529
    _ZN4inet14PacketStreamer13handleMessageEPN7omnetpp8cMessageE @5530
    _ZN4inet14PacketStreamer13pullPacketEndEPN7omnetpp5cGateE @5531
    _ZN4inet14PacketStreamer15pullPacketStartEPN7omnetpp5cGateENS_5units5valueIdNS4_7composeINS4_5units1bENS4_3powINS7_1sELin1ELi1EEEEEEE @5532
    _ZN4inet14PacketStreamer18pullPacketProgressEPN7omnetpp5cGateENS_5units5valueIdNS4_7composeINS4_5units1bENS4_3powINS7_1sELin1ELi1EEEEEEENS5_IxS8_EESE_ @5533
    _ZN4inet14PacketStreamer25handlePullPacketProcessedEPNS_6PacketEPN7omnetpp5cGateEb @5534
    _ZN4inet14PacketStreamer25handlePushPacketProcessedEPNS_6PacketEPN7omnetpp5cGateEb @5535
    _ZN4inet14PacketStreamer26handleCanPullPacketChangedEPN7omnetpp5cGateE @5536
    _ZN4inet14PacketStreamer26handleCanPushPacketChangedEPN7omnetpp5cGateE @5537
    _ZN4inet14PacketStreamerD0Ev @5538
    _ZN4inet14PacketStreamerD1Ev @5539
    _ZN4inet14PacketStreamerD2Ev @5540
    _ZN4inet14PatternMatcher10setPatternEPKcbbb @5541
    _ZN4inet14PatternMatcher12debugStrFromB5cxx11Ei @5542
    _ZN4inet14PatternMatcher13parseNumRangeERPKccRlS4_ @5543
    _ZN4inet14PatternMatcher17containsWildcardsEPKc @5544
    _ZN4inet14PatternMatcher18parseLiteralStringERPKcRNS0_4ElemE @5545
    _ZN4inet14PatternMatcher20patternPrefixMatchesEPKci @5546
    _ZN4inet14PatternMatcher8parseSetERPKcRNS0_4ElemE @5547
    _ZN4inet14PatternMatcherC1EPKcbbb @5548
    _ZN4inet14PatternMatcherC1Ev @5549
    _ZN4inet14PatternMatcherC2EPKcbbb @5550
    _ZN4inet14PatternMatcherC2Ev @5551
    _ZN4inet14PatternMatcherD1Ev @5552
    _ZN4inet14PatternMatcherD2Ev @5553
    _ZN4inet14PolyhedronFace15computeCentroidEv @5554
    _ZN4inet14PolyhedronFace19computeNormalVectorEv @5555
    _ZN4inet14PolyhedronFace8findEdgeEPNS_14PolyhedronEdgeE @5556
    _ZN4inet14PolyhedronFace8pushEdgeEPNS_14PolyhedronEdgeE @5557
    _ZN4inet14PolyhedronFaceC1EPNS_15PolyhedronPointES2_S2_ @5558
    _ZN4inet14PolyhedronFaceC2EPNS_15PolyhedronPointES2_S2_ @5559
    _ZN4inet14PolyhedronFaceD0Ev @5560
    _ZN4inet14PolyhedronFaceD1Ev @5561
    _ZN4inet14PolyhedronFaceD2Ev @5562
    _ZN4inet14ProtocolHeader12parsimUnpackEPN7omnetpp11cCommBufferE @5563
    _ZN4inet14ProtocolHeader13setProtocolIdEi @5564
    _ZN4inet14ProtocolHeader4copyERKS0_ @5565
    _ZN4inet14ProtocolHeaderC1ERKS0_ @5566
    _ZN4inet14ProtocolHeaderC1Ev @5567
    _ZN4inet14ProtocolHeaderC2ERKS0_ @5568
    _ZN4inet14ProtocolHeaderC2Ev @5569
    _ZN4inet14ProtocolHeaderD0Ev @5570
    _ZN4inet14ProtocolHeaderD1Ev @5571
    _ZN4inet14ProtocolHeaderD2Ev @5572
    _ZN4inet14ProtocolHeaderaSERKS0_ @5573
    _ZN4inet14RotationMatrix21computeRotationMatrixERKdS2_S2_S2_ @5574
    _ZN4inet14RotationMatrixC1EPA3_Kd @5575
    _ZN4inet14RotationMatrixC1ERKNS_11EulerAnglesE @5576
    _ZN4inet14RotationMatrixC1Ev @5577
    _ZN4inet14RotationMatrixC2EPA3_Kd @5578
    _ZN4inet14RotationMatrixC2ERKNS_11EulerAnglesE @5579
    _ZN4inet14RotationMatrixC2Ev @5580
    _ZN4inet14RsvpClassifier10initializeEi @5581
    _ZN4inet14RsvpClassifier11lookupLabelEPNS_6PacketERSt6vectorINS_7LabelOpESaIS4_EERNSt7__cxx1112basic_stringIcSt11char_traitsIcESaIcEEERi @5582
    _ZN4inet14RsvpClassifier13handleMessageEPN7omnetpp8cMessageE @5583
    _ZN4inet14RsvpClassifier14processCommandERKN7omnetpp11cXMLElementE @5584
    _ZN4inet14RsvpClassifier15readItemFromXMLEPKN7omnetpp11cXMLElementE @5585
    _ZN4inet14RsvpClassifier16readTableFromXMLEPKN7omnetpp11cXMLElementE @5586
    _ZN4inet14RsvpClassifier4bindERKNS_10SessionObjERKNS_17SenderTemplateObjEi @5587
    _ZN4inet14RsvpClassifier7findFECEi @5588
    _ZN4inet14RtpApplication10initializeEi @5589
    _ZN4inet14RtpApplication13handleMessageEPN7omnetpp8cMessageE @5590
    _ZN4inet14SctpCommandReq10setNumMsgsEi @5591
    _ZN4inet14SctpCommandReq10setPrValueEd @5592
    _ZN4inet14SctpCommandReq11setSocketIdEi @5593
    _ZN4inet14SctpCommandReq12parsimUnpackEPN7omnetpp11cCommBufferE @5594
    _ZN4inet14SctpCommandReq12setLocalAddrERKNS_9L3AddressE @5595
    _ZN4inet14SctpCommandReq12setLocalPortEi @5596
    _ZN4inet14SctpCommandReq13setRemoteAddrERKNS_9L3AddressE @5597
    _ZN4inet14SctpCommandReq13setRemotePortEi @5598
    _ZN4inet14SctpCommandReq16setSendUnorderedEt @5599
    _ZN4inet14SctpCommandReq4copyERKS0_ @5600
    _ZN4inet14SctpCommandReq5setFdEi @5601
    _ZN4inet14SctpCommandReq6setSidEi @5602
    _ZN4inet14SctpCommandReq6setSsnEi @5603
    _ZN4inet14SctpCommandReq7setGateEi @5604
    _ZN4inet14SctpCommandReqC1ERKS0_ @5605
    _ZN4inet14SctpCommandReqC1Ev @5606
    _ZN4inet14SctpCommandReqC2ERKS0_ @5607
    _ZN4inet14SctpCommandReqC2Ev @5608
    _ZN4inet14SctpCommandReqD0Ev @5609
    _ZN4inet14SctpCommandReqD1Ev @5610
    _ZN4inet14SctpCommandReqD2Ev @5611
    _ZN4inet14SctpCommandReqaSERKS0_ @5612
    _ZN4inet14SctpConnectReq12parsimUnpackEPN7omnetpp11cCommBufferE @5613
    _ZN4inet14SctpConnectReq17setInboundStreamsEi @5614
    _ZN4inet14SctpConnectReq18setOutboundStreamsEi @5615
    _ZN4inet14SctpConnectReq18setRemoteAddressesERKSt6vectorINS_9L3AddressESaIS2_EE @5616
    _ZN4inet14SctpConnectReq4copyERKS0_ @5617
    _ZN4inet14SctpConnectReq9setStatusEi @5618
    _ZN4inet14SctpConnectReqC1ERKS0_ @5619
    _ZN4inet14SctpConnectReqC1Ev @5620
    _ZN4inet14SctpConnectReqC2ERKS0_ @5621
    _ZN4inet14SctpConnectReqC2Ev @5622
    _ZN4inet14SctpConnectReqD0Ev @5623
    _ZN4inet14SctpConnectReqD1Ev @5624
    _ZN4inet14SctpConnectReqD2Ev @5625
    _ZN4inet14SctpConnectReqaSERKS0_ @5626
    _ZN4inet14SenderTspecObjC1Ev @5627
    _ZN4inet14SenderTspecObjC2Ev @5628
    _ZN4inet14ShortBitVectorC1EPKc @5629
    _ZN4inet14ShortBitVectorC1Ej @5630
    _ZN4inet14ShortBitVectorC1Ejj @5631
    _ZN4inet14ShortBitVectorC1Ev @5632
    _ZN4inet14ShortBitVectorC2EPKc @5633
    _ZN4inet14ShortBitVectorC2Ej @5634
    _ZN4inet14ShortBitVectorC2Ejj @5635
    _ZN4inet14ShortBitVectorC2Ev @5636
    _ZN4inet14SignalPowerInd12parsimUnpackEPN7omnetpp11cCommBufferE @5637
    _ZN4inet14SignalPowerInd4copyERKS0_ @5638
    _ZN4inet14SignalPowerIndC1ERKS0_ @5639
    _ZN4inet14SignalPowerIndC1Ev @5640
    _ZN4inet14SignalPowerIndC2ERKS0_ @5641
    _ZN4inet14SignalPowerIndC2Ev @5642
    _ZN4inet14SignalPowerIndD0Ev @5643
    _ZN4inet14SignalPowerIndD1Ev @5644
    _ZN4inet14SignalPowerIndD2Ev @5645
    _ZN4inet14SignalPowerIndaSERKS0_ @5646
    _ZN4inet14SignalPowerReq12parsimUnpackEPN7omnetpp11cCommBufferE @5647
    _ZN4inet14SignalPowerReq4copyERKS0_ @5648
    _ZN4inet14SignalPowerReqC1ERKS0_ @5649
    _ZN4inet14SignalPowerReqC1Ev @5650
    _ZN4inet14SignalPowerReqC2ERKS0_ @5651
    _ZN4inet14SignalPowerReqC2Ev @5652
    _ZN4inet14SignalPowerReqD0Ev @5653
    _ZN4inet14SignalPowerReqD1Ev @5654
    _ZN4inet14SignalPowerReqD2Ev @5655
    _ZN4inet14SignalPowerReqaSERKS0_ @5656
    _ZN4inet14StreamSplitter10initializeEi @5657
    _ZN4inet14StreamSplitter10pushPacketEPNS_6PacketEPN7omnetpp5cGateE @5658
    _ZN4inet14StreamSplitter21handleParameterChangeEPKc @5659
    _ZN4inet14StreamSplitter22getNumPacketDuplicatesEPNS_6PacketE @5660
    _ZN4inet14StreamSplitter29getRegistrationForwardingGateEPN7omnetpp5cGateE @5661
    _ZN4inet14TcpConnectInfo12parsimUnpackEPN7omnetpp11cCommBufferE @5662
    _ZN4inet14TcpConnectInfo12setLocalAddrERKNS_9L3AddressE @5663
    _ZN4inet14TcpConnectInfo12setLocalPortEi @5664
    _ZN4inet14TcpConnectInfo13setRemoteAddrERKNS_9L3AddressE @5665
    _ZN4inet14TcpConnectInfo13setRemotePortEi @5666
    _ZN4inet14TcpConnectInfo4copyERKS0_ @5667
    _ZN4inet14TcpConnectInfoC1ERKS0_ @5668
    _ZN4inet14TcpConnectInfoC1Ev @5669
    _ZN4inet14TcpConnectInfoC2ERKS0_ @5670
    _ZN4inet14TcpConnectInfoC2Ev @5671
    _ZN4inet14TcpConnectInfoD0Ev @5672
    _ZN4inet14TcpConnectInfoD1Ev @5673
    _ZN4inet14TcpConnectInfoD2Ev @5674
    _ZN4inet14TcpConnectInfoaSERKS0_ @5675
    _ZN4inet14TcpOpenCommand12parsimUnpackEPN7omnetpp11cCommBufferE @5676
    _ZN4inet14TcpOpenCommand12setLocalAddrERKNS_9L3AddressE @5677
    _ZN4inet14TcpOpenCommand12setLocalPortEi @5678
    _ZN4inet14TcpOpenCommand13setRemoteAddrERKNS_9L3AddressE @5679
    _ZN4inet14TcpOpenCommand13setRemotePortEi @5680
    _ZN4inet14TcpOpenCommand20setTcpAlgorithmClassEPKc @5681
    _ZN4inet14TcpOpenCommand4copyERKS0_ @5682
    _ZN4inet14TcpOpenCommand7setForkEb @5683
    _ZN4inet14TcpOpenCommandC1ERKS0_ @5684
    _ZN4inet14TcpOpenCommandC1Ev @5685
    _ZN4inet14TcpOpenCommandC2ERKS0_ @5686
    _ZN4inet14TcpOpenCommandC2Ev @5687
    _ZN4inet14TcpOpenCommandD0Ev @5688
    _ZN4inet14TcpOpenCommandD1Ev @5689
    _ZN4inet14TcpOpenCommandD2Ev @5690
    _ZN4inet14TcpOpenCommandaSERKS0_ @5691
    _ZN4inet14TunControlInfo12parsimUnpackEPN7omnetpp11cCommBufferE @5692
    _ZN4inet14TunControlInfo4copyERKS0_ @5693
    _ZN4inet14TunControlInfoC1ERKS0_ @5694
    _ZN4inet14TunControlInfoC1Ev @5695
    _ZN4inet14TunControlInfoC2ERKS0_ @5696
    _ZN4inet14TunControlInfoC2Ev @5697
    _ZN4inet14TunControlInfoD0Ev @5698
    _ZN4inet14TunControlInfoD1Ev @5699
    _ZN4inet14TunControlInfoD2Ev @5700
    _ZN4inet14TunControlInfoaSERKS0_ @5701
    _ZN4inet14TunLoopbackApp10initializeEi @5702
    _ZN4inet14TunLoopbackApp13handleMessageEPN7omnetpp8cMessageE @5703
    _ZN4inet14TunLoopbackApp6finishEv @5704
    _ZN4inet14TunOpenCommand12parsimUnpackEPN7omnetpp11cCommBufferE @5705
    _ZN4inet14TunOpenCommand4copyERKS0_ @5706
    _ZN4inet14TunOpenCommandC1ERKS0_ @5707
    _ZN4inet14TunOpenCommandC1Ev @5708
    _ZN4inet14TunOpenCommandC2ERKS0_ @5709
    _ZN4inet14TunOpenCommandC2Ev @5710
    _ZN4inet14TunOpenCommandD0Ev @5711
    _ZN4inet14TunOpenCommandD1Ev @5712
    _ZN4inet14TunOpenCommandD2Ev @5713
    _ZN4inet14TunOpenCommandaSERKS0_ @5714
    _ZN4inet14TurtleMobility10initializeEi @5715
    _ZN4inet14TurtleMobility12resumeScriptEv @5716
    _ZN4inet14TurtleMobility15computeMaxSpeedEPN7omnetpp11cXMLElementE @5717
    _ZN4inet14TurtleMobility16executeStatementEPN7omnetpp11cXMLElementE @5718
    _ZN4inet14TurtleMobility17gotoNextStatementEv @5719
    _ZN4inet14TurtleMobility17setTargetPositionEv @5720
    _ZN4inet14TurtleMobility18setInitialPositionEv @5721
    _ZN4inet14TurtleMobility4moveEv @5722
    _ZN4inet14TurtleMobility8getValueEPKc @5723
    _ZN4inet14TurtleMobilityC1Ev @5724
    _ZN4inet14TurtleMobilityC2Ev @5725
    _ZN4inet14UdpBindCommand12parsimUnpackEPN7omnetpp11cCommBufferE @5726
    _ZN4inet14UdpBindCommand12setLocalAddrERKNS_9L3AddressE @5727
    _ZN4inet14UdpBindCommand12setLocalPortEi @5728
    _ZN4inet14UdpBindCommand4copyERKS0_ @5729
    _ZN4inet14UdpBindCommandC1ERKS0_ @5730
    _ZN4inet14UdpBindCommandC1Ev @5731
    _ZN4inet14UdpBindCommandC2ERKS0_ @5732
    _ZN4inet14UdpBindCommandC2Ev @5733
    _ZN4inet14UdpBindCommandD0Ev @5734
    _ZN4inet14UdpBindCommandD1Ev @5735
    _ZN4inet14UdpBindCommandD2Ev @5736
    _ZN4inet14UdpBindCommandaSERKS0_ @5737
    _ZN4inet14UdpControlInfo12parsimUnpackEPN7omnetpp11cCommBufferE @5738
    _ZN4inet14UdpControlInfo4copyERKS0_ @5739
    _ZN4inet14UdpControlInfoC1ERKS0_ @5740
    _ZN4inet14UdpControlInfoC1Ev @5741
    _ZN4inet14UdpControlInfoC2ERKS0_ @5742
    _ZN4inet14UdpControlInfoC2Ev @5743
    _ZN4inet14UdpControlInfoD0Ev @5744
    _ZN4inet14UdpControlInfoD1Ev @5745
    _ZN4inet14UdpControlInfoD2Ev @5746
    _ZN4inet14UdpControlInfoaSERKS0_ @5747
    _ZN4inet14XMacHeaderBase10setSrcAddrERKNS_10MacAddressE @5748
    _ZN4inet14XMacHeaderBase11setDestAddrERKNS_10MacAddressE @5749
    _ZN4inet14XMacHeaderBase12parsimUnpackEPN7omnetpp11cCommBufferE @5750
    _ZN4inet14XMacHeaderBase4copyERKS0_ @5751
    _ZN4inet14XMacHeaderBase7setTypeENS_9XMacTypesE @5752
    _ZN4inet14XMacHeaderBaseC1ERKS0_ @5753
    _ZN4inet14XMacHeaderBaseC1Ev @5754
    _ZN4inet14XMacHeaderBaseC2ERKS0_ @5755
    _ZN4inet14XMacHeaderBaseC2Ev @5756
    _ZN4inet14XMacHeaderBaseD0Ev @5757
    _ZN4inet14XMacHeaderBaseD1Ev @5758
    _ZN4inet14XMacHeaderBaseD2Ev @5759
    _ZN4inet14XMacHeaderBaseaSERKS0_ @5760
    _ZN4inet15AckingMacHeader12parsimUnpackEPN7omnetpp11cCommBufferE @5761
    _ZN4inet15AckingMacHeader14setSrcModuleIdEi @5762
    _ZN4inet15AckingMacHeader18setNetworkProtocolEi @5763
    _ZN4inet15AckingMacHeader4copyERKS0_ @5764
    _ZN4inet15AckingMacHeader6setSrcERKNS_10MacAddressE @5765
    _ZN4inet15AckingMacHeader7setDestERKNS_10MacAddressE @5766
    _ZN4inet15AckingMacHeaderC1ERKS0_ @5767
    _ZN4inet15AckingMacHeaderC1Ev @5768
    _ZN4inet15AckingMacHeaderC2ERKS0_ @5769
    _ZN4inet15AckingMacHeaderC2Ev @5770
    _ZN4inet15AckingMacHeaderD0Ev @5771
    _ZN4inet15AckingMacHeaderD1Ev @5772
    _ZN4inet15AckingMacHeaderD2Ev @5773
    _ZN4inet15AckingMacHeaderaSERKS0_ @5774
    _ZN4inet15ApplicationBaseC2Ev @5775
    _ZN4inet15CLNSAddressType8INSTANCEE @5776 DATA
    _ZN4inet15ChunkSerializer21totalSerializedLengthE @5777 DATA
    _ZN4inet15ChunkSerializer23totalDeserializedLengthE @5778 DATA
    _ZN4inet15ClockEvent_Base11setRelativeEb @5779
    _ZN4inet15ClockEvent_Base12parsimUnpackEPN7omnetpp11cCommBufferE @5780
    _ZN4inet15ClockEvent_Base19setArrivalClockTimeENS_9ClockTimeE @5781
    _ZN4inet15ClockEvent_Base32setOverdueClockEventHandlingModeENS_29OverdueClockEventHandlingModeE @5782
    _ZN4inet15ClockEvent_Base4copyERKS0_ @5783
    _ZN4inet15ClockEvent_Base8setClockEPNS_6IClockE @5784
    _ZN4inet15ClockEvent_BaseC1EPKcs @5785
    _ZN4inet15ClockEvent_BaseC1ERKS0_ @5786
    _ZN4inet15ClockEvent_BaseC2EPKcs @5787
    _ZN4inet15ClockEvent_BaseC2ERKS0_ @5788
    _ZN4inet15ClockEvent_BaseD0Ev @5789
    _ZN4inet15ClockEvent_BaseD1Ev @5790
    _ZN4inet15ClockEvent_BaseD2Ev @5791
    _ZN4inet15ClockEvent_BaseaSERKS0_ @5792
    _ZN4inet15CrcInserterBase10initializeEi @5793
    _ZN4inet15CreationTimeTag12parsimUnpackEPN7omnetpp11cCommBufferE @5794
    _ZN4inet15CreationTimeTag15setCreationTimeEN7omnetpp7SimTimeE @5795
    _ZN4inet15CreationTimeTag4copyERKS0_ @5796
    _ZN4inet15CreationTimeTagC1ERKS0_ @5797
    _ZN4inet15CreationTimeTagC1Ev @5798
    _ZN4inet15CreationTimeTagC2ERKS0_ @5799
    _ZN4inet15CreationTimeTagC2Ev @5800
    _ZN4inet15CreationTimeTagD0Ev @5801
    _ZN4inet15CreationTimeTagD1Ev @5802
    _ZN4inet15CreationTimeTagD2Ev @5803
    _ZN4inet15CreationTimeTagaSERKS0_ @5804
    _ZN4inet15CsmaCaMacHeader12parsimUnpackEPN7omnetpp11cCommBufferE @5805
    _ZN4inet15CsmaCaMacHeader18setReceiverAddressERKNS_10MacAddressE @5806
    _ZN4inet15CsmaCaMacHeader20setHeaderLengthFieldEh @5807
    _ZN4inet15CsmaCaMacHeader21setTransmitterAddressERKNS_10MacAddressE @5808
    _ZN4inet15CsmaCaMacHeader4copyERKS0_ @5809
    _ZN4inet15CsmaCaMacHeader7setTypeENS_19CsmaCaMacHeaderTypeE @5810
    _ZN4inet15CsmaCaMacHeaderC1ERKS0_ @5811
    _ZN4inet15CsmaCaMacHeaderC1Ev @5812
    _ZN4inet15CsmaCaMacHeaderC2ERKS0_ @5813
    _ZN4inet15CsmaCaMacHeaderC2Ev @5814
    _ZN4inet15CsmaCaMacHeaderD0Ev @5815
    _ZN4inet15CsmaCaMacHeaderD1Ev @5816
    _ZN4inet15CsmaCaMacHeaderD2Ev @5817
    _ZN4inet15CsmaCaMacHeaderaSERKS0_ @5818
    _ZN4inet15DelayingTimeTag12parsimUnpackEPN7omnetpp11cCommBufferE @5819
    _ZN4inet15DelayingTimeTag4copyERKS0_ @5820
    _ZN4inet15DelayingTimeTagC1ERKS0_ @5821
    _ZN4inet15DelayingTimeTagC1Ev @5822
    _ZN4inet15DelayingTimeTagC2ERKS0_ @5823
    _ZN4inet15DelayingTimeTagC2Ev @5824
    _ZN4inet15DelayingTimeTagD0Ev @5825
    _ZN4inet15DelayingTimeTagD1Ev @5826
    _ZN4inet15DelayingTimeTagD2Ev @5827
    _ZN4inet15DelayingTimeTagaSERKS0_ @5828
    _ZN4inet15DropEligibleInd12parsimUnpackEPN7omnetpp11cCommBufferE @5829
    _ZN4inet15DropEligibleInd4copyERKS0_ @5830
    _ZN4inet15DropEligibleIndC1ERKS0_ @5831
    _ZN4inet15DropEligibleIndC1Ev @5832
    _ZN4inet15DropEligibleIndC2ERKS0_ @5833
    _ZN4inet15DropEligibleIndC2Ev @5834
    _ZN4inet15DropEligibleIndD0Ev @5835
    _ZN4inet15DropEligibleIndD1Ev @5836
    _ZN4inet15DropEligibleIndD2Ev @5837
    _ZN4inet15DropEligibleIndaSERKS0_ @5838
    _ZN4inet15DropEligibleReq12parsimUnpackEPN7omnetpp11cCommBufferE @5839
    _ZN4inet15DropEligibleReq4copyERKS0_ @5840
    _ZN4inet15DropEligibleReqC1ERKS0_ @5841
    _ZN4inet15DropEligibleReqC1Ev @5842
    _ZN4inet15DropEligibleReqC2ERKS0_ @5843
    _ZN4inet15DropEligibleReqC2Ev @5844
    _ZN4inet15DropEligibleReqD0Ev @5845
    _ZN4inet15DropEligibleReqD1Ev @5846
    _ZN4inet15DropEligibleReqD2Ev @5847
    _ZN4inet15DropEligibleReqaSERKS0_ @5848
    _ZN4inet15EigrpIpv4Update12parsimUnpackEPN7omnetpp11cCommBufferE @5849
    _ZN4inet15EigrpIpv4Update4copyERKS0_ @5850
    _ZN4inet15EigrpIpv4UpdateC1ERKS0_ @5851
    _ZN4inet15EigrpIpv4UpdateC1Ev @5852
    _ZN4inet15EigrpIpv4UpdateC2ERKS0_ @5853
    _ZN4inet15EigrpIpv4UpdateC2Ev @5854
    _ZN4inet15EigrpIpv4UpdateD0Ev @5855
    _ZN4inet15EigrpIpv4UpdateD1Ev @5856
    _ZN4inet15EigrpIpv4UpdateD2Ev @5857
    _ZN4inet15EigrpIpv4UpdateaSERKS0_ @5858
    _ZN4inet15EigrpIpv6Update12parsimUnpackEPN7omnetpp11cCommBufferE @5859
    _ZN4inet15EigrpIpv6Update4copyERKS0_ @5860
    _ZN4inet15EigrpIpv6UpdateC1ERKS0_ @5861
    _ZN4inet15EigrpIpv6UpdateC1Ev @5862
    _ZN4inet15EigrpIpv6UpdateC2ERKS0_ @5863
    _ZN4inet15EigrpIpv6UpdateC2Ev @5864
    _ZN4inet15EigrpIpv6UpdateD0Ev @5865
    _ZN4inet15EigrpIpv6UpdateD1Ev @5866
    _ZN4inet15EigrpIpv6UpdateD2Ev @5867
    _ZN4inet15EigrpIpv6UpdateaSERKS0_ @5868
    _ZN4inet15EigrpRouteFlagsC1Ev @5869
    _ZN4inet15EigrpRouteFlagsC2Ev @5870
    _ZN4inet15EthernetCsmaMac10initializeEi @5871
    _ZN4inet15EthernetCsmaMac10printStateEv @5872
    _ZN4inet15EthernetCsmaMac10sendSignalEPNS_13physicallayer18EthernetSignalBaseERKN7omnetpp7SimTimeE @5873
    _ZN4inet15EthernetCsmaMac13sendJamSignalEv @5874
    _ZN4inet15EthernetCsmaMac14fillIFGInBurstEv @5875
    _ZN4inet15EthernetCsmaMac15beginSendFramesEv @5876
    _ZN4inet15EthernetCsmaMac15collisionSignalE @5877 DATA
    _ZN4inet15EthernetCsmaMac15initializeFlagsEv @5878
    _ZN4inet15EthernetCsmaMac15updateRxSignalsEPNS_13physicallayer18EthernetSignalBaseEN7omnetpp7SimTimeE @5879
    _ZN4inet15EthernetCsmaMac16canContinueBurstENS_5units5valueIxNS1_5units1bEEE @5880
    _ZN4inet15EthernetCsmaMac17handleEndRxPeriodEv @5881
    _ZN4inet15EthernetCsmaMac17handleEndTxPeriodEv @5882
    _ZN4inet15EthernetCsmaMac17handleSelfMessageEPN7omnetpp8cMessageE @5883
    _ZN4inet15EthernetCsmaMac17handleUpperPacketEPNS_6PacketE @5884
    _ZN4inet15EthernetCsmaMac18dropCurrentTxFrameERNS_17PacketDropDetailsE @5885
    _ZN4inet15EthernetCsmaMac18handleEndIFGPeriodEv @5886
    _ZN4inet15EthernetCsmaMac19handleMessageWhenUpEPN7omnetpp8cMessageE @5887
    _ZN4inet15EthernetCsmaMac20handleEndPausePeriodEv @5888
    _ZN4inet15EthernetCsmaMac20handleRetransmissionEv @5889
    _ZN4inet15EthernetCsmaMac20initializeStatisticsEv @5890
    _ZN4inet15EthernetCsmaMac20scheduleEndIFGPeriodEv @5891
    _ZN4inet15EthernetCsmaMac21processMsgFromNetworkEPNS_13physicallayer18EthernetSignalBaseE @5892
    _ZN4inet15EthernetCsmaMac21readChannelParametersEb @5893
    _ZN4inet15EthernetCsmaMac22frameReceptionCompleteEv @5894
    _ZN4inet15EthernetCsmaMac22handleEndBackoffPeriodEv @5895
    _ZN4inet15EthernetCsmaMac22handleEndJammingPeriodEv @5896
    _ZN4inet15EthernetCsmaMac22scheduleEndPausePeriodEi @5897
    _ZN4inet15EthernetCsmaMac22startFrameTransmissionEv @5898
    _ZN4inet15EthernetCsmaMac23calculateMinFrameLengthEv @5899
    _ZN4inet15EthernetCsmaMac23handleSignalFromNetworkEPNS_13physicallayer18EthernetSignalBaseE @5900
    _ZN4inet15EthernetCsmaMac24processConnectDisconnectEv @5901
    _ZN4inet15EthernetCsmaMac24processDetectedCollisionEv @5902
    _ZN4inet15EthernetCsmaMac24processReceivedDataFrameEPNS_6PacketE @5903
    _ZN4inet15EthernetCsmaMac26handleCanPullPacketChangedEPN7omnetpp5cGateE @5904
    _ZN4inet15EthernetCsmaMac27backoffSlotsGeneratedSignalE @5905 DATA
    _ZN4inet15EthernetCsmaMac27processReceivedControlFrameEPNS_6PacketE @5906
    _ZN4inet15EthernetCsmaMac6finishEv @5907
    _ZN4inet15EthernetCsmaMacD0Ev @5908
    _ZN4inet15EthernetCsmaMacD1Ev @5909
    _ZN4inet15EthernetCsmaMacD2Ev @5910
    _ZN4inet15EthernetMacBase10initializeEi @5911
    _ZN4inet15EthernetMacBase10txFinishedEv @5912
    _ZN4inet15EthernetMacBase11decapsulateEPNS_6PacketE @5913
    _ZN4inet15EthernetMacBase11encapsulateEPNS_6PacketE @5914
    _ZN4inet15EthernetMacBase11etherDescrsE @5915 DATA
    _ZN4inet15EthernetMacBase11getProviderEPN7omnetpp5cGateE @5916
    _ZN4inet15EthernetMacBase12rxPkOkSignalE @5917 DATA
    _ZN4inet15EthernetMacBase13receiveSignalEPN7omnetpp10cComponentEiPNS1_7cObjectES5_ @5918
    _ZN4inet15EthernetMacBase14nullEtherDescrE @5919 DATA
    _ZN4inet15EthernetMacBase15initializeFlagsEv @5920
    _ZN4inet15EthernetMacBase15printParametersEv @5921
    _ZN4inet15EthernetMacBase17dropFrameNotForUsEPNS_6PacketERKNS_12IntrusivePtrIKNS_17EthernetMacHeaderEEE @5922
    _ZN4inet15EthernetMacBase17refreshConnectionEv @5923
    _ZN4inet15EthernetMacBase18verifyCrcAndLengthEPNS_6PacketE @5924
    _ZN4inet15EthernetMacBase19handleStopOperationEPNS_18LifecycleOperationE @5925
    _ZN4inet15EthernetMacBase20changeReceptionStateENS0_15MacReceiveStateE @5926
    _ZN4inet15EthernetMacBase20cutEthernetSignalEndEPNS_13physicallayer18EthernetSignalBaseEN7omnetpp7SimTimeE @5927
    _ZN4inet15EthernetMacBase20handleCrashOperationEPNS_18LifecycleOperationE @5928
    _ZN4inet15EthernetMacBase20handleStartOperationEPNS_18LifecycleOperationE @5929
    _ZN4inet15EthernetMacBase20initializeStatisticsEv @5930
    _ZN4inet15EthernetMacBase20rxPausePkUnitsSignalE @5931 DATA
    _ZN4inet15EthernetMacBase20txPausePkUnitsSignalE @5932 DATA
    _ZN4inet15EthernetMacBase21readChannelParametersEb @5933
    _ZN4inet15EthernetMacBase23SPEED_OF_LIGHT_IN_CABLEE @5934 DATA
    _ZN4inet15EthernetMacBase23changeTransmissionStateENS0_16MacTransmitStateE @5935
    _ZN4inet15EthernetMacBase24processConnectDisconnectEv @5936
    _ZN4inet15EthernetMacBase25configureNetworkInterfaceEv @5937
    _ZN4inet15EthernetMacBase25handlePullPacketProcessedEPNS_6PacketEPN7omnetpp5cGateEb @5938
    _ZN4inet15EthernetMacBase27receptionStateChangedSignalE @5939 DATA
    _ZN4inet15EthernetMacBase30processAtHandleMessageFinishedEv @5940
    _ZN4inet15EthernetMacBase30transmissionStateChangedSignalE @5941 DATA
    _ZN4inet15EthernetMacBase6finishEv @5942
    _ZN4inet15EthernetMacBaseC2Ev @5943
    _ZN4inet15EthernetMacBaseD0Ev @5944
    _ZN4inet15EthernetMacBaseD1Ev @5945
    _ZN4inet15EthernetMacBaseD2Ev @5946
    _ZN4inet15EthernetPadding12parsimUnpackEPN7omnetpp11cCommBufferE @5947
    _ZN4inet15EthernetPadding4copyERKS0_ @5948
    _ZN4inet15EthernetPaddingC1ERKS0_ @5949
    _ZN4inet15EthernetPaddingC1Ev @5950
    _ZN4inet15EthernetPaddingC2ERKS0_ @5951
    _ZN4inet15EthernetPaddingC2Ev @5952
    _ZN4inet15EthernetPaddingD0Ev @5953
    _ZN4inet15EthernetPaddingD1Ev @5954
    _ZN4inet15EthernetPaddingD2Ev @5955
    _ZN4inet15EthernetPaddingaSERKS0_ @5956
    _ZN4inet15FcsInserterBase10initializeEi @5957
    _ZN4inet15HelloTimeoutMsg12parsimUnpackEPN7omnetpp11cCommBufferE @5958
    _ZN4inet15HelloTimeoutMsg4copyERKS0_ @5959
    _ZN4inet15HelloTimeoutMsg7setPeerERKNS_11Ipv4AddressE @5960
    _ZN4inet15HelloTimeoutMsgC1EPKcs @5961
    _ZN4inet15HelloTimeoutMsgC1ERKS0_ @5962
    _ZN4inet15HelloTimeoutMsgC2EPKcs @5963
    _ZN4inet15HelloTimeoutMsgC2ERKS0_ @5964
    _ZN4inet15HelloTimeoutMsgD0Ev @5965
    _ZN4inet15HelloTimeoutMsgD1Ev @5966
    _ZN4inet15HelloTimeoutMsgD2Ev @5967
    _ZN4inet15HelloTimeoutMsgaSERKS0_ @5968
    _ZN4inet15HopLimitTagBase11setHopLimitEi @5969
    _ZN4inet15HopLimitTagBase12parsimUnpackEPN7omnetpp11cCommBufferE @5970
    _ZN4inet15HopLimitTagBase4copyERKS0_ @5971
    _ZN4inet15HopLimitTagBaseC1ERKS0_ @5972
    _ZN4inet15HopLimitTagBaseC1Ev @5973
    _ZN4inet15HopLimitTagBaseC2ERKS0_ @5974
    _ZN4inet15HopLimitTagBaseC2Ev @5975
    _ZN4inet15HopLimitTagBaseD0Ev @5976
    _ZN4inet15HopLimitTagBaseD1Ev @5977
    _ZN4inet15HopLimitTagBaseD2Ev @5978
    _ZN4inet15HopLimitTagBaseaSERKS0_ @5979
    _ZN4inet15IMulticastRoute14sourceTypeNameENS0_10SourceTypeE @5980
    _ZN4inet15INITSTAGE_CLOCKE @5981 DATA
    _ZN4inet15INITSTAGE_LOCALE @5982 DATA
    _ZN4inet15INITSTAGE_POWERE @5983 DATA
    _ZN4inet15IcmpEchoRequest12parsimUnpackEPN7omnetpp11cCommBufferE @5984
    _ZN4inet15IcmpEchoRequest12setSeqNumberEi @5985
    _ZN4inet15IcmpEchoRequest13setIdentifierEi @5986
    _ZN4inet15IcmpEchoRequest4copyERKS0_ @5987
    _ZN4inet15IcmpEchoRequestC1ERKS0_ @5988
    _ZN4inet15IcmpEchoRequestC1Ev @5989
    _ZN4inet15IcmpEchoRequestC2ERKS0_ @5990
    _ZN4inet15IcmpEchoRequestC2Ev @5991
    _ZN4inet15IcmpEchoRequestD0Ev @5992
    _ZN4inet15IcmpEchoRequestD1Ev @5993
    _ZN4inet15IcmpEchoRequestD2Ev @5994
    _ZN4inet15IcmpEchoRequestaSERKS0_ @5995
    _ZN4inet15IdealOscillator10initializeEi @5996
    _ZN4inet15IdealOscillator6finishEv @5997
    _ZN4inet15Ieee8021qSocket14processMessageEPN7omnetpp8cMessageE @5998
    _ZN4inet15Ieee8021qSocket4bindEPKNS_8ProtocolEib @5999
    _ZN4inet15Ieee8021qSocket7sendOutEPN7omnetpp8cMessageE @6000
    _ZN4inet15Ipv4AddressType21ALL_RIP_ROUTERS_MCASTE @6001 DATA
    _ZN4inet15Ipv4AddressType8INSTANCEE @6002 DATA
    _ZN4inet15Ipv6AddressType21ALL_RIP_ROUTERS_MCASTE @6003 DATA
    _ZN4inet15Ipv6AddressType8INSTANCEE @6004 DATA
    _ZN4inet15LabelRequestObjC1Ev @6005
    _ZN4inet15LabelRequestObjC2Ev @6006
    _ZN4inet15LdpLabelMapping12parsimUnpackEPN7omnetpp11cCommBufferE @6007
    _ZN4inet15LdpLabelMapping4copyERKS0_ @6008
    _ZN4inet15LdpLabelMapping6setFecERKNS_6FecTlvE @6009
    _ZN4inet15LdpLabelMapping8setLabelEi @6010
    _ZN4inet15LdpLabelMappingC1ERKS0_ @6011
    _ZN4inet15LdpLabelMappingC1Ev @6012
    _ZN4inet15LdpLabelMappingC2ERKS0_ @6013
    _ZN4inet15LdpLabelMappingC2Ev @6014
    _ZN4inet15LdpLabelMappingD0Ev @6015
    _ZN4inet15LdpLabelMappingD1Ev @6016
    _ZN4inet15LdpLabelMappingD2Ev @6017
    _ZN4inet15LdpLabelMappingaSERKS0_ @6018
    _ZN4inet15LdpLabelRequest12parsimUnpackEPN7omnetpp11cCommBufferE @6019
    _ZN4inet15LdpLabelRequest4copyERKS0_ @6020
    _ZN4inet15LdpLabelRequest6setFecERKNS_6FecTlvE @6021
    _ZN4inet15LdpLabelRequestC1ERKS0_ @6022
    _ZN4inet15LdpLabelRequestC1Ev @6023
    _ZN4inet15LdpLabelRequestC2ERKS0_ @6024
    _ZN4inet15LdpLabelRequestC2Ev @6025
    _ZN4inet15LdpLabelRequestD0Ev @6026
    _ZN4inet15LdpLabelRequestD1Ev @6027
    _ZN4inet15LdpLabelRequestD2Ev @6028
    _ZN4inet15LdpLabelRequestaSERKS0_ @6029
    _ZN4inet15MacProtocolBase10clearQueueEv @6030
    _ZN4inet15MacProtocolBase10flushQueueERNS_17PacketDropDetailsE @6031
    _ZN4inet15MacProtocolBase10initializeEi @6032
    _ZN4inet15MacProtocolBase13dequeuePacketEv @6033
    _ZN4inet15MacProtocolBase13receiveSignalEPN7omnetpp10cComponentEiPNS1_7cObjectES5_ @6034
    _ZN4inet15MacProtocolBase17registerInterfaceEv @6035
    _ZN4inet15MacProtocolBase18dropCurrentTxFrameERNS_17PacketDropDetailsE @6036
    _ZN4inet15MacProtocolBase19handleStopOperationEPNS_18LifecycleOperationE @6037
    _ZN4inet15MacProtocolBase20deleteCurrentTxFrameEv @6038
    _ZN4inet15MacProtocolBase20handleCrashOperationEPNS_18LifecycleOperationE @6039
    _ZN4inet15MacProtocolBase20handleStartOperationEPNS_18LifecycleOperationE @6040
    _ZN4inet15MacProtocolBase21handleMessageWhenDownEPN7omnetpp8cMessageE @6041
    _ZN4inet15MacProtocolBase24parseMacAddressParameterEPKc @6042
    _ZN4inet15MacProtocolBase6sendUpEPN7omnetpp8cMessageE @6043
    _ZN4inet15MacProtocolBase8sendDownEPN7omnetpp8cMessageE @6044
    _ZN4inet15MacProtocolBaseC2Ev @6045
    _ZN4inet15MacProtocolBaseD0Ev @6046
    _ZN4inet15MacProtocolBaseD1Ev @6047
    _ZN4inet15MacProtocolBaseD2Ev @6048
    _ZN4inet15MatchableObject10splitIndexEPcRi @6049
    _ZN4inet15MatchableObject19findDescriptorFieldEPN7omnetpp16cClassDescriptorEPKcRiS6_ @6050
    _ZN4inet15MatchableObject9setObjectEPKN7omnetpp7cObjectE @6051
    _ZN4inet15MatchableObjectC1ENS0_9AttributeEPKN7omnetpp7cObjectE @6052
    _ZN4inet15MatchableObjectC2ENS0_9AttributeEPKN7omnetpp7cObjectE @6053
    _ZN4inet15ModuleIdAddress8tryParseEPKc @6054
    _ZN4inet15PacketDissector12ChunkBuilder10visitChunkERKNS_12IntrusivePtrIKNS_5ChunkEEEPKNS_8ProtocolE @6055
    _ZN4inet15PacketDissector14PduTreeBuilder10visitChunkERKNS_12IntrusivePtrIKNS_5ChunkEEEPKNS_8ProtocolE @6056
    _ZN4inet15PacketDissector14PduTreeBuilder13markIncorrectEv @6057
    _ZN4inet15PacketDissector14PduTreeBuilder19endProtocolDataUnitEPKNS_8ProtocolE @6058
    _ZN4inet15PacketDissector14PduTreeBuilder21startProtocolDataUnitEPKNS_8ProtocolE @6059
    _ZN4inet15PacketDissector16ProtocolDataUnitC1EiPKNS_8ProtocolE @6060
    _ZN4inet15PacketDissector16ProtocolDataUnitC2EiPKNS_8ProtocolE @6061
    _ZN4inet15PacketDissector25ProtocolDissectorCallback10visitChunkERKNS_12IntrusivePtrIKNS_5ChunkEEEPKNS_8ProtocolE @6062
    _ZN4inet15PacketDissector25ProtocolDissectorCallback13dissectPacketEPNS_6PacketEPKNS_8ProtocolE @6063
    _ZN4inet15PacketDissector25ProtocolDissectorCallback13markIncorrectEv @6064
    _ZN4inet15PacketDissector25ProtocolDissectorCallback19endProtocolDataUnitEPKNS_8ProtocolE @6065
    _ZN4inet15PacketDissector25ProtocolDissectorCallback21startProtocolDataUnitEPKNS_8ProtocolE @6066
    _ZN4inet15PacketDissector25ProtocolDissectorCallbackC1ERKS0_ @6067
    _ZN4inet15PacketDissector25ProtocolDissectorCallbackC2ERKS0_ @6068
    _ZN4inet15PacketDissectorC1ERKNS_25ProtocolDissectorRegistryERNS0_9ICallbackE @6069
    _ZN4inet15PacketDissectorC2ERKNS_25ProtocolDissectorRegistryERNS0_9ICallbackE @6070
    _ZN4inet15PacketMeterBase10initializeEi @6071
    _ZN4inet15PacketMeterBase13handleMessageEPN7omnetpp8cMessageE @6072
    _ZN4inet15PacketMeterBase25handlePushPacketProcessedEPNS_6PacketEPN7omnetpp5cGateEb @6073
    _ZN4inet15PacketMeterBase26handleCanPushPacketChangedEPN7omnetpp5cGateE @6074
    _ZN4inet15PaddingInserter10initializeEi @6075
    _ZN4inet15PaddingInserter13processPacketEPNS_6PacketE @6076
    _ZN4inet15PimRegisterStop12parsimUnpackEPN7omnetpp11cCommBufferE @6077
    _ZN4inet15PimRegisterStop15setGroupAddressERKNS_19EncodedGroupAddressE @6078
    _ZN4inet15PimRegisterStop16setSourceAddressERKNS_21EncodedUnicastAddressE @6079
    _ZN4inet15PimRegisterStop4copyERKS0_ @6080
    _ZN4inet15PimRegisterStopC1ERKS0_ @6081
    _ZN4inet15PimRegisterStopC1Ev @6082
    _ZN4inet15PimRegisterStopC2ERKS0_ @6083
    _ZN4inet15PimRegisterStopC2Ev @6084
    _ZN4inet15PimRegisterStopD0Ev @6085
    _ZN4inet15PimRegisterStopD1Ev @6086
    _ZN4inet15PimRegisterStopD2Ev @6087
    _ZN4inet15PimRegisterStopaSERKS0_ @6088
    _ZN4inet15PimStateRefresh10setMaskLenEs @6089
    _ZN4inet15PimStateRefresh11setIntervalEs @6090
    _ZN4inet15PimStateRefresh12parsimUnpackEPN7omnetpp11cCommBufferE @6091
    _ZN4inet15PimStateRefresh12setReserved2Es @6092
    _ZN4inet15PimStateRefresh15setGroupAddressERKNS_19EncodedGroupAddressE @6093
    _ZN4inet15PimStateRefresh16setSourceAddressERKNS_21EncodedUnicastAddressE @6094
    _ZN4inet15PimStateRefresh19setMetricPreferenceEi @6095
    _ZN4inet15PimStateRefresh20setOriginatorAddressERKNS_21EncodedUnicastAddressE @6096
    _ZN4inet15PimStateRefresh4copyERKS0_ @6097
    _ZN4inet15PimStateRefresh4setNEb @6098
    _ZN4inet15PimStateRefresh4setOEb @6099
    _ZN4inet15PimStateRefresh4setPEb @6100
    _ZN4inet15PimStateRefresh4setREb @6101
    _ZN4inet15PimStateRefresh6setTtlEs @6102
    _ZN4inet15PimStateRefresh9setMetricEi @6103
    _ZN4inet15PimStateRefreshC1ERKS0_ @6104
    _ZN4inet15PimStateRefreshC1Ev @6105
    _ZN4inet15PimStateRefreshC2ERKS0_ @6106
    _ZN4inet15PimStateRefreshC2Ev @6107
    _ZN4inet15PimStateRefreshD0Ev @6108
    _ZN4inet15PimStateRefreshD1Ev @6109
    _ZN4inet15PimStateRefreshD2Ev @6110
    _ZN4inet15PimStateRefreshaSERKS0_ @6111
    _ZN4inet15PolyhedronPointC1ERKNS_5CoordE @6112
    _ZN4inet15PolyhedronPointC1Ev @6113
    _ZN4inet15PolyhedronPointC2ERKNS_5CoordE @6114
    _ZN4inet15PolyhedronPointC2Ev @6115
    _ZN4inet15ProtocolChecker10dropPacketEPNS_6PacketE @6116
    _ZN4inet15ProtocolChecker10initializeEi @6117
    _ZN4inet15ProtocolChecker22handleRegisterProtocolERKNS_8ProtocolEPN7omnetpp5cGateENS_16ServicePrimitiveE @6118
    _ZN4inet15ProtocolTagBase11setProtocolEPKNS_8ProtocolE @6119
    _ZN4inet15ProtocolTagBase12parsimUnpackEPN7omnetpp11cCommBufferE @6120
    _ZN4inet15ProtocolTagBase4copyERKS0_ @6121
    _ZN4inet15ProtocolTagBaseC1ERKS0_ @6122
    _ZN4inet15ProtocolTagBaseC1Ev @6123
    _ZN4inet15ProtocolTagBaseC2ERKS0_ @6124
    _ZN4inet15ProtocolTagBaseC2Ev @6125
    _ZN4inet15ProtocolTagBaseD0Ev @6126
    _ZN4inet15ProtocolTagBaseD1Ev @6127
    _ZN4inet15ProtocolTagBaseD2Ev @6128
    _ZN4inet15ProtocolTagBaseaSERKS0_ @6129
    _ZN4inet15QueueingTimeTag12parsimUnpackEPN7omnetpp11cCommBufferE @6130
    _ZN4inet15QueueingTimeTag4copyERKS0_ @6131
    _ZN4inet15QueueingTimeTagC1ERKS0_ @6132
    _ZN4inet15QueueingTimeTagC1Ev @6133
    _ZN4inet15QueueingTimeTagC2ERKS0_ @6134
    _ZN4inet15QueueingTimeTagC2Ev @6135
    _ZN4inet15QueueingTimeTagD0Ev @6136
    _ZN4inet15QueueingTimeTagD1Ev @6137
    _ZN4inet15QueueingTimeTagD2Ev @6138
    _ZN4inet15QueueingTimeTagaSERKS0_ @6139
    _ZN4inet15ScenarioManager10disconnectEPN7omnetpp5cGateE @6140
    _ZN4inet15ScenarioManager10initializeEv @6141
    _ZN4inet15ScenarioManager13getConnectionEPKN7omnetpp11cXMLElementE @6142
    _ZN4inet15ScenarioManager13handleMessageEPN7omnetpp8cMessageE @6143
    _ZN4inet15ScenarioManager14processCommandEPKN7omnetpp11cXMLElementE @6144
    _ZN4inet15ScenarioManager15setChannelParamEPN7omnetpp5cGateEPKcS5_ @6145
    _ZN4inet15ScenarioManager16createConnectionERKSt6vectorIPN7omnetpp11cXMLElementESaIS4_EEPNS2_12cChannelTypeEPNS2_5cGateESC_ @6146
    _ZN4inet15ScenarioManager16processAtCommandEPKN7omnetpp11cXMLElementE @6147
    _ZN4inet15ScenarioManager17getRequiredModuleEPKN7omnetpp11cXMLElementEPKc @6148
    _ZN4inet15ScenarioManager17getRequiredModuleEPKc @6149
    _ZN4inet15ScenarioManager21processConnectCommandEPKN7omnetpp11cXMLElementE @6150
    _ZN4inet15ScenarioManager22processSetParamCommandEPKN7omnetpp11cXMLElementE @6151
    _ZN4inet15ScenarioManager23processLifecycleCommandEPKN7omnetpp11cXMLElementE @6152
    _ZN4inet15ScenarioManager24processDisconnectCommandEPKN7omnetpp11cXMLElementE @6153
    _ZN4inet15ScenarioManager26processCreateModuleCommandEPKN7omnetpp11cXMLElementE @6154
    _ZN4inet15ScenarioManager26processDeleteModuleCommandEPKN7omnetpp11cXMLElementE @6155
    _ZN4inet15ScenarioManager28processModuleSpecificCommandEPKN7omnetpp11cXMLElementE @6156
    _ZN4inet15ScenarioManager29processSetChannelParamCommandEPKN7omnetpp11cXMLElementE @6157
    _ZN4inet15ScenarioManager30findMandatorySingleGateTowardsEPN7omnetpp7cModuleES3_ @6158
    _ZN4inet15SctpPathInfoReq12parsimUnpackEPN7omnetpp11cCommBufferE @6159
    _ZN4inet15SctpPathInfoReq16setRemoteAddressERKNS_9L3AddressE @6160
    _ZN4inet15SctpPathInfoReq4copyERKS0_ @6161
    _ZN4inet15SctpPathInfoReqC1ERKS0_ @6162
    _ZN4inet15SctpPathInfoReqC1Ev @6163
    _ZN4inet15SctpPathInfoReqC2ERKS0_ @6164
    _ZN4inet15SctpPathInfoReqC2Ev @6165
    _ZN4inet15SctpPathInfoReqD0Ev @6166
    _ZN4inet15SctpPathInfoReqD1Ev @6167
    _ZN4inet15SctpPathInfoReqD2Ev @6168
    _ZN4inet15SctpPathInfoReqaSERKS0_ @6169
    _ZN4inet15SendToL3Address10initializeEi @6170
    _ZN4inet15SendToL3Address13processPacketEPNS_6PacketE @6171
    _ZN4inet15TeLinkStateInfoC1Ev @6172
    _ZN4inet15TeLinkStateInfoC2Ev @6173
    _ZN4inet15TractorMobility10initializeEi @6174
    _ZN4inet15TractorMobility17setTargetPositionEv @6175
    _ZN4inet15TractorMobility18setInitialPositionEv @6176
    _ZN4inet15TractorMobilityC1Ev @6177
    _ZN4inet15TractorMobilityC2Ev @6178
    _ZN4inet15TunCloseCommand12parsimUnpackEPN7omnetpp11cCommBufferE @6179
    _ZN4inet15TunCloseCommand4copyERKS0_ @6180
    _ZN4inet15TunCloseCommandC1ERKS0_ @6181
    _ZN4inet15TunCloseCommandC1Ev @6182
    _ZN4inet15TunCloseCommandC2ERKS0_ @6183
    _ZN4inet15TunCloseCommandC2Ev @6184
    _ZN4inet15TunCloseCommandD0Ev @6185
    _ZN4inet15TunCloseCommandD1Ev @6186
    _ZN4inet15TunCloseCommandD2Ev @6187
    _ZN4inet15TunCloseCommandaSERKS0_ @6188
    _ZN4inet15UdpCloseCommand12parsimUnpackEPN7omnetpp11cCommBufferE @6189
    _ZN4inet15UdpCloseCommand4copyERKS0_ @6190
    _ZN4inet15UdpCloseCommandC1ERKS0_ @6191
    _ZN4inet15UdpCloseCommandC1Ev @6192
    _ZN4inet15UdpCloseCommandC2ERKS0_ @6193
    _ZN4inet15UdpCloseCommandC2Ev @6194
    _ZN4inet15UdpCloseCommandD0Ev @6195
    _ZN4inet15UdpCloseCommandD1Ev @6196
    _ZN4inet15UdpCloseCommandD2Ev @6197
    _ZN4inet15UdpCloseCommandaSERKS0_ @6198
    _ZN4inet15UserPriorityInd12parsimUnpackEPN7omnetpp11cCommBufferE @6199
    _ZN4inet15UserPriorityInd4copyERKS0_ @6200
    _ZN4inet15UserPriorityIndC1ERKS0_ @6201
    _ZN4inet15UserPriorityIndC1Ev @6202
    _ZN4inet15UserPriorityIndC2ERKS0_ @6203
    _ZN4inet15UserPriorityIndC2Ev @6204
    _ZN4inet15UserPriorityIndD0Ev @6205
    _ZN4inet15UserPriorityIndD1Ev @6206
    _ZN4inet15UserPriorityIndD2Ev @6207
    _ZN4inet15UserPriorityIndaSERKS0_ @6208
    _ZN4inet15UserPriorityReq12parsimUnpackEPN7omnetpp11cCommBufferE @6209
    _ZN4inet15UserPriorityReq4copyERKS0_ @6210
    _ZN4inet15UserPriorityReqC1ERKS0_ @6211
    _ZN4inet15UserPriorityReqC1Ev @6212
    _ZN4inet15UserPriorityReqC2ERKS0_ @6213
    _ZN4inet15UserPriorityReqC2Ev @6214
    _ZN4inet15UserPriorityReqD0Ev @6215
    _ZN4inet15UserPriorityReqD1Ev @6216
    _ZN4inet15UserPriorityReqD2Ev @6217
    _ZN4inet15UserPriorityReqaSERKS0_ @6218
    _ZN4inet15VehicleMobility10initializeEi @6219
    _ZN4inet15VehicleMobility18setInitialPositionEv @6220
    _ZN4inet15VehicleMobility21readWaypointsFromFileEPKc @6221
    _ZN4inet15VehicleMobility4moveEv @6222
    _ZN4inet15VehicleMobility6orientEv @6223
    _ZN4inet15WiseRouteHeader10setIsFloodEi @6224
    _ZN4inet15WiseRouteHeader10setSrcAddrERKNS_9L3AddressE @6225
    _ZN4inet15WiseRouteHeader11setDestAddrERKNS_9L3AddressE @6226
    _ZN4inet15WiseRouteHeader12parsimUnpackEPN7omnetpp11cCommBufferE @6227
    _ZN4inet15WiseRouteHeader13setHeaderKindENS_16WiseRouteMsgTypeE @6228
    _ZN4inet15WiseRouteHeader13setProtocolIdENS_12IpProtocolIdE @6229
    _ZN4inet15WiseRouteHeader16setFinalDestAddrERKNS_9L3AddressE @6230
    _ZN4inet15WiseRouteHeader17setInitialSrcAddrERKNS_9L3AddressE @6231
    _ZN4inet15WiseRouteHeader21setPayloadLengthFieldENS_5units5valueIxNS1_8intscaleINS1_5units1bELi1ELi8EEEEE @6232
    _ZN4inet15WiseRouteHeader4copyERKS0_ @6233
    _ZN4inet15WiseRouteHeader9setNbHopsEi @6234
    _ZN4inet15WiseRouteHeader9setSeqNumEm @6235
    _ZN4inet15WiseRouteHeaderC1ERKS0_ @6236
    _ZN4inet15WiseRouteHeaderC1Ev @6237
    _ZN4inet15WiseRouteHeaderC2ERKS0_ @6238
    _ZN4inet15WiseRouteHeaderC2Ev @6239
    _ZN4inet15WiseRouteHeaderD0Ev @6240
    _ZN4inet15WiseRouteHeaderD1Ev @6241
    _ZN4inet15WiseRouteHeaderD2Ev @6242
    _ZN4inet15WiseRouteHeaderaSERKS0_ @6243
    _ZN4inet15registerServiceERKNS_8ProtocolEPN7omnetpp5cGateENS_16ServicePrimitiveE @6244
    _ZN4inet15registerServiceERKNS_8ProtocolEPN7omnetpp5cGateES5_S5_S5_ @6245
    _ZN4inet15startPacketFlowEPN7omnetpp7cModuleEPNS_6PacketEPKc @6246
    _ZN4inet16AttachedMobility10initializeEi @6247
    _ZN4inet16AttachedMobility13receiveSignalEPN7omnetpp10cComponentEiPNS1_7cObjectES5_ @6248
    _ZN4inet16AttachedMobility18getCurrentPositionEv @6249
    _ZN4inet16AttachedMobility18getCurrentVelocityEv @6250
    _ZN4inet16AttachedMobility22getCurrentAccelerationEv @6251
    _ZN4inet16AttachedMobility25getCurrentAngularPositionEv @6252
    _ZN4inet16AttachedMobility25getCurrentAngularVelocityEv @6253
    _ZN4inet16AttachedMobility29getCurrentAngularAccelerationEv @6254
    _ZN4inet16BMacControlFrame12parsimUnpackEPN7omnetpp11cCommBufferE @6255
    _ZN4inet16BMacControlFrame4copyERKS0_ @6256
    _ZN4inet16BMacControlFrameC1ERKS0_ @6257
    _ZN4inet16BMacControlFrameC1Ev @6258
    _ZN4inet16BMacControlFrameC2ERKS0_ @6259
    _ZN4inet16BMacControlFrameC2Ev @6260
    _ZN4inet16BMacControlFrameD0Ev @6261
    _ZN4inet16BMacControlFrameD1Ev @6262
    _ZN4inet16BMacControlFrameD2Ev @6263
    _ZN4inet16BMacControlFrameaSERKS0_ @6264
    _ZN4inet16BoxedLabelFigure10setOpacityEd @6265
    _ZN4inet16BoxedLabelFigure10setTooltipEPKc @6266
    _ZN4inet16BoxedLabelFigure13setLabelColorEN7omnetpp7cFigure5ColorE @6267
    _ZN4inet16BoxedLabelFigure18setBackgroundColorEN7omnetpp7cFigure5ColorE @6268
    _ZN4inet16BoxedLabelFigure19setAssociatedObjectEPN7omnetpp7cObjectE @6269
    _ZN4inet16BoxedLabelFigure7setFontEN7omnetpp7cFigure4FontE @6270
    _ZN4inet16BoxedLabelFigure7setTagsEPKc @6271
    _ZN4inet16BoxedLabelFigure7setTextEPKc @6272
    _ZN4inet16BoxedLabelFigure8setInsetEd @6273
    _ZN4inet16BoxedLabelFigureC1EPKc @6274
    _ZN4inet16BoxedLabelFigureC2EPKc @6275
    _ZN4inet16CanvasProjection17canvasProjectionsE @6276 DATA
    _ZN4inet16CanvasProjection19getCanvasProjectionEPKN7omnetpp7cCanvasE @6277
    _ZN4inet16CanvasProjection21dropCanvasProjectionsEv @6278
    _ZN4inet16CanvasProjectionC1ENS_14RotationMatrixEN7omnetpp7cFigure5PointE @6279
    _ZN4inet16CanvasProjectionC2ENS_14RotationMatrixEN7omnetpp7cFigure5PointE @6280
    _ZN4inet16CanvasProjectionD0Ev @6281
    _ZN4inet16CanvasProjectionD1Ev @6282
    _ZN4inet16CanvasProjectionD2Ev @6283
    _ZN4inet16CloudDelayerBase10initializeEi @6284
    _ZN4inet16CloudDelayerBase13handleMessageEPN7omnetpp8cMessageE @6285
    _ZN4inet16CloudDelayerBase19datagramForwardHookEPNS_6PacketE @6286
    _ZN4inet16CloudDelayerBase19datagramLocalInHookEPNS_6PacketE @6287
    _ZN4inet16CloudDelayerBase20datagramLocalOutHookEPNS_6PacketE @6288
    _ZN4inet16CloudDelayerBase21calculateDropAndDelayEPKN7omnetpp8cMessageEiiRbRNS1_7SimTimeE @6289
    _ZN4inet16CloudDelayerBase22datagramPreRoutingHookEPNS_6PacketE @6290
    _ZN4inet16CloudDelayerBase23datagramPostRoutingHookEPNS_6PacketE @6291
    _ZN4inet16CloudDelayerBase6finishEv @6292
    _ZN4inet16CloudDelayerBaseC1Ev @6293
    _ZN4inet16CloudDelayerBaseC2Ev @6294
    _ZN4inet16CloudDelayerBaseD0Ev @6295
    _ZN4inet16CloudDelayerBaseD1Ev @6296
    _ZN4inet16CloudDelayerBaseD2Ev @6297
    _ZN4inet16CrcHeaderChecker10initializeEi @6298
    _ZN4inet16CrcHeaderChecker13processPacketEPNS_6PacketE @6299
    _ZN4inet16CsmaCaMacTrailer10setFcsModeENS_7FcsModeE @6300
    _ZN4inet16CsmaCaMacTrailer12parsimUnpackEPN7omnetpp11cCommBufferE @6301
    _ZN4inet16CsmaCaMacTrailer4copyERKS0_ @6302
    _ZN4inet16CsmaCaMacTrailer6setFcsEj @6303
    _ZN4inet16CsmaCaMacTrailerC1ERKS0_ @6304
    _ZN4inet16CsmaCaMacTrailerC1Ev @6305
    _ZN4inet16CsmaCaMacTrailerC2ERKS0_ @6306
    _ZN4inet16CsmaCaMacTrailerC2Ev @6307
    _ZN4inet16CsmaCaMacTrailerD0Ev @6308
    _ZN4inet16CsmaCaMacTrailerD1Ev @6309
    _ZN4inet16CsmaCaMacTrailerD2Ev @6310
    _ZN4inet16CsmaCaMacTraileraSERKS0_ @6311
    _ZN4inet16DeaggregatorBase10initializeEi @6312
    _ZN4inet16DeaggregatorBase10pushPacketEPNS_6PacketEPN7omnetpp5cGateE @6313
    _ZN4inet16DefragmenterBase10initializeEi @6314
    _ZN4inet16DefragmenterBase16defragmentPacketEPNS_6PacketEbbb @6315
    _ZN4inet16DefragmenterBase18endDefragmentationEPNS_6PacketE @6316
    _ZN4inet16DefragmenterBase20startDefragmentationEPNS_6PacketE @6317
    _ZN4inet16DefragmenterBase23continueDefragmentationEPNS_6PacketE @6318
    _ZN4inet16DefragmenterBaseD0Ev @6319
    _ZN4inet16DefragmenterBaseD1Ev @6320
    _ZN4inet16DefragmenterBaseD2Ev @6321
    _ZN4inet16DrPriorityOption11setPriorityEj @6322
    _ZN4inet16DrPriorityOption12parsimUnpackEPN7omnetpp11cCommBufferE @6323
    _ZN4inet16DrPriorityOption4copyERKS0_ @6324
    _ZN4inet16DrPriorityOptionC1ERKS0_ @6325
    _ZN4inet16DrPriorityOptionC1Ev @6326
    _ZN4inet16DrPriorityOptionC2ERKS0_ @6327
    _ZN4inet16DrPriorityOptionC2Ev @6328
    _ZN4inet16DrPriorityOptionD0Ev @6329
    _ZN4inet16DrPriorityOptionD1Ev @6330
    _ZN4inet16DrPriorityOptionD2Ev @6331
    _ZN4inet16DrPriorityOptionaSERKS0_ @6332
    _ZN4inet16DuplicateRemoval10initializeEi @6333
    _ZN4inet16DuplicateRemoval10pushPacketEPNS_6PacketEPN7omnetpp5cGateE @6334
    _ZN4inet16EigrpIpv4Message12parsimUnpackEPN7omnetpp11cCommBufferE @6335
    _ZN4inet16EigrpIpv4Message14setInterRoutesEyRKNS_19EigrpMpIpv4InternalE @6336
    _ZN4inet16EigrpIpv4Message16eraseInterRoutesEy @6337
    _ZN4inet16EigrpIpv4Message17appendInterRoutesERKNS_19EigrpMpIpv4InternalE @6338
    _ZN4inet16EigrpIpv4Message17insertInterRoutesEyRKNS_19EigrpMpIpv4InternalE @6339
    _ZN4inet16EigrpIpv4Message23setInterRoutesArraySizeEy @6340
    _ZN4inet16EigrpIpv4Message4copyERKS0_ @6341
    _ZN4inet16EigrpIpv4MessageC1ERKS0_ @6342
    _ZN4inet16EigrpIpv4MessageC1Ev @6343
    _ZN4inet16EigrpIpv4MessageC2ERKS0_ @6344
    _ZN4inet16EigrpIpv4MessageC2Ev @6345
    _ZN4inet16EigrpIpv4MessageD0Ev @6346
    _ZN4inet16EigrpIpv4MessageD1Ev @6347
    _ZN4inet16EigrpIpv4MessageD2Ev @6348
    _ZN4inet16EigrpIpv4MessageaSERKS0_ @6349
    _ZN4inet16EigrpIpv6Message12parsimUnpackEPN7omnetpp11cCommBufferE @6350
    _ZN4inet16EigrpIpv6Message14setInterRoutesEyRKNS_19EigrpMpIpv6InternalE @6351
    _ZN4inet16EigrpIpv6Message16eraseInterRoutesEy @6352
    _ZN4inet16EigrpIpv6Message17appendInterRoutesERKNS_19EigrpMpIpv6InternalE @6353
    _ZN4inet16EigrpIpv6Message17insertInterRoutesEyRKNS_19EigrpMpIpv6InternalE @6354
    _ZN4inet16EigrpIpv6Message23setInterRoutesArraySizeEy @6355
    _ZN4inet16EigrpIpv6Message4copyERKS0_ @6356
    _ZN4inet16EigrpIpv6MessageC1ERKS0_ @6357
    _ZN4inet16EigrpIpv6MessageC1Ev @6358
    _ZN4inet16EigrpIpv6MessageC2ERKS0_ @6359
    _ZN4inet16EigrpIpv6MessageC2Ev @6360
    _ZN4inet16EigrpIpv6MessageD0Ev @6361
    _ZN4inet16EigrpIpv6MessageD1Ev @6362
    _ZN4inet16EigrpIpv6MessageD2Ev @6363
    _ZN4inet16EigrpIpv6MessageaSERKS0_ @6364
    _ZN4inet16EigrpMsgReq_Base11eraseRoutesEy @6365
    _ZN4inet16EigrpMsgReq_Base11setNumOfAckEi @6366
    _ZN4inet16EigrpMsgReq_Base12appendRoutesERKNS_13EigrpMsgRouteE @6367
    _ZN4inet16EigrpMsgReq_Base12insertRoutesEyRKNS_13EigrpMsgRouteE @6368
    _ZN4inet16EigrpMsgReq_Base12parsimUnpackEPN7omnetpp11cCommBufferE @6369
    _ZN4inet16EigrpMsgReq_Base12setAckNumberEj @6370
    _ZN4inet16EigrpMsgReq_Base12setSeqNumberEj @6371
    _ZN4inet16EigrpMsgReq_Base13setGoodbyeMsgEb @6372
    _ZN4inet16EigrpMsgReq_Base15setDestNeighborEi @6373
    _ZN4inet16EigrpMsgReq_Base16setDestInterfaceEi @6374
    _ZN4inet16EigrpMsgReq_Base18setRoutesArraySizeEy @6375
    _ZN4inet16EigrpMsgReq_Base4copyERKS0_ @6376
    _ZN4inet16EigrpMsgReq_Base5setCrEb @6377
    _ZN4inet16EigrpMsgReq_Base5setRsEb @6378
    _ZN4inet16EigrpMsgReq_Base6setEotEb @6379
    _ZN4inet16EigrpMsgReq_Base7setInitEb @6380
    _ZN4inet16EigrpMsgReq_Base9setOpcodeEa @6381
    _ZN4inet16EigrpMsgReq_Base9setRoutesEyRKNS_13EigrpMsgRouteE @6382
    _ZN4inet16EigrpMsgReq_BaseC1EPKcs @6383
    _ZN4inet16EigrpMsgReq_BaseC1ERKS0_ @6384
    _ZN4inet16EigrpMsgReq_BaseC2EPKcs @6385
    _ZN4inet16EigrpMsgReq_BaseC2ERKS0_ @6386
    _ZN4inet16EigrpMsgReq_BaseD0Ev @6387
    _ZN4inet16EigrpMsgReq_BaseD1Ev @6388
    _ZN4inet16EigrpMsgReq_BaseD2Ev @6389
    _ZN4inet16EigrpMsgReq_BaseaSERKS0_ @6390
    _ZN4inet16EigrpRouteSourceINS_11Ipv4AddressEE10setIfaceIdEi @6391
    _ZN4inet16EigrpRouteSourceINS_11Ipv4AddressEE10setNextHopERS1_ @6392
    _ZN4inet16EigrpRouteSourceINS_11Ipv4AddressEE10setRouteIdEi @6393
    _ZN4inet16EigrpRouteSourceINS_11Ipv4AddressEE10setSummaryEb @6394
    _ZN4inet16EigrpRouteSourceINS_11Ipv4AddressEE11setInternalEb @6395
    _ZN4inet16EigrpRouteSourceINS_11Ipv4AddressEE11setRdParamsERKNS_18EigrpWideMetricParE @6396
    _ZN4inet16EigrpRouteSourceINS_11Ipv4AddressEE11setSourceIdEi @6397
    _ZN4inet16EigrpRouteSourceINS_11Ipv4AddressEE12setNexthopIdEi @6398
    _ZN4inet16EigrpRouteSourceINS_11Ipv4AddressEE12setRouteInfoEPNS_10EigrpRouteIS1_EE @6399
    _ZN4inet16EigrpRouteSourceINS_11Ipv4AddressEE12setSuccessorEb @6400
    _ZN4inet16EigrpRouteSourceINS_11Ipv4AddressEE13setOriginatorERKS1_ @6401
    _ZN4inet16EigrpRouteSourceINS_11Ipv4AddressEE15setMetricParamsERNS_18EigrpWideMetricParE @6402
    _ZN4inet16EigrpRouteSourceINS_11Ipv4AddressEE16setDelayedRemoveEi @6403
    _ZN4inet16EigrpRouteSourceINS_11Ipv4AddressEE16setRedistributedEb @6404
    _ZN4inet16EigrpRouteSourceINS_11Ipv4AddressEE20setUnreachableMetricEv @6405
    _ZN4inet16EigrpRouteSourceINS_11Ipv4AddressEE5setRdEy @6406
    _ZN4inet16EigrpRouteSourceINS_11Ipv4AddressEE8setValidEb @6407
    _ZN4inet16EigrpRouteSourceINS_11Ipv4AddressEE9setMetricEy @6408
    _ZN4inet16EigrpRouteSourceINS_11Ipv4AddressEEC1ERKS2_ @6409
    _ZN4inet16EigrpRouteSourceINS_11Ipv4AddressEEC1EiPKciiPNS_10EigrpRouteIS1_EE @6410
    _ZN4inet16EigrpRouteSourceINS_11Ipv4AddressEEC2ERKS2_ @6411
    _ZN4inet16EigrpRouteSourceINS_11Ipv4AddressEEC2EiPKciiPNS_10EigrpRouteIS1_EE @6412
    _ZN4inet16EigrpRouteSourceINS_11Ipv4AddressEED0Ev @6413
    _ZN4inet16EigrpRouteSourceINS_11Ipv4AddressEED1Ev @6414
    _ZN4inet16EigrpRouteSourceINS_11Ipv4AddressEED2Ev @6415
    _ZN4inet16EigrpRouteSourceINS_11Ipv4AddressEEaSERKS2_ @6416
    _ZN4inet16EigrpRouteSourceINS_11Ipv6AddressEEC1EiPKciiPNS_10EigrpRouteIS1_EE @6417
    _ZN4inet16EigrpRouteSourceINS_11Ipv6AddressEEC2EiPKciiPNS_10EigrpRouteIS1_EE @6418
    _ZN4inet16EigrpRouteSourceINS_11Ipv6AddressEED0Ev @6419
    _ZN4inet16EigrpRouteSourceINS_11Ipv6AddressEED1Ev @6420
    _ZN4inet16EigrpRouteSourceINS_11Ipv6AddressEED2Ev @6421
    _ZN4inet16EthernetMacLayer10initializeEi @6422
    _ZN4inet16EthernetMacLayer13receiveSignalEPN7omnetpp10cComponentEiPNS1_7cObjectES5_ @6423
    _ZN4inet16EthernetSocketIo10initializeEi @6424
    _ZN4inet16EthernetSocketIo12socketClosedEPNS_14EthernetSocketE @6425
    _ZN4inet16EthernetSocketIo16setSocketOptionsEv @6426
    _ZN4inet16EthernetSocketIo17socketDataArrivedEPNS_14EthernetSocketEPNS_6PacketE @6427
    _ZN4inet16EthernetSocketIo18socketErrorArrivedEPNS_14EthernetSocketEPNS_10IndicationE @6428
    _ZN4inet16EthernetSocketIo19handleMessageWhenUpEPN7omnetpp8cMessageE @6429
    _ZN4inet16EthernetSocketIo19handleStopOperationEPNS_18LifecycleOperationE @6430
    _ZN4inet16EthernetSocketIo20handleCrashOperationEPNS_18LifecycleOperationE @6431
    _ZN4inet16EthernetSocketIo20handleStartOperationEPNS_18LifecycleOperationE @6432
    _ZN4inet16EthernetSocketIo6finishEv @6433
    _ZN4inet16FcsHeaderChecker10initializeEi @6434
    _ZN4inet16FcsHeaderChecker13processPacketEPNS_6PacketE @6435
    _ZN4inet16FlowDescriptor_tC1Ev @6436
    _ZN4inet16FlowDescriptor_tC2Ev @6437
    _ZN4inet16FragmentationReq12parsimUnpackEPN7omnetpp11cCommBufferE @6438
    _ZN4inet16FragmentationReq15setDontFragmentEb @6439
    _ZN4inet16FragmentationReq4copyERKS0_ @6440
    _ZN4inet16FragmentationReqC1ERKS0_ @6441
    _ZN4inet16FragmentationReqC1Ev @6442
    _ZN4inet16FragmentationReqC2ERKS0_ @6443
    _ZN4inet16FragmentationReqC2Ev @6444
    _ZN4inet16FragmentationReqD0Ev @6445
    _ZN4inet16FragmentationReqD1Ev @6446
    _ZN4inet16FragmentationReqD2Ev @6447
    _ZN4inet16FragmentationReqaSERKS0_ @6448
    _ZN4inet16Ieee802EpdHeader12parsimUnpackEPN7omnetpp11cCommBufferE @6449
    _ZN4inet16Ieee802EpdHeader12setEtherTypeEt @6450
    _ZN4inet16Ieee802EpdHeader4copyERKS0_ @6451
    _ZN4inet16Ieee802EpdHeaderC1ERKS0_ @6452
    _ZN4inet16Ieee802EpdHeaderC1Ev @6453
    _ZN4inet16Ieee802EpdHeaderC2ERKS0_ @6454
    _ZN4inet16Ieee802EpdHeaderC2Ev @6455
    _ZN4inet16Ieee802EpdHeaderD0Ev @6456
    _ZN4inet16Ieee802EpdHeaderD1Ev @6457
    _ZN4inet16Ieee802EpdHeaderD2Ev @6458
    _ZN4inet16Ieee802EpdHeaderaSERKS0_ @6459
    _ZN4inet16InterfaceMatcher20findMatchingSelectorEPKNS_16NetworkInterfaceE @6460
    _ZN4inet16InterfaceMatcherC1ERKSt6vectorIPN7omnetpp11cXMLElementESaIS4_EE @6461
    _ZN4inet16InterfaceMatcherC2ERKSt6vectorIPN7omnetpp11cXMLElementESaIS4_EE @6462
    _ZN4inet16InterfaceMatcherD1Ev @6463
    _ZN4inet16InterfaceMatcherD2Ev @6464
    _ZN4inet16InterfaceTagBase12parsimUnpackEPN7omnetpp11cCommBufferE @6465
    _ZN4inet16InterfaceTagBase14setInterfaceIdEi @6466
    _ZN4inet16InterfaceTagBase4copyERKS0_ @6467
    _ZN4inet16InterfaceTagBaseC1ERKS0_ @6468
    _ZN4inet16InterfaceTagBaseC1Ev @6469
    _ZN4inet16InterfaceTagBaseC2ERKS0_ @6470
    _ZN4inet16InterfaceTagBaseC2Ev @6471
    _ZN4inet16InterfaceTagBaseD0Ev @6472
    _ZN4inet16InterfaceTagBaseD1Ev @6473
    _ZN4inet16InterfaceTagBaseD2Ev @6474
    _ZN4inet16InterfaceTagBaseaSERKS0_ @6475
    _ZN4inet16Ipv4RoutingTable10initializeEi @6476
    _ZN4inet16Ipv4RoutingTable11deleteRouteEPNS_9Ipv4RouteE @6477
    _ZN4inet16Ipv4RoutingTable11removeRouteEPNS_9Ipv4RouteE @6478
    _ZN4inet16Ipv4RoutingTable11setRouterIdENS_11Ipv4AddressE @6479
    _ZN4inet16Ipv4RoutingTable12routeChangedEPNS_9Ipv4RouteEi @6480
    _ZN4inet16Ipv4RoutingTable13getHostModuleEv @6481
    _ZN4inet16Ipv4RoutingTable13handleMessageEPN7omnetpp8cMessageE @6482
    _ZN4inet16Ipv4RoutingTable13receiveSignalEPN7omnetpp10cComponentEiPNS1_7cObjectES5_ @6483
    _ZN4inet16Ipv4RoutingTable14createNewRouteEv @6484
    _ZN4inet16Ipv4RoutingTable15invalidateCacheEv @6485
    _ZN4inet16Ipv4RoutingTable16internalAddRouteEPNS_9Ipv4RouteE @6486
    _ZN4inet16Ipv4RoutingTable17addMulticastRouteEPNS_18Ipv4MulticastRouteE @6487
    _ZN4inet16Ipv4RoutingTable17configureRouterIdEv @6488
    _ZN4inet16Ipv4RoutingTable19internalRemoveRouteEPNS_9Ipv4RouteE @6489
    _ZN4inet16Ipv4RoutingTable19updateNetmaskRoutesEv @6490
    _ZN4inet16Ipv4RoutingTable20deleteMulticastRouteEPNS_18Ipv4MulticastRouteE @6491
    _ZN4inet16Ipv4RoutingTable20handleOperationStageEPNS_18LifecycleOperationEPNS_13IDoneCallbackE @6492
    _ZN4inet16Ipv4RoutingTable20removeMulticastRouteEPNS_18Ipv4MulticastRouteE @6493
    _ZN4inet16Ipv4RoutingTable21deleteInterfaceRoutesEPKNS_16NetworkInterfaceE @6494
    _ZN4inet16Ipv4RoutingTable21multicastRouteChangedEPNS_18Ipv4MulticastRouteEi @6495
    _ZN4inet16Ipv4RoutingTable22multicastRouteLessThanEPKNS_18Ipv4MulticastRouteES3_ @6496
    _ZN4inet16Ipv4RoutingTable25internalAddMulticastRouteEPNS_18Ipv4MulticastRouteE @6497
    _ZN4inet16Ipv4RoutingTable28internalRemoveMulticastRouteEPNS_18Ipv4MulticastRouteE @6498
    _ZN4inet16Ipv4RoutingTable5purgeEv @6499
    _ZN4inet16Ipv4RoutingTable8addRouteEPNS_9Ipv4RouteE @6500
    _ZN4inet16Ipv4RoutingTableD0Ev @6501
    _ZN4inet16Ipv4RoutingTableD1Ev @6502
    _ZN4inet16Ipv4RoutingTableD2Ev @6503
    _ZN4inet16Ipv6ExtHeaderInd12parsimUnpackEPN7omnetpp11cCommBufferE @6504
    _ZN4inet16Ipv6ExtHeaderInd4copyERKS0_ @6505
    _ZN4inet16Ipv6ExtHeaderIndC1ERKS0_ @6506
    _ZN4inet16Ipv6ExtHeaderIndC1Ev @6507
    _ZN4inet16Ipv6ExtHeaderIndC2ERKS0_ @6508
    _ZN4inet16Ipv6ExtHeaderIndC2Ev @6509
    _ZN4inet16Ipv6ExtHeaderIndD0Ev @6510
    _ZN4inet16Ipv6ExtHeaderIndD1Ev @6511
    _ZN4inet16Ipv6ExtHeaderIndD2Ev @6512
    _ZN4inet16Ipv6ExtHeaderIndaSERKS0_ @6513
    _ZN4inet16Ipv6ExtHeaderReq12parsimUnpackEPN7omnetpp11cCommBufferE @6514
    _ZN4inet16Ipv6ExtHeaderReq4copyERKS0_ @6515
    _ZN4inet16Ipv6ExtHeaderReqC1ERKS0_ @6516
    _ZN4inet16Ipv6ExtHeaderReqC1Ev @6517
    _ZN4inet16Ipv6ExtHeaderReqC2ERKS0_ @6518
    _ZN4inet16Ipv6ExtHeaderReqC2Ev @6519
    _ZN4inet16Ipv6ExtHeaderReqD0Ev @6520
    _ZN4inet16Ipv6ExtHeaderReqD1Ev @6521
    _ZN4inet16Ipv6ExtHeaderReqD2Ev @6522
    _ZN4inet16Ipv6ExtHeaderReqaSERKS0_ @6523
    _ZN4inet16Ipv6RoutingTable10initializeEi @6524
    _ZN4inet16Ipv6RoutingTable11deleteRouteEPNS_9Ipv6RouteE @6525
    _ZN4inet16Ipv6RoutingTable11removeRouteEPNS_9Ipv6RouteE @6526
    _ZN4inet16Ipv6RoutingTable12routeChangedEPNS_9Ipv6RouteEi @6527
    _ZN4inet16Ipv6RoutingTable13handleMessageEPN7omnetpp8cMessageE @6528
    _ZN4inet16Ipv6RoutingTable13isHomeAddressERKNS_11Ipv6AddressE @6529
    _ZN4inet16Ipv6RoutingTable13receiveSignalEPN7omnetpp10cComponentEiPNS1_7cObjectES5_ @6530
    _ZN4inet16Ipv6RoutingTable14addStaticRouteERKNS_11Ipv6AddressEijS3_i @6531
    _ZN4inet16Ipv6RoutingTable14createNewRouteENS_11Ipv6AddressEiNS_6IRoute10SourceTypeE @6532
    _ZN4inet16Ipv6RoutingTable14deletePrefixesEi @6533
    _ZN4inet16Ipv6RoutingTable14getHomeAddressEv @6534
    _ZN4inet16Ipv6RoutingTable14purgeDestCacheEv @6535
    _ZN4inet16Ipv6RoutingTable15addDefaultRouteERKNS_11Ipv6AddressEjN7omnetpp7SimTimeE @6536
    _ZN4inet16Ipv6RoutingTable15deleteAllRoutesEv @6537
    _ZN4inet16Ipv6RoutingTable15isOnLinkAddressERKNS_11Ipv6AddressE @6538
    _ZN4inet16Ipv6RoutingTable15lookupDestCacheERKNS_11Ipv6AddressERi @6539
    _ZN4inet16Ipv6RoutingTable15updateDestCacheERKNS_11Ipv6AddressES3_iN7omnetpp7SimTimeE @6540
    _ZN4inet16Ipv6RoutingTable16internalAddRouteEPNS_9Ipv6RouteE @6541
    _ZN4inet16Ipv6RoutingTable18deleteOnLinkPrefixERKNS_11Ipv6AddressEi @6542
    _ZN4inet16Ipv6RoutingTable18parseXmlConfigFileEv @6543
    _ZN4inet16Ipv6RoutingTable19deleteDefaultRoutesEi @6544
    _ZN4inet16Ipv6RoutingTable19internalDeleteRouteEN9__gnu_cxx17__normal_iteratorIPPNS_9Ipv6RouteESt6vectorIS4_SaIS4_EEEE @6545
    _ZN4inet16Ipv6RoutingTable19internalRemoveRouteEPNS_9Ipv6RouteE @6546
    _ZN4inet16Ipv6RoutingTable20doLongestPrefixMatchERKNS_11Ipv6AddressE @6547
    _ZN4inet16Ipv6RoutingTable20handleOperationStageEPNS_18LifecycleOperationEPNS_13IDoneCallbackE @6548
    _ZN4inet16Ipv6RoutingTable21deleteInterfaceRoutesEPKNS_16NetworkInterfaceE @6549
    _ZN4inet16Ipv6RoutingTable22configureTunnelFromXmlEPN7omnetpp11cXMLElementE @6550
    _ZN4inet16Ipv6RoutingTable23addOrUpdateOnLinkPrefixERKNS_11Ipv6AddressEiiN7omnetpp7SimTimeE @6551
    _ZN4inet16Ipv6RoutingTable23addOrUpdateOwnAdvPrefixERKNS_11Ipv6AddressEiiN7omnetpp7SimTimeE @6552
    _ZN4inet16Ipv6RoutingTable23addRoutingProtocolRouteEPNS_9Ipv6RouteE @6553
    _ZN4inet16Ipv6RoutingTable25configureInterfaceForIpv6EPNS_16NetworkInterfaceE @6554
    _ZN4inet16Ipv6RoutingTable25configureInterfaceFromXmlEPNS_16NetworkInterfaceEPN7omnetpp11cXMLElementE @6555
    _ZN4inet16Ipv6RoutingTable27assignRequiredNodeAddressesEPNS_16NetworkInterfaceE @6556
    _ZN4inet16Ipv6RoutingTable28purgeDestCacheForInterfaceIdEi @6557
    _ZN4inet16Ipv6RoutingTable32purgeDestCacheEntriesToNeighbourERKNS_11Ipv6AddressEi @6558
    _ZN4inet16Ipv6RoutingTable8addRouteEPNS_9Ipv6RouteE @6559
    _ZN4inet16Ipv6RoutingTableC1Ev @6560
    _ZN4inet16Ipv6RoutingTableC2Ev @6561
    _ZN4inet16Ipv6RoutingTableD0Ev @6562
    _ZN4inet16Ipv6RoutingTableD1Ev @6563
    _ZN4inet16Ipv6RoutingTableD2Ev @6564
    _ZN4inet16L3AddressTagBase12parsimUnpackEPN7omnetpp11cCommBufferE @6565
    _ZN4inet16L3AddressTagBase13setSrcAddressERKNS_9L3AddressE @6566
    _ZN4inet16L3AddressTagBase14setDestAddressERKNS_9L3AddressE @6567
    _ZN4inet16L3AddressTagBase4copyERKS0_ @6568
    _ZN4inet16L3AddressTagBaseC1ERKS0_ @6569
    _ZN4inet16L3AddressTagBaseC1Ev @6570
    _ZN4inet16L3AddressTagBaseC2ERKS0_ @6571
    _ZN4inet16L3AddressTagBaseC2Ev @6572
    _ZN4inet16L3AddressTagBaseD0Ev @6573
    _ZN4inet16L3AddressTagBaseD1Ev @6574
    _ZN4inet16L3AddressTagBaseD2Ev @6575
    _ZN4inet16L3AddressTagBaseaSERKS0_ @6576
    _ZN4inet16LMacControlFrame12parsimUnpackEPN7omnetpp11cCommBufferE @6577
    _ZN4inet16LMacControlFrame4copyERKS0_ @6578
    _ZN4inet16LMacControlFrameC1ERKS0_ @6579
    _ZN4inet16LMacControlFrameC1Ev @6580
    _ZN4inet16LMacControlFrameC2ERKS0_ @6581
    _ZN4inet16LMacControlFrameC2Ev @6582
    _ZN4inet16LMacControlFrameD0Ev @6583
    _ZN4inet16LMacControlFrameD1Ev @6584
    _ZN4inet16LMacControlFrameD2Ev @6585
    _ZN4inet16LMacControlFrameaSERKS0_ @6586
    _ZN4inet16LinkStateRouting10initializeEi @6587
    _ZN4inet16LinkStateRouting10sendToPeerENS_11Ipv4AddressERKSt6vectorINS_15TeLinkStateInfoESaIS3_EEb @6588
    _ZN4inet16LinkStateRouting11sendToPeersERKSt6vectorINS_15TeLinkStateInfoESaIS2_EEbNS_11Ipv4AddressE @6589
    _ZN4inet16LinkStateRouting13handleMessageEPN7omnetpp8cMessageE @6590
    _ZN4inet16LinkStateRouting13receiveSignalEPN7omnetpp10cComponentEiPNS1_7cObjectES5_ @6591
    _ZN4inet16LinkStateRouting25processLINK_STATE_MESSAGEEPNS_6PacketENS_11Ipv4AddressE @6592
    _ZN4inet16LinkStateRouting8sendToIPEPNS_6PacketENS_11Ipv4AddressE @6593
    _ZN4inet16LinkStateRoutingC1Ev @6594
    _ZN4inet16LinkStateRoutingC2Ev @6595
    _ZN4inet16LinkStateRoutingD0Ev @6596
    _ZN4inet16LinkStateRoutingD1Ev @6597
    _ZN4inet16LinkStateRoutingD2Ev @6598
    _ZN4inet16MacRelayUnitBase10initializeEi @6599
    _ZN4inet16MacRelayUnitBase10sendPacketEPNS_6PacketERKNS_10MacAddressEPNS_16NetworkInterfaceE @6600
    _ZN4inet16MacRelayUnitBase15broadcastPacketEPNS_6PacketERKNS_10MacAddressEPNS_16NetworkInterfaceE @6601
    _ZN4inet16MacRelayUnitBase17updatePeerAddressEPNS_16NetworkInterfaceENS_10MacAddressEj @6602
    _ZN4inet16MacRelayUnitBase6finishEv @6603
    _ZN4inet16MoBanCoordinator10initializeEi @6604
    _ZN4inet16MoBanCoordinator11selectSpeedEv @6605
    _ZN4inet16MoBanCoordinator13isInsideWorldENS_5CoordE @6606
    _ZN4inet16MoBanCoordinator13selectPostureEv @6607
    _ZN4inet16MoBanCoordinator14publishToNodesEv @6608
    _ZN4inet16MoBanCoordinator14selectDurationEv @6609
    _ZN4inet16MoBanCoordinator15computeMaxSpeedEv @6610
    _ZN4inet16MoBanCoordinator17selectDestinationEv @6611
    _ZN4inet16MoBanCoordinator17setTargetPositionEv @6612
    _ZN4inet16MoBanCoordinator18setInitialPositionEv @6613
    _ZN4inet16MoBanCoordinator19collectLocalModulesEPN7omnetpp7cModuleE @6614
    _ZN4inet16MoBanCoordinator21readConfigurationFileEv @6615
    _ZN4inet16MoBanCoordinator23readMobilityPatternFileEv @6616
    _ZN4inet16MoBanCoordinator28readPostureSpecificationFileEv @6617
    _ZN4inet16MoBanCoordinator6finishEv @6618
    _ZN4inet16MoBanCoordinatorC1Ev @6619
    _ZN4inet16MoBanCoordinatorC2Ev @6620
    _ZN4inet16MoBanCoordinatorD0Ev @6621
    _ZN4inet16MoBanCoordinatorD1Ev @6622
    _ZN4inet16MoBanCoordinatorD2Ev @6623
    _ZN4inet16NetworkInterface10initializeEi @6624
    _ZN4inet16NetworkInterface10pushPacketEPNS_6PacketEPN7omnetpp5cGateE @6625
    _ZN4inet16NetworkInterface10setCarrierEb @6626
    _ZN4inet16NetworkInterface13pushPacketEndEPNS_6PacketEPN7omnetpp5cGateE @6627
    _ZN4inet16NetworkInterface13receiveSignalEPN7omnetpp10cComponentEiPNS1_7cObjectES5_ @6628
    _ZN4inet16NetworkInterface14resetInterfaceEv @6629
    _ZN4inet16NetworkInterface15pushPacketStartEPNS_6PacketEPN7omnetpp5cGateENS_5units5valueIdNS6_7composeINS6_5units1bENS6_3powINS9_1sELin1ELi1EEEEEEE @6630
    _ZN4inet16NetworkInterface18joinMulticastGroupERKNS_9L3AddressE @6631
    _ZN4inet16NetworkInterface19handleStopOperationEPNS_18LifecycleOperationE @6632
    _ZN4inet16NetworkInterface20clearProtocolDataSetEv @6633
    _ZN4inet16NetworkInterface20handleCrashOperationEPNS_18LifecycleOperationE @6634
    _ZN4inet16NetworkInterface20handleOperationStageEPNS_18LifecycleOperationEPNS_13IDoneCallbackE @6635
    _ZN4inet16NetworkInterface20handleStartOperationEPNS_18LifecycleOperationE @6636
    _ZN4inet16NetworkInterface21handleParameterChangeEPKc @6637
    _ZN4inet16NetworkInterface22addMulticastMacAddressERKNS_10MacAddressE @6638
    _ZN4inet16NetworkInterface22getEstimateCostProcessEi @6639
    _ZN4inet16NetworkInterface22setEstimateCostProcessEiPNS_22MacEstimateCostProcessE @6640
    _ZN4inet16NetworkInterface25removeMulticastMacAddressERKNS_10MacAddressE @6641
    _ZN4inet16NetworkInterface30changeMulticastGroupMembershipERKNS_9L3AddressENS_21McastSourceFilterModeERKSt6vectorIS1_SaIS1_EES4_S9_ @6642
    _ZN4inet16NetworkInterface7arrivedEPN7omnetpp8cMessageEPNS1_5cGateERKNS1_11SendOptionsENS1_7SimTimeE @6643
    _ZN4inet16NetworkInterface7changedEii @6644
    _ZN4inet16NetworkInterface8setStateENS0_5StateE @6645
    _ZN4inet16NetworkInterface9LocalGate7deliverEPN7omnetpp8cMessageERKNS2_11SendOptionsENS2_7SimTimeE @6646
    _ZN4inet16NetworkInterfaceC1Ev @6647
    _ZN4inet16NetworkInterfaceC2Ev @6648
    _ZN4inet16NetworkInterfaceD0Ev @6649
    _ZN4inet16NetworkInterfaceD1Ev @6650
    _ZN4inet16NetworkInterfaceD2Ev @6651
    _ZN4inet16OperationalMixinIN7omnetpp13cSimpleModuleEE10initializeEi @6652
    _ZN4inet16OperationalMixinIN7omnetpp13cSimpleModuleEE13handleMessageEPNS1_8cMessageE @6653
    _ZN4inet16OperationalMixinIN7omnetpp13cSimpleModuleEE19setOperationalStateENS3_5StateE @6654
    _ZN4inet16OperationalMixinIN7omnetpp13cSimpleModuleEE20handleOperationStageEPNS_18LifecycleOperationEPNS_13IDoneCallbackE @6655
    _ZN4inet16OperationalMixinIN7omnetpp13cSimpleModuleEE20setupActiveOperationEPNS_18LifecycleOperationEPNS_13IDoneCallbackENS3_5StateE @6656
    _ZN4inet16OperationalMixinIN7omnetpp13cSimpleModuleEE21finishActiveOperationEv @6657
    _ZN4inet16OperationalMixinIN7omnetpp13cSimpleModuleEE21handleMessageWhenDownEPNS1_8cMessageE @6658
    _ZN4inet16OperationalMixinIN7omnetpp13cSimpleModuleEE24scheduleOperationTimeoutENS1_7SimTimeE @6659
    _ZN4inet16OperationalMixinIN7omnetpp13cSimpleModuleEE26delayActiveOperationFinishENS1_7SimTimeE @6660
    _ZN4inet16OperationalMixinIN7omnetpp13cSimpleModuleEE28handleActiveOperationTimeoutEPNS1_8cMessageE @6661
    _ZN4inet16OperationalMixinIN7omnetpp13cSimpleModuleEE29startActiveOperationExtraTimeENS1_7SimTimeE @6662
    _ZN4inet16OperationalMixinIN7omnetpp13cSimpleModuleEE37startActiveOperationExtraTimeOrFinishENS1_7SimTimeE @6663
    _ZN4inet16OperationalMixinIN7omnetpp13cSimpleModuleEEC2Ev @6664
    _ZN4inet16OperationalMixinIN7omnetpp13cSimpleModuleEED0Ev @6665
    _ZN4inet16OperationalMixinIN7omnetpp13cSimpleModuleEED1Ev @6666
    _ZN4inet16OperationalMixinIN7omnetpp13cSimpleModuleEED2Ev @6667
    _ZN4inet16OperationalMixinINS_8queueing19PacketProcessorBaseEE10initializeEi @6668
    _ZN4inet16OperationalMixinINS_8queueing19PacketProcessorBaseEE13handleMessageEPN7omnetpp8cMessageE @6669
    _ZN4inet16OperationalMixinINS_8queueing19PacketProcessorBaseEE19setOperationalStateENS3_5StateE @6670
    _ZN4inet16OperationalMixinINS_8queueing19PacketProcessorBaseEE20handleOperationStageEPNS_18LifecycleOperationEPNS_13IDoneCallbackE @6671
    _ZN4inet16OperationalMixinINS_8queueing19PacketProcessorBaseEE20setupActiveOperationEPNS_18LifecycleOperationEPNS_13IDoneCallbackENS3_5StateE @6672
    _ZN4inet16OperationalMixinINS_8queueing19PacketProcessorBaseEE21finishActiveOperationEv @6673
    _ZN4inet16OperationalMixinINS_8queueing19PacketProcessorBaseEE21handleMessageWhenDownEPN7omnetpp8cMessageE @6674
    _ZN4inet16OperationalMixinINS_8queueing19PacketProcessorBaseEE24scheduleOperationTimeoutEN7omnetpp7SimTimeE @6675
    _ZN4inet16OperationalMixinINS_8queueing19PacketProcessorBaseEE26delayActiveOperationFinishEN7omnetpp7SimTimeE @6676
    _ZN4inet16OperationalMixinINS_8queueing19PacketProcessorBaseEE28handleActiveOperationTimeoutEPN7omnetpp8cMessageE @6677
    _ZN4inet16OperationalMixinINS_8queueing19PacketProcessorBaseEE29startActiveOperationExtraTimeEN7omnetpp7SimTimeE @6678
    _ZN4inet16OperationalMixinINS_8queueing19PacketProcessorBaseEE37startActiveOperationExtraTimeOrFinishEN7omnetpp7SimTimeE @6679
    _ZN4inet16OperationalMixinINS_8queueing19PacketProcessorBaseEEC2Ev @6680
    _ZN4inet16OperationalMixinINS_8queueing19PacketProcessorBaseEED0Ev @6681
    _ZN4inet16OperationalMixinINS_8queueing19PacketProcessorBaseEED1Ev @6682
    _ZN4inet16OperationalMixinINS_8queueing19PacketProcessorBaseEED2Ev @6683
    _ZN4inet16PacketDestreamer10initializeEi @6684
    _ZN4inet16PacketDestreamer10pullPacketEPN7omnetpp5cGateE @6685
    _ZN4inet16PacketDestreamer13handleMessageEPN7omnetpp8cMessageE @6686
    _ZN4inet16PacketDestreamer13pushPacketEndEPNS_6PacketEPN7omnetpp5cGateE @6687
    _ZN4inet16PacketDestreamer15pushPacketStartEPNS_6PacketEPN7omnetpp5cGateENS_5units5valueIdNS6_7composeINS6_5units1bENS6_3powINS9_1sELin1ELi1EEEEEEE @6688
    _ZN4inet16PacketDestreamer18pushPacketProgressEPNS_6PacketEPN7omnetpp5cGateENS_5units5valueIdNS6_7composeINS6_5units1bENS6_3powINS9_1sELin1ELi1EEEEEEENS7_IxSA_EESG_ @6689
    _ZN4inet16PacketDestreamer25handlePullPacketProcessedEPNS_6PacketEPN7omnetpp5cGateEb @6690
    _ZN4inet16PacketDestreamer25handlePushPacketProcessedEPNS_6PacketEPN7omnetpp5cGateEb @6691
    _ZN4inet16PacketDestreamer26handleCanPullPacketChangedEPN7omnetpp5cGateE @6692
    _ZN4inet16PacketDestreamer26handleCanPushPacketChangedEPN7omnetpp5cGateE @6693
    _ZN4inet16PacketDestreamerD0Ev @6694
    _ZN4inet16PacketDestreamerD1Ev @6695
    _ZN4inet16PacketDestreamerD2Ev @6696
    _ZN4inet16PacketSerializer13processPacketEPNS_6PacketE @6697
    _ZN4inet16PimNeighborTable10initializeEi @6698
    _ZN4inet16PimNeighborTable11addNeighborEPNS_11PimNeighborEd @6699
    _ZN4inet16PimNeighborTable11getNeighborEii @6700
    _ZN4inet16PimNeighborTable12findNeighborEiNS_11Ipv4AddressE @6701
    _ZN4inet16PimNeighborTable13handleMessageEPN7omnetpp8cMessageE @6702
    _ZN4inet16PimNeighborTable14deleteNeighborEPNS_11PimNeighborE @6703
    _ZN4inet16PimNeighborTable15getNumNeighborsEi @6704
    _ZN4inet16PimNeighborTable20processLivenessTimerEPN7omnetpp8cMessageE @6705
    _ZN4inet16PimNeighborTable20restartLivenessTimerEPNS_11PimNeighborEd @6706
    _ZN4inet16PimNeighborTableD0Ev @6707
    _ZN4inet16PimNeighborTableD1Ev @6708
    _ZN4inet16PimNeighborTableD2Ev @6709
    _ZN4inet16ResidenceTimeTag10setEndTimeEN7omnetpp7SimTimeE @6710
    _ZN4inet16ResidenceTimeTag12parsimUnpackEPN7omnetpp11cCommBufferE @6711
    _ZN4inet16ResidenceTimeTag12setStartTimeEN7omnetpp7SimTimeE @6712
    _ZN4inet16ResidenceTimeTag4copyERKS0_ @6713
    _ZN4inet16ResidenceTimeTagC1ERKS0_ @6714
    _ZN4inet16ResidenceTimeTagC1Ev @6715
    _ZN4inet16ResidenceTimeTagC2ERKS0_ @6716
    _ZN4inet16ResidenceTimeTagC2Ev @6717
    _ZN4inet16ResidenceTimeTagD0Ev @6718
    _ZN4inet16ResidenceTimeTagD1Ev @6719
    _ZN4inet16ResidenceTimeTagD2Ev @6720
    _ZN4inet16ResidenceTimeTagaSERKS0_ @6721
    _ZN4inet16SctpAvailableReq12parsimUnpackEPN7omnetpp11cCommBufferE @6722
    _ZN4inet16SctpAvailableReq14setNewSocketIdEi @6723
    _ZN4inet16SctpAvailableReq4copyERKS0_ @6724
    _ZN4inet16SctpAvailableReqC1ERKS0_ @6725
    _ZN4inet16SctpAvailableReqC1Ev @6726
    _ZN4inet16SctpAvailableReqC2ERKS0_ @6727
    _ZN4inet16SctpAvailableReqC2Ev @6728
    _ZN4inet16SctpAvailableReqD0Ev @6729
    _ZN4inet16SctpAvailableReqD1Ev @6730
    _ZN4inet16SctpAvailableReqD2Ev @6731
    _ZN4inet16SctpAvailableReqaSERKS0_ @6732
    _ZN4inet16SendToMacAddress10initializeEi @6733
    _ZN4inet16SendToMacAddress10pushPacketEPNS_6PacketEPN7omnetpp5cGateE @6734
    _ZN4inet16SendToMacAddress13processPacketEPNS_6PacketE @6735
    _ZN4inet16SendToMacAddress25handlePushPacketProcessedEPNS_6PacketEPN7omnetpp5cGateEb @6736
    _ZN4inet16SendToMacAddress26handleCanPushPacketChangedEPN7omnetpp5cGateE @6737
    _ZN4inet16SendWithHopLimit10initializeEi @6738
    _ZN4inet16SendWithHopLimit13processPacketEPNS_6PacketE @6739
    _ZN4inet16SendWithProtocol13processPacketEPNS_6PacketE @6740
    _ZN4inet16SendWithProtocol21handleRegisterServiceERKNS_8ProtocolEPN7omnetpp5cGateENS_16ServicePrimitiveE @6741
    _ZN4inet16SendWithProtocol22handleRegisterProtocolERKNS_8ProtocolEPN7omnetpp5cGateENS_16ServicePrimitiveE @6742
    _ZN4inet16SignalBitrateInd12parsimUnpackEPN7omnetpp11cCommBufferE @6743
    _ZN4inet16SignalBitrateInd4copyERKS0_ @6744
    _ZN4inet16SignalBitrateIndC1ERKS0_ @6745
    _ZN4inet16SignalBitrateIndC1Ev @6746
    _ZN4inet16SignalBitrateIndC2ERKS0_ @6747
    _ZN4inet16SignalBitrateIndC2Ev @6748
    _ZN4inet16SignalBitrateIndD0Ev @6749
    _ZN4inet16SignalBitrateIndD1Ev @6750
    _ZN4inet16SignalBitrateIndD2Ev @6751
    _ZN4inet16SignalBitrateIndaSERKS0_ @6752
    _ZN4inet16SignalBitrateReq12parsimUnpackEPN7omnetpp11cCommBufferE @6753
    _ZN4inet16SignalBitrateReq4copyERKS0_ @6754
    _ZN4inet16SignalBitrateReqC1ERKS0_ @6755
    _ZN4inet16SignalBitrateReqC1Ev @6756
    _ZN4inet16SignalBitrateReqC2ERKS0_ @6757
    _ZN4inet16SignalBitrateReqC2Ev @6758
    _ZN4inet16SignalBitrateReqD0Ev @6759
    _ZN4inet16SignalBitrateReqD1Ev @6760
    _ZN4inet16SignalBitrateReqD2Ev @6761
    _ZN4inet16SignalBitrateReqaSERKS0_ @6762
    _ZN4inet16SimpleVoipPacket11setPacketIDEj @6763
    _ZN4inet16SimpleVoipPacket12parsimUnpackEPN7omnetpp11cCommBufferE @6764
    _ZN4inet16SimpleVoipPacket14setTalkspurtIDEj @6765
    _ZN4inet16SimpleVoipPacket16setVoiceDurationEN7omnetpp7SimTimeE @6766
    _ZN4inet16SimpleVoipPacket16setVoipTimestampEN7omnetpp7SimTimeE @6767
    _ZN4inet16SimpleVoipPacket19setTotalLengthFieldEt @6768
    _ZN4inet16SimpleVoipPacket22setTalkspurtNumPacketsEj @6769
    _ZN4inet16SimpleVoipPacket4copyERKS0_ @6770
    _ZN4inet16SimpleVoipPacketC1ERKS0_ @6771
    _ZN4inet16SimpleVoipPacketC1Ev @6772
    _ZN4inet16SimpleVoipPacketC2ERKS0_ @6773
    _ZN4inet16SimpleVoipPacketC2Ev @6774
    _ZN4inet16SimpleVoipPacketD0Ev @6775
    _ZN4inet16SimpleVoipPacketD1Ev @6776
    _ZN4inet16SimpleVoipPacketD2Ev @6777
    _ZN4inet16SimpleVoipPacketaSERKS0_ @6778
    _ZN4inet16SimpleVoipSender10initializeEi @6779
    _ZN4inet16SimpleVoipSender13handleMessageEPN7omnetpp8cMessageE @6780
    _ZN4inet16SimpleVoipSender14sendVoIPPacketEv @6781
    _ZN4inet16SimpleVoipSender27selectTalkOrSilenceIntervalEv @6782
    _ZN4inet16SimpleVoipSender9talkspurtEN7omnetpp7SimTimeE @6783
    _ZN4inet16SimpleVoipSenderC1Ev @6784
    _ZN4inet16SimpleVoipSenderC2Ev @6785
    _ZN4inet16SimpleVoipSenderD0Ev @6786
    _ZN4inet16SimpleVoipSenderD1Ev @6787
    _ZN4inet16SimpleVoipSenderD2Ev @6788
    _ZN4inet16StreamClassifier10initializeEi @6789
    _ZN4inet16StreamClassifier14classifyPacketEPNS_6PacketE @6790
    _ZN4inet16StreamIdentifier10initializeEi @6791
    _ZN4inet16StreamIdentifier13processPacketEPNS_6PacketE @6792
    _ZN4inet16StreamIdentifier21handleParameterChangeEPKc @6793
    _ZN4inet16StreamIdentifier23incrementSequenceNumberEPKc @6794
    _ZN4inet16StreamIdentifier29getRegistrationForwardingGateEPN7omnetpp5cGateE @6795
    _ZN4inet16TcpAcceptCommand12parsimUnpackEPN7omnetpp11cCommBufferE @6796
    _ZN4inet16TcpAcceptCommand4copyERKS0_ @6797
    _ZN4inet16TcpAcceptCommandC1ERKS0_ @6798
    _ZN4inet16TcpAcceptCommandC1Ev @6799
    _ZN4inet16TcpAcceptCommandC2ERKS0_ @6800
    _ZN4inet16TcpAcceptCommandC2Ev @6801
    _ZN4inet16TcpAcceptCommandD0Ev @6802
    _ZN4inet16TcpAcceptCommandD1Ev @6803
    _ZN4inet16TcpAcceptCommandD2Ev @6804
    _ZN4inet16TcpAcceptCommandaSERKS0_ @6805
    _ZN4inet16TcpAvailableInfo12parsimUnpackEPN7omnetpp11cCommBufferE @6806
    _ZN4inet16TcpAvailableInfo12setLocalAddrERKNS_9L3AddressE @6807
    _ZN4inet16TcpAvailableInfo12setLocalPortEi @6808
    _ZN4inet16TcpAvailableInfo13setRemoteAddrERKNS_9L3AddressE @6809
    _ZN4inet16TcpAvailableInfo13setRemotePortEi @6810
    _ZN4inet16TcpAvailableInfo14setNewSocketIdEi @6811
    _ZN4inet16TcpAvailableInfo4copyERKS0_ @6812
    _ZN4inet16TcpAvailableInfoC1ERKS0_ @6813
    _ZN4inet16TcpAvailableInfoC1Ev @6814
    _ZN4inet16TcpAvailableInfoC2ERKS0_ @6815
    _ZN4inet16TcpAvailableInfoC2Ev @6816
    _ZN4inet16TcpAvailableInfoD0Ev @6817
    _ZN4inet16TcpAvailableInfoD1Ev @6818
    _ZN4inet16TcpAvailableInfoD2Ev @6819
    _ZN4inet16TcpAvailableInfoaSERKS0_ @6820
    _ZN4inet16TcpEchoAppThread11dataArrivedEPNS_6PacketEb @6821
    _ZN4inet16TcpEchoAppThread11establishedEv @6822
    _ZN4inet16TcpEchoAppThread12timerExpiredEPN7omnetpp8cMessageE @6823
    _ZN4inet16TcpServerHostApp10initializeEi @6824
    _ZN4inet16TcpServerHostApp12removeThreadEPNS_19TcpServerThreadBaseE @6825
    _ZN4inet16TcpServerHostApp12socketClosedEPNS_9TcpSocketE @6826
    _ZN4inet16TcpServerHostApp12threadClosedEPNS_19TcpServerThreadBaseE @6827
    _ZN4inet16TcpServerHostApp15socketAvailableEPNS_9TcpSocketEPNS_16TcpAvailableInfoE @6828
    _ZN4inet16TcpServerHostApp19handleMessageWhenUpEPN7omnetpp8cMessageE @6829
    _ZN4inet16TcpServerHostApp19handleStopOperationEPNS_18LifecycleOperationE @6830
    _ZN4inet16TcpServerHostApp20handleCrashOperationEPNS_18LifecycleOperationE @6831
    _ZN4inet16TcpServerHostApp20handleStartOperationEPNS_18LifecycleOperationE @6832
    _ZN4inet16TcpServerHostApp6finishEv @6833
    _ZN4inet16TcpSetTosCommand12parsimUnpackEPN7omnetpp11cCommBufferE @6834
    _ZN4inet16TcpSetTosCommand4copyERKS0_ @6835
    _ZN4inet16TcpSetTosCommand6setTosEs @6836
    _ZN4inet16TcpSetTosCommandC1ERKS0_ @6837
    _ZN4inet16TcpSetTosCommandC1Ev @6838
    _ZN4inet16TcpSetTosCommandC2ERKS0_ @6839
    _ZN4inet16TcpSetTosCommandC2Ev @6840
    _ZN4inet16TcpSetTosCommandD0Ev @6841
    _ZN4inet16TcpSetTosCommandD1Ev @6842
    _ZN4inet16TcpSetTosCommandD2Ev @6843
    _ZN4inet16TcpSetTosCommandaSERKS0_ @6844
    _ZN4inet16TcpSinkAppThread10initializeEi @6845
    _ZN4inet16TcpSinkAppThread11dataArrivedEPNS_6PacketEb @6846
    _ZN4inet16TcpSinkAppThread11establishedEv @6847
    _ZN4inet16TokenBucketMeter10initializeEi @6848
    _ZN4inet16TokenBucketMeter10pushPacketEPNS_6PacketEPN7omnetpp5cGateE @6849
    _ZN4inet16TokenBucketMeter11meterPacketEPNS_6PacketE @6850
    _ZN4inet16UdpSetTosCommand12parsimUnpackEPN7omnetpp11cCommBufferE @6851
    _ZN4inet16UdpSetTosCommand4copyERKS0_ @6852
    _ZN4inet16UdpSetTosCommand6setTosEs @6853
    _ZN4inet16UdpSetTosCommandC1ERKS0_ @6854
    _ZN4inet16UdpSetTosCommandC1Ev @6855
    _ZN4inet16UdpSetTosCommandC2ERKS0_ @6856
    _ZN4inet16UdpSetTosCommandC2Ev @6857
    _ZN4inet16UdpSetTosCommandD0Ev @6858
    _ZN4inet16UdpSetTosCommandD1Ev @6859
    _ZN4inet16UdpSetTosCommandD2Ev @6860
    _ZN4inet16UdpSetTosCommandaSERKS0_ @6861
    _ZN4inet16XMacControlFrame12parsimUnpackEPN7omnetpp11cCommBufferE @6862
    _ZN4inet16XMacControlFrame4copyERKS0_ @6863
    _ZN4inet16XMacControlFrameC1ERKS0_ @6864
    _ZN4inet16XMacControlFrameC1Ev @6865
    _ZN4inet16XMacControlFrameC2ERKS0_ @6866
    _ZN4inet16XMacControlFrameC2Ev @6867
    _ZN4inet16XMacControlFrameD0Ev @6868
    _ZN4inet16XMacControlFrameD1Ev @6869
    _ZN4inet16XMacControlFrameD2Ev @6870
    _ZN4inet16XMacControlFrameaSERKS0_ @6871
    _ZN4inet16layoutSubmodulesEPN7omnetpp7cModuleEid @6872
    _ZN4inet16linkBrokenSignalE @6873 DATA
    _ZN4inet16packetSentSignalE @6874 DATA
    _ZN4inet16registerProtocolERKNS_8ProtocolEPN7omnetpp5cGateENS_16ServicePrimitiveE @6875
    _ZN4inet16registerProtocolERKNS_8ProtocolEPN7omnetpp5cGateES5_S5_S5_ @6876
    _ZN4inet16routeAddedSignalE @6877 DATA
    _ZN4inet16tedChangedSignalE @6878 DATA
    _ZN4inet17AccessoryProtocol10forwardingE @6879 DATA
    _ZN4inet17AccessoryProtocol11acknowledgeE @6880 DATA
    _ZN4inet17AccessoryProtocol11aggregationE @6881 DATA
    _ZN4inet17AccessoryProtocol13fragmentationE @6882 DATA
    _ZN4inet17AccessoryProtocol14sequenceNumberE @6883 DATA
    _ZN4inet17AccessoryProtocol15destinationPortE @6884 DATA
    _ZN4inet17AccessoryProtocol15withAcknowledgeE @6885 DATA
    _ZN4inet17AccessoryProtocol20destinationL3AddressE @6886 DATA
    _ZN4inet17AccessoryProtocol21destinationMacAddressE @6887 DATA
    _ZN4inet17AccessoryProtocol3crcE @6888 DATA
    _ZN4inet17AccessoryProtocol3fcsE @6889 DATA
    _ZN4inet17AccessoryProtocol8hopLimitE @6890 DATA
    _ZN4inet17AcknowledgeHeader12parsimUnpackEPN7omnetpp11cCommBufferE @6891
    _ZN4inet17AcknowledgeHeader17setSequenceNumberEi @6892
    _ZN4inet17AcknowledgeHeader4copyERKS0_ @6893
    _ZN4inet17AcknowledgeHeaderC1ERKS0_ @6894
    _ZN4inet17AcknowledgeHeaderC1Ev @6895
    _ZN4inet17AcknowledgeHeaderC2ERKS0_ @6896
    _ZN4inet17AcknowledgeHeaderC2Ev @6897
    _ZN4inet17AcknowledgeHeaderD0Ev @6898
    _ZN4inet17AcknowledgeHeaderD1Ev @6899
    _ZN4inet17AcknowledgeHeaderD2Ev @6900
    _ZN4inet17AcknowledgeHeaderaSERKS0_ @6901
    _ZN4inet17AddressListOption12parsimUnpackEPN7omnetpp11cCommBufferE @6902
    _ZN4inet17AddressListOption21setSecondaryAddressesEyRKNS_21EncodedUnicastAddressE @6903
    _ZN4inet17AddressListOption23eraseSecondaryAddressesEy @6904
    _ZN4inet17AddressListOption24appendSecondaryAddressesERKNS_21EncodedUnicastAddressE @6905
    _ZN4inet17AddressListOption24insertSecondaryAddressesEyRKNS_21EncodedUnicastAddressE @6906
    _ZN4inet17AddressListOption30setSecondaryAddressesArraySizeEy @6907
    _ZN4inet17AddressListOption4copyERKS0_ @6908
    _ZN4inet17AddressListOptionC1ERKS0_ @6909
    _ZN4inet17AddressListOptionC1Ev @6910
    _ZN4inet17AddressListOptionC2ERKS0_ @6911
    _ZN4inet17AddressListOptionC2Ev @6912
    _ZN4inet17AddressListOptionD0Ev @6913
    _ZN4inet17AddressListOptionD1Ev @6914
    _ZN4inet17AddressListOptionD2Ev @6915
    _ZN4inet17AddressListOptionaSERKS0_ @6916
    _ZN4inet17ApplicationPacket12parsimUnpackEPN7omnetpp11cCommBufferE @6917
    _ZN4inet17ApplicationPacket17setSequenceNumberEj @6918
    _ZN4inet17ApplicationPacket4copyERKS0_ @6919
    _ZN4inet17ApplicationPacketC1ERKS0_ @6920
    _ZN4inet17ApplicationPacketC1Ev @6921
    _ZN4inet17ApplicationPacketC2ERKS0_ @6922
    _ZN4inet17ApplicationPacketC2Ev @6923
    _ZN4inet17ApplicationPacketD0Ev @6924
    _ZN4inet17ApplicationPacketD1Ev @6925
    _ZN4inet17ApplicationPacketD2Ev @6926
    _ZN4inet17ApplicationPacketaSERKS0_ @6927
    _ZN4inet17BindingUpdateList10initializeEv @6928
    _ZN4inet17BindingUpdateList11generateKeyEiiRKNS_11Ipv6AddressE @6929
    _ZN4inet17BindingUpdateList13handleMessageEPN7omnetpp8cMessageE @6930
    _ZN4inet17BindingUpdateList13removeBindingERKNS_11Ipv6AddressE @6931
    _ZN4inet17BindingUpdateList14addOrUpdateBULERKNS_11Ipv6AddressES3_N7omnetpp7SimTimeEib @6932
    _ZN4inet17BindingUpdateList14addOrUpdateBULERKNS_11Ipv6AddressES3_S3_jjN7omnetpp7SimTimeE @6933
    _ZN4inet17BindingUpdateList14createBULEntryERKNS_11Ipv6AddressE @6934
    _ZN4inet17BindingUpdateList14isValidBindingERKNS_11Ipv6AddressE @6935
    _ZN4inet17BindingUpdateList14resetHomeTokenERKNS_11Ipv6AddressES3_ @6936
    _ZN4inet17BindingUpdateList14suspendBindingERKNS_11Ipv6AddressE @6937
    _ZN4inet17BindingUpdateList16recentlySentCOTIERKNS_11Ipv6AddressEPNS_16NetworkInterfaceE @6938
    _ZN4inet17BindingUpdateList16recentlySentHOTIERKNS_11Ipv6AddressEPNS_16NetworkInterfaceE @6939
    _ZN4inet17BindingUpdateList16resetCareOfTokenERKNS_11Ipv6AddressES3_ @6940
    _ZN4inet17BindingUpdateList16setMobilityStateERKNS_11Ipv6AddressENS0_13MobilityStateE @6941
    _ZN4inet17BindingUpdateList17generateBAuthDataERKNS_11Ipv6AddressES3_ @6942
    _ZN4inet17BindingUpdateList17generateHomeTokenERKNS_11Ipv6AddressEi @6943
    _ZN4inet17BindingUpdateList17getSequenceNumberERKNS_11Ipv6AddressE @6944
    _ZN4inet17BindingUpdateList17sentBindingUpdateERKNS_11Ipv6AddressE @6945
    _ZN4inet17BindingUpdateList18initializeBUValuesERNS0_22BindingUpdateListEntryE @6946
    _ZN4inet17BindingUpdateList19generateCareOfTokenERKNS_11Ipv6AddressEi @6947
    _ZN4inet17BindingUpdateList20isHomeTokenAvailableERKNS_11Ipv6AddressEPNS_16NetworkInterfaceE @6948
    _ZN4inet17BindingUpdateList21isInBindingUpdateListERKNS_11Ipv6AddressES3_ @6949
    _ZN4inet17BindingUpdateList22isBindingAboutToExpireERKNS_11Ipv6AddressE @6950
    _ZN4inet17BindingUpdateList22isCareOfTokenAvailableERKNS_11Ipv6AddressEPNS_16NetworkInterfaceE @6951
    _ZN4inet17BindingUpdateList22resetBindingCacheEntryERNS0_22BindingUpdateListEntryE @6952
    _ZN4inet17BindingUpdateList5fetchERKNS_11Ipv6AddressE @6953
    _ZN4inet17BindingUpdateList6getCoAERKNS_11Ipv6AddressE @6954
    _ZN4inet17BindingUpdateList6lookupERKNS_11Ipv6AddressE @6955
    _ZN4inet17BindingUpdateListC1Ev @6956
    _ZN4inet17BindingUpdateListC2Ev @6957
    _ZN4inet17BindingUpdateListD0Ev @6958
    _ZN4inet17BindingUpdateListD1Ev @6959
    _ZN4inet17BindingUpdateListD2Ev @6960
    _ZN4inet17CrcHeaderInserter10initializeEi @6961
    _ZN4inet17CrcHeaderInserter13processPacketEPNS_6PacketE @6962
    _ZN4inet17EigrpTlvParameterC1Ev @6963
    _ZN4inet17EigrpTlvParameterC2Ev @6964
    _ZN4inet17EthernetMacHeader12parsimUnpackEPN7omnetpp11cCommBufferE @6965
    _ZN4inet17EthernetMacHeader15setTypeOrLengthEt @6966
    _ZN4inet17EthernetMacHeader4copyERKS0_ @6967
    _ZN4inet17EthernetMacHeaderC1ERKS0_ @6968
    _ZN4inet17EthernetMacHeaderC1Ev @6969
    _ZN4inet17EthernetMacHeaderC2ERKS0_ @6970
    _ZN4inet17EthernetMacHeaderC2Ev @6971
    _ZN4inet17EthernetMacHeaderD0Ev @6972
    _ZN4inet17EthernetMacHeaderD1Ev @6973
    _ZN4inet17EthernetMacHeaderD2Ev @6974
    _ZN4inet17EthernetMacHeaderaSERKS0_ @6975
    _ZN4inet17FcsHeaderInserter10initializeEi @6976
    _ZN4inet17FcsHeaderInserter13processPacketEPNS_6PacketE @6977
    _ZN4inet17HeatMapPlotFigure10bakeValuesEv @6978
    _ZN4inet17HeatMapPlotFigure11addChildrenEv @6979
    _ZN4inet17HeatMapPlotFigure11clearValuesEv @6980
    _ZN4inet17HeatMapPlotFigure11setMaxValueEd @6981
    _ZN4inet17HeatMapPlotFigure11setMinValueEd @6982
    _ZN4inet17HeatMapPlotFigure11setPlotSizeERKN7omnetpp7cFigure5PointES5_ @6983
    _ZN4inet17HeatMapPlotFigure12getHeatColorEiidi @6984
    _ZN4inet17HeatMapPlotFigure12redrawXTicksEv @6985
    _ZN4inet17HeatMapPlotFigure12redrawYTicksEv @6986
    _ZN4inet17HeatMapPlotFigure12setLabelFontERKN7omnetpp7cFigure4FontE @6987
    _ZN4inet17HeatMapPlotFigure12setPixelSafeEiidi @6988
    _ZN4inet17HeatMapPlotFigure12setXTickSizeEd @6989
    _ZN4inet17HeatMapPlotFigure12setYTickSizeEd @6990
    _ZN4inet17HeatMapPlotFigure13setLabelColorERKN7omnetpp7cFigure5ColorE @6991
    _ZN4inet17HeatMapPlotFigure13setXTickCountEi @6992
    _ZN4inet17HeatMapPlotFigure13setYTickCountEi @6993
    _ZN4inet17HeatMapPlotFigure14refreshDisplayEv @6994
    _ZN4inet17HeatMapPlotFigure14setLabelOffsetEi @6995
    _ZN4inet17HeatMapPlotFigure14setLinearValueEddddddii @6996
    _ZN4inet17HeatMapPlotFigure16setBilinearValueEddddddddi @6997
    _ZN4inet17HeatMapPlotFigure16setConstantValueEdddddi @6998
    _ZN4inet17HeatMapPlotFigure5parseEPN7omnetpp9cPropertyE @6999
    _ZN4inet17HeatMapPlotFigure6layoutEv @7000
    _ZN4inet17HeatMapPlotFigure7setMaxXEd @7001
    _ZN4inet17HeatMapPlotFigure7setMaxYEd @7002
    _ZN4inet17HeatMapPlotFigure7setMinXEd @7003
    _ZN4inet17HeatMapPlotFigure7setMinYEd @7004
    _ZN4inet17HeatMapPlotFigure8setValueEdddi @7005
    _ZN4inet17HeatMapPlotFigure8setValueEiidi @7006
    _ZN4inet17HeatMapPlotFigure9setBoundsERKN7omnetpp7cFigure9RectangleE @7007
    _ZN4inet17HeatMapPlotFigureC1EPKc @7008
    _ZN4inet17HeatMapPlotFigureC2EPKc @7009
    _ZN4inet17HomeAddressOption12parsimUnpackEPN7omnetpp11cCommBufferE @7010
    _ZN4inet17HomeAddressOption14setHomeAddressERKNS_11Ipv6AddressE @7011
    _ZN4inet17HomeAddressOption4copyERKS0_ @7012
    _ZN4inet17HomeAddressOptionC1ERKS0_ @7013
    _ZN4inet17HomeAddressOptionC1Ev @7014
    _ZN4inet17HomeAddressOptionC2ERKS0_ @7015
    _ZN4inet17HomeAddressOptionC2Ev @7016
    _ZN4inet17HomeAddressOptionD0Ev @7017
    _ZN4inet17HomeAddressOptionD1Ev @7018
    _ZN4inet17HomeAddressOptionD2Ev @7019
    _ZN4inet17HomeAddressOptionaSERKS0_ @7020
    _ZN4inet17Ieee8022LlcHeader10setControlEi @7021
    _ZN4inet17Ieee8022LlcHeader12parsimUnpackEPN7omnetpp11cCommBufferE @7022
    _ZN4inet17Ieee8022LlcHeader4copyERKS0_ @7023
    _ZN4inet17Ieee8022LlcHeader7setDsapEs @7024
    _ZN4inet17Ieee8022LlcHeader7setSsapEs @7025
    _ZN4inet17Ieee8022LlcHeaderC1ERKS0_ @7026
    _ZN4inet17Ieee8022LlcHeaderC1Ev @7027
    _ZN4inet17Ieee8022LlcHeaderC2ERKS0_ @7028
    _ZN4inet17Ieee8022LlcHeaderC2Ev @7029
    _ZN4inet17Ieee8022LlcHeaderD0Ev @7030
    _ZN4inet17Ieee8022LlcHeaderD1Ev @7031
    _ZN4inet17Ieee8022LlcHeaderD2Ev @7032
    _ZN4inet17Ieee8022LlcHeaderaSERKS0_ @7033
    _ZN4inet17Ieee8022LlcSocket14processMessageEPN7omnetpp8cMessageE @7034
    _ZN4inet17Ieee8022LlcSocket4openEiii @7035
    _ZN4inet17Ieee8022LlcSocket7sendOutEPN7omnetpp8cMessageE @7036
    _ZN4inet17Ieee802SapTagBase12parsimUnpackEPN7omnetpp11cCommBufferE @7037
    _ZN4inet17Ieee802SapTagBase4copyERKS0_ @7038
    _ZN4inet17Ieee802SapTagBase7setDsapEi @7039
    _ZN4inet17Ieee802SapTagBase7setSsapEi @7040
    _ZN4inet17Ieee802SapTagBaseC1ERKS0_ @7041
    _ZN4inet17Ieee802SapTagBaseC1Ev @7042
    _ZN4inet17Ieee802SapTagBaseC2ERKS0_ @7043
    _ZN4inet17Ieee802SapTagBaseC2Ev @7044
    _ZN4inet17Ieee802SapTagBaseD0Ev @7045
    _ZN4inet17Ieee802SapTagBaseD1Ev @7046
    _ZN4inet17Ieee802SapTagBaseD2Ev @7047
    _ZN4inet17Ieee802SapTagBaseaSERKS0_ @7048
    _ZN4inet17InitStageRegistry12addInitStageERNS_9InitStageE @7049
    _ZN4inet17InitStageRegistry12getInitStageEPKc @7050
    _ZN4inet17InitStageRegistry16getNumInitStagesEv @7051
    _ZN4inet17InitStageRegistry22addInitStageDependencyEPKcS2_ @7052
    _ZN4inet17InitStageRegistry22assignInitStageNumbersEv @7053
    _ZN4inet17Ipv4InterfaceData17HostMulticastData12detailedInfoB5cxx11Ev @7054
    _ZN4inet17Ipv4InterfaceData17HostMulticastData3strB5cxx11Ev @7055
    _ZN4inet17Ipv4InterfaceData17HostMulticastDataD0Ev @7056
    _ZN4inet17Ipv4InterfaceData17HostMulticastDataD1Ev @7057
    _ZN4inet17Ipv4InterfaceData17HostMulticastDataD2Ev @7058
    _ZN4inet17Ipv4InterfaceData17findHostGroupDataENS_11Ipv4AddressE @7059
    _ZN4inet17Ipv4InterfaceData18joinMulticastGroupERKNS_11Ipv4AddressE @7060
    _ZN4inet17Ipv4InterfaceData19RouterMulticastData12detailedInfoB5cxx11Ev @7061
    _ZN4inet17Ipv4InterfaceData19RouterMulticastData3strB5cxx11Ev @7062
    _ZN4inet17Ipv4InterfaceData19RouterMulticastDataD0Ev @7063
    _ZN4inet17Ipv4InterfaceData19RouterMulticastDataD1Ev @7064
    _ZN4inet17Ipv4InterfaceData19RouterMulticastDataD2Ev @7065
    _ZN4inet17Ipv4InterfaceData19leaveMulticastGroupERKNS_11Ipv4AddressE @7066
    _ZN4inet17Ipv4InterfaceData19removeHostGroupDataENS_11Ipv4AddressE @7067
    _ZN4inet17Ipv4InterfaceData20addMulticastListenerENS_11Ipv4AddressES1_ @7068
    _ZN4inet17Ipv4InterfaceData20addMulticastListenerERKNS_11Ipv4AddressE @7069
    _ZN4inet17Ipv4InterfaceData21removeRouterGroupDataENS_11Ipv4AddressE @7070
    _ZN4inet17Ipv4InterfaceData21setMulticastListenersENS_11Ipv4AddressENS_21McastSourceFilterModeERKSt6vectorIS1_SaIS1_EE @7071
    _ZN4inet17Ipv4InterfaceData22HostMulticastGroupData16updateSourceListEv @7072
    _ZN4inet17Ipv4InterfaceData23removeMulticastListenerENS_11Ipv4AddressES1_ @7073
    _ZN4inet17Ipv4InterfaceData23removeMulticastListenerERKNS_11Ipv4AddressE @7074
    _ZN4inet17Ipv4InterfaceData30changeMulticastGroupMembershipENS_11Ipv4AddressENS_21McastSourceFilterModeERKSt6vectorIS1_SaIS1_EES2_S7_ @7075
    _ZN4inet17Ipv4InterfaceDataC1Ev @7076
    _ZN4inet17Ipv4InterfaceDataC2Ev @7077
    _ZN4inet17Ipv4InterfaceDataD0Ev @7078
    _ZN4inet17Ipv4InterfaceDataD1Ev @7079
    _ZN4inet17Ipv4InterfaceDataD2Ev @7080
    _ZN4inet17Ipv4OptionUnknown10eraseBytesEy @7081
    _ZN4inet17Ipv4OptionUnknown11appendBytesEh @7082
    _ZN4inet17Ipv4OptionUnknown11insertBytesEyh @7083
    _ZN4inet17Ipv4OptionUnknown12parsimUnpackEPN7omnetpp11cCommBufferE @7084
    _ZN4inet17Ipv4OptionUnknown17setBytesArraySizeEy @7085
    _ZN4inet17Ipv4OptionUnknown4copyERKS0_ @7086
    _ZN4inet17Ipv4OptionUnknown8setBytesEyh @7087
    _ZN4inet17Ipv4OptionUnknownC1ERKS0_ @7088
    _ZN4inet17Ipv4OptionUnknownC1Ev @7089
    _ZN4inet17Ipv4OptionUnknownC2ERKS0_ @7090
    _ZN4inet17Ipv4OptionUnknownC2Ev @7091
    _ZN4inet17Ipv4OptionUnknownD0Ev @7092
    _ZN4inet17Ipv4OptionUnknownD1Ev @7093
    _ZN4inet17Ipv4OptionUnknownD2Ev @7094
    _ZN4inet17Ipv4OptionUnknownaSERKS0_ @7095
    _ZN4inet17Ipv6InterfaceData12addAdvPrefixERKNS0_9AdvPrefixE @7096
    _ZN4inet17Ipv6InterfaceData12setAdvPrefixEiRKNS0_9AdvPrefixE @7097
    _ZN4inet17Ipv6InterfaceData13assignAddressERKNS_11Ipv6AddressEbN7omnetpp7SimTimeES5_b @7098
    _ZN4inet17Ipv6InterfaceData13removeAddressENS0_11AddressTypeE @7099
    _ZN4inet17Ipv6InterfaceData13removeAddressERKNS_11Ipv6AddressE @7100
    _ZN4inet17Ipv6InterfaceData15deduceAdvPrefixEv @7101
    _ZN4inet17Ipv6InterfaceData15removeAdvPrefixEi @7102
    _ZN4inet17Ipv6InterfaceData17permanentlyAssignERKNS_11Ipv6AddressE @7103
    _ZN4inet17Ipv6InterfaceData17tentativelyAssignEi @7104
    _ZN4inet17Ipv6InterfaceData18joinMulticastGroupERKNS_11Ipv6AddressE @7105
    _ZN4inet17Ipv6InterfaceData19leaveMulticastGroupERKNS_11Ipv6AddressE @7106
    _ZN4inet17Ipv6InterfaceData20addMulticastListenerERKNS_11Ipv6AddressE @7107
    _ZN4inet17Ipv6InterfaceData21generateReachableTimeEddj @7108
    _ZN4inet17Ipv6InterfaceData21generateReachableTimeEv @7109
    _ZN4inet17Ipv6InterfaceData21updateHomeNetworkInfoERKNS_11Ipv6AddressES3_S3_i @7110
    _ZN4inet17Ipv6InterfaceData22choosePreferredAddressEv @7111
    _ZN4inet17Ipv6InterfaceData23removeMulticastListenerERKNS_11Ipv6AddressE @7112
    _ZN4inet17Ipv6InterfaceData32autoConfRouterGlobalScopeAddressERNS0_9AdvPrefixE @7113
    _ZN4inet17Ipv6InterfaceData32autoConfRouterGlobalScopeAddressEi @7114
    _ZN4inet17Ipv6InterfaceData32updateMatchingAddressExpiryTimesERKNS_11Ipv6AddressEiN7omnetpp7SimTimeES5_ @7115
    _ZN4inet17Ipv6InterfaceData8addrLessERKNS0_11AddressDataES3_ @7116
    _ZN4inet17Ipv6InterfaceDataC1Ev @7117
    _ZN4inet17Ipv6InterfaceDataC2Ev @7118
    _ZN4inet17Ipv6InterfaceDataD0Ev @7119
    _ZN4inet17Ipv6InterfaceDataD1Ev @7120
    _ZN4inet17Ipv6InterfaceDataD2Ev @7121
    _ZN4inet17Ipv6NdControlInfo10setNextHopERKNS_11Ipv6AddressE @7122
    _ZN4inet17Ipv6NdControlInfo12parsimUnpackEPN7omnetpp11cCommBufferE @7123
    _ZN4inet17Ipv6NdControlInfo14setInterfaceIdEi @7124
    _ZN4inet17Ipv6NdControlInfo4copyERKS0_ @7125
    _ZN4inet17Ipv6NdControlInfo9setFromHLEb @7126
    _ZN4inet17Ipv6NdControlInfoC1ERKS0_ @7127
    _ZN4inet17Ipv6NdControlInfoC1Ev @7128
    _ZN4inet17Ipv6NdControlInfoC2ERKS0_ @7129
    _ZN4inet17Ipv6NdControlInfoC2Ev @7130
    _ZN4inet17Ipv6NdControlInfoD0Ev @7131
    _ZN4inet17Ipv6NdControlInfoD1Ev @7132
    _ZN4inet17Ipv6NdControlInfoD2Ev @7133
    _ZN4inet17Ipv6NdControlInfoaSERKS0_ @7134
    _ZN4inet17Ipv6RoutingHeader10setAddressEyRKNS_11Ipv6AddressE @7135
    _ZN4inet17Ipv6RoutingHeader12eraseAddressEy @7136
    _ZN4inet17Ipv6RoutingHeader12parsimUnpackEPN7omnetpp11cCommBufferE @7137
    _ZN4inet17Ipv6RoutingHeader13appendAddressERKNS_11Ipv6AddressE @7138
    _ZN4inet17Ipv6RoutingHeader13insertAddressEyRKNS_11Ipv6AddressE @7139
    _ZN4inet17Ipv6RoutingHeader14setRoutingTypeEh @7140
    _ZN4inet17Ipv6RoutingHeader15setSegmentsLeftEh @7141
    _ZN4inet17Ipv6RoutingHeader19setAddressArraySizeEy @7142
    _ZN4inet17Ipv6RoutingHeader4copyERKS0_ @7143
    _ZN4inet17Ipv6RoutingHeaderC1ERKS0_ @7144
    _ZN4inet17Ipv6RoutingHeaderC1Ev @7145
    _ZN4inet17Ipv6RoutingHeaderC2ERKS0_ @7146
    _ZN4inet17Ipv6RoutingHeaderC2Ev @7147
    _ZN4inet17Ipv6RoutingHeaderD0Ev @7148
    _ZN4inet17Ipv6RoutingHeaderD1Ev @7149
    _ZN4inet17Ipv6RoutingHeaderD2Ev @7150
    _ZN4inet17Ipv6RoutingHeaderaSERKS0_ @7151
    _ZN4inet17L3AddressResolver10routerIdOfEPN7omnetpp7cModuleE @7152
    _ZN4inet17L3AddressResolver10tryResolveEPKcRNS_9L3AddressEi @7153
    _ZN4inet17L3AddressResolver14getAddressFromEPNS_15IInterfaceTableEi @7154
    _ZN4inet17L3AddressResolver14getAddressFromEPNS_16NetworkInterfaceEi @7155
    _ZN4inet17L3AddressResolver16interfaceTableOfEPN7omnetpp7cModuleE @7156
    _ZN4inet17L3AddressResolver17getMacAddressFromERNS_9L3AddressEPNS_15IInterfaceTableEb @7157
    _ZN4inet17L3AddressResolver18getIpv4AddressFromERNS_9L3AddressEPNS_15IInterfaceTableEb @7158
    _ZN4inet17L3AddressResolver18getIpv6AddressFromERNS_9L3AddressEPNS_15IInterfaceTableEb @7159
    _ZN4inet17L3AddressResolver19collectNetworkNodesEv @7160
    _ZN4inet17L3AddressResolver19findHostWithAddressERKNS_9L3AddressE @7161
    _ZN4inet17L3AddressResolver20findInterfaceTableOfEPN7omnetpp7cModuleE @7162
    _ZN4inet17L3AddressResolver21doCollectNetworkNodesEPN7omnetpp7cModuleERSt6vectorIS3_SaIS3_EE @7163
    _ZN4inet17L3AddressResolver21getIpv4RoutingTableOfEPN7omnetpp7cModuleE @7164
    _ZN4inet17L3AddressResolver21getIpv6RoutingTableOfEPN7omnetpp7cModuleE @7165
    _ZN4inet17L3AddressResolver22findHostWithMacAddressERKNS_10MacAddressE @7166
    _ZN4inet17L3AddressResolver22findIpv4RoutingTableOfEPN7omnetpp7cModuleE @7167
    _ZN4inet17L3AddressResolver22findIpv6RoutingTableOfEPN7omnetpp7cModuleE @7168
    _ZN4inet17L3AddressResolver22getInterfaceMacAddressERNS_9L3AddressEPNS_16NetworkInterfaceEb @7169
    _ZN4inet17L3AddressResolver22getModuleIdAddressFromERNS_9L3AddressEPNS_15IInterfaceTableEb @7170
    _ZN4inet17L3AddressResolver23getInterfaceIpv4AddressERNS_9L3AddressEPNS_16NetworkInterfaceEb @7171
    _ZN4inet17L3AddressResolver23getInterfaceIpv6AddressERNS_9L3AddressEPNS_16NetworkInterfaceEb @7172
    _ZN4inet17L3AddressResolver24getModulePathAddressFromERNS_9L3AddressEPNS_15IInterfaceTableEb @7173
    _ZN4inet17L3AddressResolver25findNextHopRoutingTableOfEPN7omnetpp7cModuleE @7174
    _ZN4inet17L3AddressResolver27findInterfaceWithMacAddressERKNS_10MacAddressE @7175
    _ZN4inet17L3AddressResolver27getInterfaceModuleIdAddressERNS_9L3AddressEPNS_16NetworkInterfaceEb @7176
    _ZN4inet17L3AddressResolver29getInterfaceModulePathAddressERNS_9L3AddressEPNS_16NetworkInterfaceEb @7177
    _ZN4inet17L3AddressResolver7resolveEPKci @7178
    _ZN4inet17L3AddressResolver7resolveESt6vectorINSt7__cxx1112basic_stringIcSt11char_traitsIcESaIcEEESaIS7_EEi @7179
    _ZN4inet17L3AddressResolver8tryParseERNS_9L3AddressEPKci @7180
    _ZN4inet17L3AddressResolver9addressOfEPN7omnetpp7cModuleEPKci @7181
    _ZN4inet17L3AddressResolver9addressOfEPN7omnetpp7cModuleES3_i @7182
    _ZN4inet17L3AddressResolver9addressOfEPN7omnetpp7cModuleEi @7183
    _ZN4inet17LabeledIconFigure10setOpacityEd @7184
    _ZN4inet17LabeledIconFigure10setTooltipEPKc @7185
    _ZN4inet17LabeledIconFigure11setPositionEN7omnetpp7cFigure5PointE @7186
    _ZN4inet17LabeledIconFigure19setAssociatedObjectEPN7omnetpp7cObjectE @7187
    _ZN4inet17LabeledIconFigureC1EPKc @7188
    _ZN4inet17LabeledIconFigureC2EPKc @7189
    _ZN4inet17LabeledLineFigure19updateLabelPositionEv @7190
    _ZN4inet17LabeledLineFigure6setEndEN7omnetpp7cFigure5PointE @7191
    _ZN4inet17LabeledLineFigure8setStartEN7omnetpp7cFigure5PointE @7192
    _ZN4inet17LabeledLineFigureC1EPKc @7193
    _ZN4inet17LabeledLineFigureC2EPKc @7194
    _ZN4inet17LinearGaugeFigure11addChildrenEv @7195
    _ZN4inet17LinearGaugeFigure11redrawTicksEv @7196
    _ZN4inet17LinearGaugeFigure11setMaxValueEd @7197
    _ZN4inet17LinearGaugeFigure11setMinValueEd @7198
    _ZN4inet17LinearGaugeFigure11setTickSizeEd @7199
    _ZN4inet17LinearGaugeFigure12setLabelFontERKN7omnetpp7cFigure4FontE @7200
    _ZN4inet17LinearGaugeFigure13setLabelColorERKN7omnetpp7cFigure5ColorE @7201
    _ZN4inet17LinearGaugeFigure14setLabelOffsetEi @7202
    _ZN4inet17LinearGaugeFigure14setNeedleColorERKN7omnetpp7cFigure5ColorE @7203
    _ZN4inet17LinearGaugeFigure15setCornerRadiusEd @7204
    _ZN4inet17LinearGaugeFigure15setTickGeometryEPN7omnetpp11cLineFigureEi @7205
    _ZN4inet17LinearGaugeFigure17setNeedleGeometryEv @7206
    _ZN4inet17LinearGaugeFigure17setNumberGeometryEPN7omnetpp11cTextFigureEi @7207
    _ZN4inet17LinearGaugeFigure18setBackgroundColorERKN7omnetpp7cFigure5ColorE @7208
    _ZN4inet17LinearGaugeFigure5parseEPN7omnetpp9cPropertyE @7209
    _ZN4inet17LinearGaugeFigure6layoutEv @7210
    _ZN4inet17LinearGaugeFigure7refreshEv @7211
    _ZN4inet17LinearGaugeFigure8setLabelEPKc @7212
    _ZN4inet17LinearGaugeFigure8setValueEiN7omnetpp7SimTimeEd @7213
    _ZN4inet17LinearGaugeFigure9setBoundsERKN7omnetpp7cFigure9RectangleE @7214
    _ZN4inet17LinearGaugeFigureC1EPKc @7215
    _ZN4inet17LinearGaugeFigureC2EPKc @7216
    _ZN4inet17LinearGaugeFigureD0Ev @7217
    _ZN4inet17LinearGaugeFigureD1Ev @7218
    _ZN4inet17LinearGaugeFigureD2Ev @7219
    _ZN4inet17MacAddressTagBase12parsimUnpackEPN7omnetpp11cCommBufferE @7220
    _ZN4inet17MacAddressTagBase13setSrcAddressERKNS_10MacAddressE @7221
    _ZN4inet17MacAddressTagBase14setDestAddressERKNS_10MacAddressE @7222
    _ZN4inet17MacAddressTagBase4copyERKS0_ @7223
    _ZN4inet17MacAddressTagBaseC1ERKS0_ @7224
    _ZN4inet17MacAddressTagBaseC1Ev @7225
    _ZN4inet17MacAddressTagBaseC2ERKS0_ @7226
    _ZN4inet17MacAddressTagBaseC2Ev @7227
    _ZN4inet17MacAddressTagBaseD0Ev @7228
    _ZN4inet17MacAddressTagBaseD1Ev @7229
    _ZN4inet17MacAddressTagBaseD2Ev @7230
    _ZN4inet17MacAddressTagBaseaSERKS0_ @7231
    _ZN4inet17MessageDispatcher10initializeEi @7232
    _ZN4inet17MessageDispatcher10pushPacketEPNS_6PacketEPN7omnetpp5cGateE @7233
    _ZN4inet17MessageDispatcher12handlePacketEPNS_6PacketEPN7omnetpp5cGateE @7234
    _ZN4inet17MessageDispatcher13handleMessageEPNS_7MessageEPN7omnetpp5cGateE @7235
    _ZN4inet17MessageDispatcher13pushPacketEndEPNS_6PacketEPN7omnetpp5cGateE @7236
    _ZN4inet17MessageDispatcher15pushPacketStartEPNS_6PacketEPN7omnetpp5cGateENS_5units5valueIdNS6_7composeINS6_5units1bENS6_3powINS9_1sELin1ELi1EEEEEEE @7237
    _ZN4inet17MessageDispatcher21handleRegisterServiceERKNS_8ProtocolEPN7omnetpp5cGateENS_16ServicePrimitiveE @7238
    _ZN4inet17MessageDispatcher22handleRegisterProtocolERKNS_8ProtocolEPN7omnetpp5cGateENS_16ServicePrimitiveE @7239
    _ZN4inet17MessageDispatcher23handleRegisterInterfaceERKNS_16NetworkInterfaceEPN7omnetpp5cGateES6_ @7240
    _ZN4inet17MessageDispatcher24handleRegisterAnyServiceEPN7omnetpp5cGateENS_16ServicePrimitiveE @7241
    _ZN4inet17MessageDispatcher25handlePushPacketProcessedEPNS_6PacketEPN7omnetpp5cGateEb @7242
    _ZN4inet17MessageDispatcher25handleRegisterAnyProtocolEPN7omnetpp5cGateENS_16ServicePrimitiveE @7243
    _ZN4inet17MessageDispatcher26handleCanPushPacketChangedEPN7omnetpp5cGateE @7244
    _ZN4inet17MessageDispatcher7arrivedEPN7omnetpp8cMessageEPNS1_5cGateERKNS1_11SendOptionsENS1_7SimTimeE @7245
    _ZN4inet17ModulePathAddress8tryParseEPKc @7246
    _ZN4inet17NetfilterInfoHook10initializeEi @7247
    _ZN4inet17NetfilterInfoHook13handleMessageEPN7omnetpp8cMessageE @7248
    _ZN4inet17NetfilterInfoHook19datagramForwardHookEPNS_6PacketE @7249
    _ZN4inet17NetfilterInfoHook19datagramLocalInHookEPNS_6PacketE @7250
    _ZN4inet17NetfilterInfoHook20datagramLocalOutHookEPNS_6PacketE @7251
    _ZN4inet17NetfilterInfoHook22datagramPreRoutingHookEPNS_6PacketE @7252
    _ZN4inet17NetfilterInfoHook23datagramPostRoutingHookEPNS_6PacketE @7253
    _ZN4inet17NetfilterInfoHook6finishEv @7254
    _ZN4inet17NextHopAddressReq12parsimUnpackEPN7omnetpp11cCommBufferE @7255
    _ZN4inet17NextHopAddressReq17setNextHopAddressERKNS_9L3AddressE @7256
    _ZN4inet17NextHopAddressReq4copyERKS0_ @7257
    _ZN4inet17NextHopAddressReqC1ERKS0_ @7258
    _ZN4inet17NextHopAddressReqC1Ev @7259
    _ZN4inet17NextHopAddressReqC2ERKS0_ @7260
    _ZN4inet17NextHopAddressReqC2Ev @7261
    _ZN4inet17NextHopAddressReqD0Ev @7262
    _ZN4inet17NextHopAddressReqD1Ev @7263
    _ZN4inet17NextHopAddressReqD2Ev @7264
    _ZN4inet17NextHopAddressReqaSERKS0_ @7265
    _ZN4inet17NextHopForwarding10initializeEi @7266
    _ZN4inet17NextHopForwarding11decapsulateEPNS_6PacketE @7267
    _ZN4inet17NextHopForwarding11encapsulateEPNS_6PacketERPKNS_16NetworkInterfaceE @7268
    _ZN4inet17NextHopForwarding11routePacketEPNS_6PacketEPKNS_16NetworkInterfaceERKNS_9L3AddressEb @7269
    _ZN4inet17NextHopForwarding12registerHookEiPNS_10INetfilter5IHookE @7270
    _ZN4inet17NextHopForwarding13handleCommandEPNS_7RequestE @7271
    _ZN4inet17NextHopForwarding14unregisterHookEPNS_10INetfilter5IHookE @7272
    _ZN4inet17NextHopForwarding15datagramLocalInEPNS_6PacketEPKNS_16NetworkInterfaceE @7273
    _ZN4inet17NextHopForwarding16datagramLocalOutEPNS_6PacketEPKNS_16NetworkInterfaceERKNS_9L3AddressE @7274
    _ZN4inet17NextHopForwarding16sendDatagramToHLEPNS_6PacketE @7275
    _ZN4inet17NextHopForwarding18datagramPreRoutingEPNS_6PacketEPKNS_16NetworkInterfaceES5_RKNS_9L3AddressE @7276
    _ZN4inet17NextHopForwarding18dropQueuedDatagramEPKNS_6PacketE @7277
    _ZN4inet17NextHopForwarding18handlePacketFromHLEPNS_6PacketE @7278
    _ZN4inet17NextHopForwarding19datagramForwardHookEPNS_6PacketE @7279
    _ZN4inet17NextHopForwarding19datagramLocalInHookEPNS_6PacketE @7280
    _ZN4inet17NextHopForwarding19handleMessageWhenUpEPN7omnetpp8cMessageE @7281
    _ZN4inet17NextHopForwarding19handleStopOperationEPNS_18LifecycleOperationE @7282
    _ZN4inet17NextHopForwarding20datagramLocalOutHookEPNS_6PacketE @7283
    _ZN4inet17NextHopForwarding20handleCrashOperationEPNS_18LifecycleOperationE @7284
    _ZN4inet17NextHopForwarding20handleStartOperationEPNS_18LifecycleOperationE @7285
    _ZN4inet17NextHopForwarding20routeMulticastPacketEPNS_6PacketEPKNS_16NetworkInterfaceES5_ @7286
    _ZN4inet17NextHopForwarding20sendDatagramToOutputEPNS_6PacketEPKNS_16NetworkInterfaceENS_9L3AddressE @7287
    _ZN4inet17NextHopForwarding21handleRegisterServiceERKNS_8ProtocolEPN7omnetpp5cGateENS_16ServicePrimitiveE @7288
    _ZN4inet17NextHopForwarding22datagramPreRoutingHookEPNS_6PacketE @7289
    _ZN4inet17NextHopForwarding22getSourceInterfaceFromEPNS_6PacketE @7290
    _ZN4inet17NextHopForwarding22handleRegisterProtocolERKNS_8ProtocolEPN7omnetpp5cGateENS_16ServicePrimitiveE @7291
    _ZN4inet17NextHopForwarding22reinjectQueuedDatagramEPKNS_6PacketE @7292
    _ZN4inet17NextHopForwarding23datagramPostRoutingHookEPNS_6PacketE @7293
    _ZN4inet17NextHopForwarding23handlePacketFromNetworkEPNS_6PacketE @7294
    _ZN4inet17NextHopForwarding4stopEv @7295
    _ZN4inet17NextHopForwarding5flushEv @7296
    _ZN4inet17NextHopForwarding5startEv @7297
    _ZN4inet17NextHopForwardingC1Ev @7298
    _ZN4inet17NextHopForwardingC2Ev @7299
    _ZN4inet17NextHopForwardingD0Ev @7300
    _ZN4inet17NextHopForwardingD1Ev @7301
    _ZN4inet17NextHopForwardingD2Ev @7302
    _ZN4inet17Ns2MotionMobility10initializeEi @7303
    _ZN4inet17Ns2MotionMobility15computeMaxSpeedEv @7304
    _ZN4inet17Ns2MotionMobility17setTargetPositionEv @7305
    _ZN4inet17Ns2MotionMobility18setInitialPositionEv @7306
    _ZN4inet17Ns2MotionMobility4moveEv @7307
    _ZN4inet17Ns2MotionMobility9parseFileEPKc @7308
    _ZN4inet17Ns2MotionMobilityC1Ev @7309
    _ZN4inet17Ns2MotionMobilityC2Ev @7310
    _ZN4inet17Ns2MotionMobilityD0Ev @7311
    _ZN4inet17Ns2MotionMobilityD1Ev @7312
    _ZN4inet17Ns2MotionMobilityD2Ev @7313
    _ZN4inet17PacketDropDetails12parsimUnpackEPN7omnetpp11cCommBufferE @7314
    _ZN4inet17PacketDropDetails4copyERKS0_ @7315
    _ZN4inet17PacketDropDetails8setLimitEi @7316
    _ZN4inet17PacketDropDetails9setReasonENS_16PacketDropReasonE @7317
    _ZN4inet17PacketDropDetailsC1ERKS0_ @7318
    _ZN4inet17PacketDropDetailsC1Ev @7319
    _ZN4inet17PacketDropDetailsC2ERKS0_ @7320
    _ZN4inet17PacketDropDetailsC2Ev @7321
    _ZN4inet17PacketDropDetailsD0Ev @7322
    _ZN4inet17PacketDropDetailsD1Ev @7323
    _ZN4inet17PacketDropDetailsD2Ev @7324
    _ZN4inet17PacketDropDetailsaSERKS0_ @7325
    _ZN4inet17PacketProtocolTag12parsimUnpackEPN7omnetpp11cCommBufferE @7326
    _ZN4inet17PacketProtocolTag13setBackOffsetENS_5units5valueIxNS1_5units1bEEE @7327
    _ZN4inet17PacketProtocolTag14setFrontOffsetENS_5units5valueIxNS1_5units1bEEE @7328
    _ZN4inet17PacketProtocolTag4copyERKS0_ @7329
    _ZN4inet17PacketProtocolTagC1ERKS0_ @7330
    _ZN4inet17PacketProtocolTagC1Ev @7331
    _ZN4inet17PacketProtocolTagC2ERKS0_ @7332
    _ZN4inet17PacketProtocolTagC2Ev @7333
    _ZN4inet17PacketProtocolTagD0Ev @7334
    _ZN4inet17PacketProtocolTagD1Ev @7335
    _ZN4inet17PacketProtocolTagD2Ev @7336
    _ZN4inet17PacketProtocolTagaSERKS0_ @7337
    _ZN4inet17PacketQueuedEvent12parsimUnpackEPN7omnetpp11cCommBufferE @7338
    _ZN4inet17PacketQueuedEvent18setQueueDataLengthENS_5units5valueIxNS1_5units1bEEE @7339
    _ZN4inet17PacketQueuedEvent20setQueuePacketLengthEi @7340
    _ZN4inet17PacketQueuedEvent4copyERKS0_ @7341
    _ZN4inet17PacketQueuedEventC1ERKS0_ @7342
    _ZN4inet17PacketQueuedEventC1Ev @7343
    _ZN4inet17PacketQueuedEventC2ERKS0_ @7344
    _ZN4inet17PacketQueuedEventC2Ev @7345
    _ZN4inet17PacketQueuedEventD0Ev @7346
    _ZN4inet17PacketQueuedEventD1Ev @7347
    _ZN4inet17PacketQueuedEventD2Ev @7348
    _ZN4inet17PacketQueuedEventaSERKS0_ @7349
    _ZN4inet17PacketTransmitter10pushPacketEPNS_6PacketEPN7omnetpp5cGateE @7350
    _ZN4inet17PacketTransmitter18scheduleTxEndTimerEPNS_13physicallayer6SignalE @7351
    _ZN4inet17PacketTransmitter19handleMessageWhenUpEPN7omnetpp8cMessageE @7352
    _ZN4inet17PacketTransmitter19handleStopOperationEPNS_18LifecycleOperationE @7353
    _ZN4inet17PacketTransmitter20handleCrashOperationEPNS_18LifecycleOperationE @7354
    _ZN4inet17PacketTransmitter5endTxEv @7355
    _ZN4inet17PacketTransmitter7startTxEPNS_6PacketE @7356
    _ZN4inet17PimInterfaceTable10initializeEi @7357
    _ZN4inet17PimInterfaceTable12addInterfaceEPNS_16NetworkInterfaceE @7358
    _ZN4inet17PimInterfaceTable13findInterfaceEPNS_16NetworkInterfaceE @7359
    _ZN4inet17PimInterfaceTable13handleMessageEPN7omnetpp8cMessageE @7360
    _ZN4inet17PimInterfaceTable13receiveSignalEPN7omnetpp10cComponentEiPNS1_7cObjectES5_ @7361
    _ZN4inet17PimInterfaceTable15createInterfaceEPNS_16NetworkInterfaceEPN7omnetpp11cXMLElementE @7362
    _ZN4inet17PimInterfaceTable15removeInterfaceEPNS_16NetworkInterfaceE @7363
    _ZN4inet17PimInterfaceTable16getInterfaceByIdEi @7364
    _ZN4inet17PimInterfaceTable19configureInterfacesEPN7omnetpp11cXMLElementE @7365
    _ZN4inet17PimInterfaceTableD0Ev @7366
    _ZN4inet17PimInterfaceTableD1Ev @7367
    _ZN4inet17PimInterfaceTableD2Ev @7368
    _ZN4inet17PostureTransition10multMatrixEPPdS2_S2_ @7369
    _ZN4inet17PostureTransition10multVectorEPdPS1_ @7370
    _ZN4inet17PostureTransition11addAreaTypeENSt7__cxx1112basic_stringIcSt11char_traitsIcESaIcEEE @7371
    _ZN4inet17PostureTransition11isMarkovianEPPd @7372
    _ZN4inet17PostureTransition11isMarkovianEPd @7373
    _ZN4inet17PostureTransition12findAreaTypeENS_5CoordE @7374
    _ZN4inet17PostureTransition13addTimeDomainENSt7__cxx1112basic_stringIcSt11char_traitsIcESaIcEEE @7375
    _ZN4inet17PostureTransition14addCombinationENSt7__cxx1112basic_stringIcSt11char_traitsIcESaIcEEES6_S6_ @7376
    _ZN4inet17PostureTransition14addSteadyStateENSt7__cxx1112basic_stringIcSt11char_traitsIcESaIcEEEPd @7377
    _ZN4inet17PostureTransition14findTimeDomainEN7omnetpp7SimTimeE @7378
    _ZN4inet17PostureTransition14setAreaBoundryEiNS_5CoordES1_ @7379
    _ZN4inet17PostureTransition14setTimeBoundryEiN7omnetpp7SimTimeES2_ @7380
    _ZN4inet17PostureTransition14subtractMatrixEPPdS2_S2_ @7381
    _ZN4inet17PostureTransition28extractMatrixFromSteadyStateEPd @7382
    _ZN4inet17PostureTransition9addMatrixENSt7__cxx1112basic_stringIcSt11char_traitsIcESaIcEEEPPdb @7383
    _ZN4inet17PostureTransition9addMatrixEPPdS2_S2_ @7384
    _ZN4inet17PostureTransition9getMatrixEN7omnetpp7SimTimeENS_5CoordE @7385
    _ZN4inet17PostureTransitionC1Ei @7386
    _ZN4inet17PostureTransitionC2Ei @7387
    _ZN4inet17PostureTransitionD1Ev @7388
    _ZN4inet17PostureTransitionD2Ev @7389
    _ZN4inet17ProcessingTimeTag12parsimUnpackEPN7omnetpp11cCommBufferE @7390
    _ZN4inet17ProcessingTimeTag4copyERKS0_ @7391
    _ZN4inet17ProcessingTimeTagC1ERKS0_ @7392
    _ZN4inet17ProcessingTimeTagC1Ev @7393
    _ZN4inet17ProcessingTimeTagC2ERKS0_ @7394
    _ZN4inet17ProcessingTimeTagC2Ev @7395
    _ZN4inet17ProcessingTimeTagD0Ev @7396
    _ZN4inet17ProcessingTimeTagD1Ev @7397
    _ZN4inet17ProcessingTimeTagD2Ev @7398
    _ZN4inet17ProcessingTimeTagaSERKS0_ @7399
    _ZN4inet17RealTimeScheduler11addCallbackEiPNS0_9ICallbackE @7400
    _ZN4inet17RealTimeScheduler12putBackEventEPN7omnetpp6cEventE @7401
    _ZN4inet17RealTimeScheduler12receiveUntilEx @7402
    _ZN4inet17RealTimeScheduler13takeNextEventEv @7403
    _ZN4inet17RealTimeScheduler14advanceSimTimeEv @7404
    _ZN4inet17RealTimeScheduler14guessNextEventEv @7405
    _ZN4inet17RealTimeScheduler14removeCallbackEiPNS0_9ICallbackE @7406
    _ZN4inet17RealTimeScheduler16executionResumedEv @7407
    _ZN4inet17RealTimeScheduler18receiveWithTimeoutEx @7408
    _ZN4inet17RealTimeScheduler6endRunEv @7409
    _ZN4inet17RealTimeScheduler8startRunEv @7410
    _ZN4inet17RealTimeSchedulerC1Ev @7411
    _ZN4inet17RealTimeSchedulerC2Ev @7412
    _ZN4inet17RealTimeSchedulerD0Ev @7413
    _ZN4inet17RealTimeSchedulerD1Ev @7414
    _ZN4inet17RealTimeSchedulerD2Ev @7415
    _ZN4inet17RectangleMobility10initializeEi @7416
    _ZN4inet17RectangleMobility18setInitialPositionEv @7417
    _ZN4inet17RectangleMobility4moveEv @7418
    _ZN4inet17RectangleMobilityC1Ev @7419
    _ZN4inet17RectangleMobilityC2Ev @7420
    _ZN4inet17RsbCommitTimerMsg12parsimUnpackEPN7omnetpp11cCommBufferE @7421
    _ZN4inet17RsbCommitTimerMsg4copyERKS0_ @7422
    _ZN4inet17RsbCommitTimerMsg5setIdEi @7423
    _ZN4inet17RsbCommitTimerMsgC1EPKcs @7424
    _ZN4inet17RsbCommitTimerMsgC1ERKS0_ @7425
    _ZN4inet17RsbCommitTimerMsgC2EPKcs @7426
    _ZN4inet17RsbCommitTimerMsgC2ERKS0_ @7427
    _ZN4inet17RsbCommitTimerMsgD0Ev @7428
    _ZN4inet17RsbCommitTimerMsgD1Ev @7429
    _ZN4inet17RsbCommitTimerMsgD2Ev @7430
    _ZN4inet17RsbCommitTimerMsgaSERKS0_ @7431
    _ZN4inet17SctpSimpleMessage10appendDataEh @7432
    _ZN4inet17SctpSimpleMessage10insertDataEyh @7433
    _ZN4inet17SctpSimpleMessage10setDataLenEj @7434
    _ZN4inet17SctpSimpleMessage12parsimUnpackEPN7omnetpp11cCommBufferE @7435
    _ZN4inet17SctpSimpleMessage15setCreationTimeEN7omnetpp7SimTimeE @7436
    _ZN4inet17SctpSimpleMessage16setDataArraySizeEy @7437
    _ZN4inet17SctpSimpleMessage4copyERKS0_ @7438
    _ZN4inet17SctpSimpleMessage7setDataEyh @7439
    _ZN4inet17SctpSimpleMessage9eraseDataEy @7440
    _ZN4inet17SctpSimpleMessage9setEncapsEb @7441
    _ZN4inet17SctpSimpleMessageC1EPKc @7442
    _ZN4inet17SctpSimpleMessageC1ERKS0_ @7443
    _ZN4inet17SctpSimpleMessageC2EPKc @7444
    _ZN4inet17SctpSimpleMessageC2ERKS0_ @7445
    _ZN4inet17SctpSimpleMessageD0Ev @7446
    _ZN4inet17SctpSimpleMessageD1Ev @7447
    _ZN4inet17SctpSimpleMessageD2Ev @7448
    _ZN4inet17SctpSimpleMessageaSERKS0_ @7449
    _ZN4inet17SenderTemplateObjC1Ev @7450
    _ZN4inet17SenderTemplateObjC2Ev @7451
    _ZN4inet17SequenceNumberInd12parsimUnpackEPN7omnetpp11cCommBufferE @7452
    _ZN4inet17SequenceNumberInd4copyERKS0_ @7453
    _ZN4inet17SequenceNumberIndC1ERKS0_ @7454
    _ZN4inet17SequenceNumberIndC1Ev @7455
    _ZN4inet17SequenceNumberIndC2ERKS0_ @7456
    _ZN4inet17SequenceNumberIndC2Ev @7457
    _ZN4inet17SequenceNumberIndD0Ev @7458
    _ZN4inet17SequenceNumberIndD1Ev @7459
    _ZN4inet17SequenceNumberIndD2Ev @7460
    _ZN4inet17SequenceNumberIndaSERKS0_ @7461
    _ZN4inet17SequenceNumberReq12parsimUnpackEPN7omnetpp11cCommBufferE @7462
    _ZN4inet17SequenceNumberReq4copyERKS0_ @7463
    _ZN4inet17SequenceNumberReqC1ERKS0_ @7464
    _ZN4inet17SequenceNumberReqC1Ev @7465
    _ZN4inet17SequenceNumberReqC2ERKS0_ @7466
    _ZN4inet17SequenceNumberReqC2Ev @7467
    _ZN4inet17SequenceNumberReqD0Ev @7468
    _ZN4inet17SequenceNumberReqD1Ev @7469
    _ZN4inet17SequenceNumberReqD2Ev @7470
    _ZN4inet17SequenceNumberReqaSERKS0_ @7471
    _ZN4inet17SequenceNumbering13processPacketEPNS_6PacketE @7472
    _ZN4inet17ShortcutMacHeader12parsimUnpackEPN7omnetpp11cCommBufferE @7473
    _ZN4inet17ShortcutMacHeader18setPayloadProtocolEPKNS_8ProtocolE @7474
    _ZN4inet17ShortcutMacHeader4copyERKS0_ @7475
    _ZN4inet17ShortcutMacHeaderC1ERKS0_ @7476
    _ZN4inet17ShortcutMacHeaderC1Ev @7477
    _ZN4inet17ShortcutMacHeaderC2ERKS0_ @7478
    _ZN4inet17ShortcutMacHeaderC2Ev @7479
    _ZN4inet17ShortcutMacHeaderD0Ev @7480
    _ZN4inet17ShortcutMacHeaderD1Ev @7481
    _ZN4inet17ShortcutMacHeaderD2Ev @7482
    _ZN4inet17ShortcutMacHeaderaSERKS0_ @7483
    _ZN4inet17ShortcutPhyHeader12parsimUnpackEPN7omnetpp11cCommBufferE @7484
    _ZN4inet17ShortcutPhyHeader18setPayloadProtocolEPKNS_8ProtocolE @7485
    _ZN4inet17ShortcutPhyHeader4copyERKS0_ @7486
    _ZN4inet17ShortcutPhyHeaderC1ERKS0_ @7487
    _ZN4inet17ShortcutPhyHeaderC1Ev @7488
    _ZN4inet17ShortcutPhyHeaderC2ERKS0_ @7489
    _ZN4inet17ShortcutPhyHeaderC2Ev @7490
    _ZN4inet17ShortcutPhyHeaderD0Ev @7491
    _ZN4inet17ShortcutPhyHeaderD1Ev @7492
    _ZN4inet17ShortcutPhyHeaderD2Ev @7493
